pc:_glClearStencil
$Xe:_Array_InternalArray__ICollection_Add_TisMark_t2724874473_m1613484179_gshared
zac:__ZN5physx2Gu19gjkLocalPenetrationINS0_8CapsuleVENS0_17ShrunkConvexHullVEEEjRKT_RKT0_RKNS_6shdfnd3aos6FloatVERNSB_5Vec3VESG_SG_RSC_PhSI_Rhb
_ci:_mbrlen
nwf:_RuntimeTypeHandle_GetObjectData_m3567098501
hIb:__ZN12ShaderErrors21AddShaderCompileErrorERKNSt3__212basic_stringIcNS0_11char_traitsIcEENS0_9allocatorIcEEEEib
j$h:__ZN6il2cpp2vm5Array13GetByteLengthEP11Il2CppArray
big:__ZL61IRemotingFormatter_t4112065742_CustomAttributesCacheGeneratorP21CustomAttributesCache
wuh:__ZN14dense_hash_mapI10KeyWrapperINSt3__212basic_stringIcNS1_11char_traitsIcEENS1_9allocatorIcEEEEEP11Il2CppClassN6il2cpp5utils11StringUtils12StringHasherIS7_EENS1_8equal_toIS8_EENS5_INS1_4pairIKS8_SA_EEEEE15set_deleted_keyERSJ_
k0g:__Z37RuntimeInvoker_Enumerator_t1593300101PK10MethodInfoPvPS2_
XJg:_UInt64_System_IConvertible_ToDecimal_m4205696037
$ka:__Z21SourceMipLevelForBlitiiii
zEf:_GenericTypeParameterBuilder_GetEvent_m4210567427
zDf:_EnumBuilder_GetCustomAttributes_m432109445
kae:_Enumerator_get_Key_m2908810861
z2g:__Z55RuntimeInvoker_ILTokenInfo_t149559338_Int32_t2071877448PK10MethodInfoPvPS2_
PDd:__ZN11UnityEngine7Connect14AppUpdateEventD0Ev
l1c:__ZNK5physx2Sc5Scene24getContactModifyCallbackEv
Omi:__ZdlPv
ar:__ZN11UnityEngine9Animation28GenericAnimationBindingCacheD2Ev
r4c:__ZN5physx2Sq10AABBPruner10addObjectsEPjPKNS_9PxBounds3EPKNS0_13PrunerPayloadEj
iig:__ZL68RemotingSurrogateSelector_t2821375126_CustomAttributesCacheGeneratorP21CustomAttributesCache
K1g:__Z76RuntimeInvoker_Void_t1841601450_Int32_t2071877448_KeyValuePair_2_t3716250094PK10MethodInfoPvPS2_
Oce:_Decimal_op_Implicit_m2971610317
Ab:invoke_viiiifiiiiif
wNa:__Z18RestoreRenderStateR20CameraRenderOldStateR17ShaderPassContext
a6d:_SynchronizedArrayListWrapper_get_Item_m3309425850
QAb:__Z18Transfer_BlittableI18StreamedBinaryReadILb1EELb1E5RectTIfEEvRK29SerializationCommandArgumentsR31RuntimeSerializationCommandInfo
Pub:__Z18Transfer_BlittableI24GenerateTypeTreeTransferLb0E11ColorRGBA32EvRK29SerializationCommandArgumentsR31RuntimeSerializationCommandInfo
_Xb:__Z21Object_CUSTOM_DestroyP12Il2CppObjectf
Ejc:__ZN5physx6shdfnd8PoolBaseINS_2Sc10NPhaseCore16ClothListElementENS0_19ReflectionAllocatorIS4_EEE17releaseEmptySlabsEv
ovi:_emscripten_glDeleteBuffers__wrapper
Ndb:__ZN22SharedSpriteRenderDataD0Ev
Tgh:_Collision_t2876846408_marshal_pinvoke_back
ond:__ZN5physx2Sc14ConstraintCore10breakApartEv
kFf:_GenericTypeParameterBuilder_GetHashCode_m867619899
Y1g:__Z79RuntimeInvoker_Void_t1841601450_Int32_t2071877448_ParameterModifier_t1820634920PK10MethodInfoPvPS2_
Fsd:__ZN5physx2Gu15EdgeListBuilderC2Ev
r0f:_EqualityComparer_1__cctor_m3397254040_gshared
whi:__ZNKSt3__220__time_get_c_storageIcE3__XEv
l_g:__Z37RuntimeInvoker_ContentType_t859870085PK10MethodInfoPvPS2_
cud:__ZN5physx7Cooking20loadTriangleMeshDescERKNS_18PxTriangleMeshDescERNS_19TriangleMeshBuilderE
dSe:__ZThn4_N6il2cpp2vm13ComObjectBaseI34__Il2CppComDelegate_t3311706788CCW18Il2CppIInspectableNS0_7details6ComNilES5_S5_S5_S5_S5_S5_E14QueryInterfaceERK10Il2CppGuidPPv
GFe:_MonoType_CheckMethodSecurity_m4116906190
Hmc:__ZN5physx9NpFactory21releaseConnectorArrayEPNS_16NpConnectorArrayE
_hi:__ZNKSt3__220__time_get_c_storageIwE3__cEv
eC:__ZNSt3__26__treeINS_12__value_typeIN19CloudServiceHandler11ServiceTypeEPS2_EENS_19__map_value_compareIS3_S5_NS_4lessIS3_EELb1EEE13stl_allocatorIS5_L18MemLabelIdentifier85ELi16EEE7destroyEPNS_11__tree_nodeIS5_PvEE
s7c:__ZNK5physx2Gu29EPASupportMapPairRelativeImplINS0_9TriangleVENS0_4BoxVEE6getDirEv
_V:__ZN13RuntimeStaticI18BackgroundJobQueueE13StaticDestroyEPv
dba:__ZN17PersistentManager22CheckInstanceIDsLoadedEPii
ija:__ZN7ApiGLES17CopyBufferSubDataEjjlll
yFd:__ZN11UnityEngine15PlatformWrapper17GetCloudProjectIdEv
TRb:__ZN4Mesh18RecalculateNormalsEv
Jdi:_wmemmove
NA:__ZN11AudioModule26SetDefaultMicrophoneDriverEPv
YLc:__ZNK5physx15NpActorTemplateINS_15PxParticleFluidEE22getClientBehaviorFlagsEv
qoh:_AesManaged_CreateEncryptor_m1729287824
aeb:__ZNK14Texture2DArray26CanReuploadDataToGfxDeviceEv
kLa:__ZN17PrePassRenderLoop14RenderBasePassEP13RenderTextureRK14LightingLayersR13dynamic_arrayI16RenderObjectDataLj4EERbR10MinMaxAABB
T_a:__ZN17GlobalGameManager23VirtualRedirectTransferER17RemapPPtrTransfer
c3d:_Char_System_IConvertible_ToInt16_m2741348777_AdjustorThunk
qgi:__ZNKSt3__27num_getIwNS_19istreambuf_iteratorIwNS_11char_traitsIwEEEEE6do_getES4_S4_RNS_8ios_baseERjRPv
thi:__ZNKSt3__220__time_get_c_storageIcE3__cEv
ych:_ReadOnlyCollection_1_System_Collections_Generic_IListU3CTU3E_set_Item_m1547026160_gshared
Dbg:__ZL61MarshalAsAttribute_t2900773360_CustomAttributesCacheGeneratorP21CustomAttributesCache
AY:__ZN7Texture13SetFilterModeEi
$sb:__Z33BuildSerializationCommandQueueForI19StreamedBinaryWriteILb0EEEvRK34BuildSerializationCommandQueueArgsR32SerializationCommandQueueBuilderRP20AllowNameConversionsbPK18TransferField_Info
H0h:__ZN6il2cpp8metadata13GenericMethod9GetMethodEPK19Il2CppGenericMethod
X$a:__ZNSt3__26vectorIN4core12basic_stringIcNS1_20StringStorageDefaultIcEEEENS_9allocatorIS5_EEE7reserveEj
gfe:_Convert_ToUInt16_m2130758075
Jjf:_X509BasicConstraintsExtension_Encode_m3505127076
Ddb:__ZN24GenerateTypeTreeTransfer8TransferI13dynamic_arrayI12SpriteVertexLj4EEEEvRT_PKc17TransferMetaFlags
_da:__ZN13GfxDeviceGLES11SetViewportERK5RectTIiE
aje:_Decimal_System_IConvertible_ToInt64_m2504363272
rb:invoke_vifiiii
i_d:_Array_GetValue_m3182152438
Id:_emscripten_glDepthRange
nyf:_DESTransform_CipherFunct_m3559419566
x5b:__ZN5physx2Gu24contactConvexHeightfieldERKNS0_13GeometryUnionES3_RKNS_11PxTransformES6_RKfRNS0_5CacheERNS0_13ContactBufferE
ioc:__ZN5physx6shdfnd5ArrayIPvNS0_19ReflectionAllocatorINS_2Cm5BlockIS2_Lj8EEEEEE15growAndPushBackERKS2_
Qvf:_RuntimeFieldHandle_get_Value_m3963757144
ZDb:__Z14resize_trimmedINSt3__26vectorIN9ShaderLab20SerializedSubProgram12UAVParameterENS0_9allocatorIS4_EEEEEvRT_j
Qqf:_SerializationInfo_AddValue_m1781549036
q7e:_TlsServerKeyExchange_verifySignature_m3641534563
zka:__ZN4crndL20crnd_default_reallocEPvjPjbS0_
fWe:_Array_BinarySearch_TisInt32_t2071877448_m51233948_gshared
lmi:__ZNSt3__26locale5__imp7installINS_9money_putIwNS_19ostreambuf_iteratorIwNS_11char_traitsIwEEEEEEEEvPT_
ucd:__ZN5physx24PxsComputeAABBLocalSpaceERKNS_18PxcAABBDataDynamicERNS_9PxBounds3E
pYd:_UTF32Encoding_GetPreamble_m767706727
p1a:__ZN4PPtrI13RenderTextureE8TransferI18StreamedBinaryReadILb0EEEEvRT_
LGh:__ZN15dense_hashtableINSt3__24pairIK10KeyWrapperINS1_IPK9FieldInfoP11Il2CppClassEEEjEES9_17ReflectionMapHashIS8_EN14dense_hash_mapIS9_jSD_19ReflectionMapEqualsIS8_ENS0_9allocatorISB_EEE9SelectKeyESG_SI_E15insert_noresizeERKSB_
yce:_DateTime_AbsoluteDays_m3061694073
v0g:__Z56RuntimeInvoker_Boolean_t3825574718_LabelData_t3712112744PK10MethodInfoPvPS2_
iBb:__Z18Transfer_BlittableI18StreamedBinaryReadILb1EELb1EdEvRK29SerializationCommandArgumentsR31RuntimeSerializationCommandInfo
vXf:_Enumerator_MoveNext_m435964161_AdjustorThunk
EXf:_Enumerator_System_Collections_IEnumerator_get_Current_m229223308_gshared
V4c:__ZN5physx6shdfnd8internal8HashBaseINS0_4PairIKNS_2Sq13PrunerPayloadEjEES5_NS0_4HashIS5_EENS1_11HashMapBaseIS5_jS9_NS0_9AllocatorEE6GetKeyESB_Lb1EE5eraseERS6_
Nod:__ZN5physx13GuMeshFactory16createConvexMeshERNS_13PxInputStreamE
Pxd:__ZN5physx6shdfnd8internal8HashBaseINS0_4PairIKPKcjEES5_NS0_4HashIS5_EENS1_11HashMapBaseIS5_jS9_NS_7profile26WrapperReflectionAllocatorIjEEE6GetKeyESD_Lb1EE6createERS6_Rb
Cgg:__ZL55GCHandleType_t1970708122_CustomAttributesCacheGeneratorP21CustomAttributesCache
E7b:__ZN5physx2Gu3Box6createERKNS0_7CapsuleE
zYa:__ZN10FileSystem12MountHandlerEP17FileSystemHandler
L5d:_FixedSizeArrayListWrapper_AddRange_m2071800418
EW:__Z9InitInputv
Fla:__ZN4gles10SetTextureER15DeviceStateGLESj16TextureDimensionj19BuiltinSamplerState
bwb:__Z29Transfer_Blittable_ArrayFieldI24GenerateTypeTreeTransfer11ColorRGBA32EvRT_R9ArrayInfoRK23StaticTransferFieldInfo
Lod:__ZNK5physx13GuMeshFactory15getConvexMeshesEPPNS_12PxConvexMeshEjj
SSe:_AppDomain_getCurDomain_m591611373
tUa:__ZN16MemoryFileSystem6DeleteER13FileEntryDatab
A9:__ZL21BlitScaleStbImageImplRK14ImageReferenceRS_NS_10ColorSpaceE
lDc:__ZN5physx10NpMaterial17setStaticFrictionEf
gef:_TlsStream_set_Position_m378064217
Yq:__ZN18StreamedBinaryReadILb0EE21TransferSTLStyleArrayI13dynamic_arrayIjLj4EEEEvRT_17TransferMetaFlags
KXc:__ZNK5physx7NpScene19getFilterShaderDataEv
Arb:__Z29Transfer_Blittable_ArrayFieldI14SafeBinaryReadyEvRT_R9ArrayInfoRK23StaticTransferFieldInfo
zAh:__ZL25UnresolvedVirtualCall_113P12Il2CppObjectiiiPK10MethodInfo
ay:__ZN20SoundChannelInstance15setChannelGroupEPN4FMOD12ChannelGroupE
nyc:__ZN5physx2Sc19ShapeInstancePairLL26onPoseChangedWhileSleepingEv
rPd:_Evidence_Equals_m2325859915
C6c:__ZN5physx22PxcSweepCapsuleCapsuleERKNS_11PxsCCDShapeES2_PKNS_12PxsRigidBodyES5_RKNS_11PxTransformES8_S8_S8_fRNS_6PxVec3ESA_RNS_10PxcNpCacheERNS_18PxcNpThreadContextEf
Wkg:__ZL93WindowsIdentity_t373339331_CustomAttributesCacheGenerator_WindowsIdentity_Dispose_m2649088337P21CustomAttributesCache
bBf:_Default__ctor_m172834064
gSf:_InternalEnumerator_1_MoveNext_m3389738333_AdjustorThunk
Jmb:__ZN20ArchiveStorageReader17MakeStorageUnusedEv
pzg:_Regex_IsMatch_m2159202025
Afc:__ZNK5physx3Cct17CapsuleController21getHalfHeightInternalEv
Rua:__ZNK25MultiBlocksMemoryFileData5CloneEv
e5h:_GC_add_ext_descriptor
Lec:__ZN5physx21PxQueryFilterCallbackD2Ev
isf:_RemotingServices_GetMethodBaseFromName_m3271095947
bYg:__Z71RuntimeInvoker_TimeSpan_t3430258949_Double_t4078015681_Int64_t909078037PK10MethodInfoPvPS2_
Wva:__ZN17ArchiveFileSystem11CreateAsDirER13FileEntryData
Plc:__ZL30GeomOverlapCallback_CapsuleBoxRKN5physx10PxGeometryERKNS_11PxTransformES2_S5_PNS_2Gu12TriggerCacheE
Api:dynCall_iiiiiiiiiiii
dVd:_ASCIIEncoding_GetBytes_m3617160053
oVf:_InternalEnumerator_1_MoveNext_m2289229080_AdjustorThunk
NOg:__Z72RuntimeInvoker_Boolean_t3825574718_Decimal_t724701077_Decimal_t724701077PK10MethodInfoPvPS2_
v6e:_CipherSuiteCollection_System_Collections_IList_RemoveAt_m143866082
h4f:_Context_get_HasGlobalDynamicSinks_m3205328884
kda:__ZN22VertexDeclarationCacheD0Ev
O4:__ZN6prcoreL17RemapGenericFloatI16TexFormatRGFloat17TexFormatRGBAHalfEEvPKNS_9InnerInfoE
TYa:__ZNK21AssetBundleFileSystem8PositionERK13FileEntryData
Uih:_UnityEventBase_UnityEngine_ISerializationCallbackReceiver_OnBeforeSerialize_m1773826808
VP:__ZN8Remapper23GetOrGenerateInstanceIDERK26SerializedObjectIdentifier
spa:__Z26TransformVerticesInnerLoopILb0ELb0ELb0EEvPhRK10Matrix4x4fRK10Matrix3x3fjPKhiiiS8_ii25GfxTransformVerticesFlags
rCe:_StreamWriter_Flush_m3426120024
awa:__ZN17FileSystemHandler10AtomicMoveER13FileEntryDataS1_
Wze:_MemoryStream__ctor_m1489366847
RPd:_SecurityElement_IsValidTag_m64902195
HXf:_Enumerator_System_Collections_IEnumerator_get_Current_m229223308_AdjustorThunk
nLf:_PropertyInfo_SetValue_m2961483868
y1g:__Z60RuntimeInvoker_Void_t1841601450_ResourceCacheItem_t333236149PK10MethodInfoPvPS2_
VBh:__ZNSt3__214__split_bufferI6pollfdRNS_9allocatorIS1_EEED2Ev
i7f:_DictionaryEnumerator_get_Value_m1915638953
ABf:_ConstructorInfo_Invoke_m2144827141
Bdb:__ZN6Sprite8TransferI24GenerateTypeTreeTransferEEvRT_
I7h:__ZThn4_N6il2cpp2vm13ComObjectBaseINS0_13ManagedObjectE18Il2CppIInspectableNS0_7details6ComNilES5_S5_S5_S5_S5_S5_E16GetManagedObjectEv
E0g:__Z56RuntimeInvoker_Boolean_t3825574718_UriScheme_t1876590943PK10MethodInfoPvPS2_
ggb:__ZN7SubMesh8TransferI24GenerateTypeTreeTransferEEvRT_
fQb:__ZN16StreamedResource8TransferI18StreamedBinaryReadILb1EEEEvRT_
qKf:_MonoProperty_get_CanWrite_m2124922514
x4b:__ZN5physx3Cct10Controller6setPosERKNS_14PxExtendedVec3E
jV:__ZN13RuntimeStaticI13RendererSceneE13StaticDestroyEPv
E6b:__ZN5physx2GuL14testFaceNormalERKNS0_13PolygonalDataES3_PNS0_12SupportLocalES5_RKNS_6shdfnd3aos15PsMatTransformVESA_RKNS7_6FloatVERSB_RjRNS7_5Vec3VENS0_13FeatureStatusERSI_
l0g:__Z36RuntimeInvoker_Enumerator_t132208513PK10MethodInfoPvPS2_
I0g:__Z112RuntimeInvoker_Int32_t2071877448_Il2CppObject_Int32_t2071877448_Int32_t2071877448_Int32_t2071877448_Il2CppObjectPK10MethodInfoPvPS2_
idi:_poll
Hze:_Stream_BeginRead_m1985960185
fwg:__ZL50Vector4_t2243707581_CustomAttributesCacheGeneratorP21CustomAttributesCache
kLe:__ZN16VirtFuncInvoker1IP21BigInteger_t925946152iE6InvokeEjPvi
L3e:_MD4Managed_GG_m1462438360
EWb:__Z46Mesh_CUSTOM_PrintErrorCantAccessMeshForIndicesP12Il2CppObject
Aqf:_SerializationInfoEnumerator_get_Value_m3437991400
Vlc:__ZL32GeomOverlapCallback_ConvexConvexRKN5physx10PxGeometryERKNS_11PxTransformES2_S5_PNS_2Gu12TriggerCacheE
x3e:_MD4_Create_m2582504069
yWh:__ZN6il2cpp8metadata15GenericMetadata15GetGenericClassEiPK17Il2CppGenericInst
Q0d:_Boolean_System_IConvertible_ToInt16_m977801621
Qpb:__Z18Transfer_BlittableI14SafeBinaryReadLb0E10Matrix4x4fEvRK29SerializationCommandArgumentsR31RuntimeSerializationCommandInfo
Rxa:__Z24GetFixedBehaviourManagerv
nFa:__ZN12FlareManager9UpdateJobEP25FlareManagerUpdateJobData
cCh:__ZN6il2cpp2vm10ThreadPool4WaitEP17Il2CppAsyncResultPPv
gbi:_vfprintf
Sqf:_SerializationException__ctor_m1019897788
g$g:__Z67RuntimeInvoker_Playable_t3667545548_GenericMixerPlayable_t788733994PK10MethodInfoPvPS2_
tih:_Debug_get_logger_m4173808038
T2:__ZL13SortTexByNameRKNSt3__24pairIN9ShaderLab16FastPropertyNameEN18UnityPropertySheet11UnityTexEnvEEES7_
ZFa:__ZN20DynamicPropertySheetD0Ev
$Ra:__ZN14SafeBinaryRead17RegisterConverterEPKcS1_PFbPvRS_E
UK:__ZN35RegisterRuntimeInitializeAndCleanup8RegisterEPFvPvES2_iS0_
nRc:__ZNK5physx19NpRigidBodyTemplateINS_14PxRigidDynamicEE17getRigidBodyFlagsEv
SPh:__ZNSt3__26vectorIN6il2cpp8metadata18GenericArrayMethodENS_9allocatorIS3_EEE7reserveEj
E$d:_AsyncCallback__ctor_m3071689932
iQh:__ZNK15dense_hashtableINSt3__24pairIK10KeyWrapperIP11Il2CppClassES4_EES5_N6il2cpp8metadata16SZArrayClassHashEN14dense_hash_mapIS5_S4_SA_NS9_19SZArrayClassCompareENS0_9allocatorIS7_EEE9SelectKeyESC_SE_E13find_positionERS6_
a6a:__ZN20SphericalHarmonicsL215AddAmbientLightERK10ColorRGBAf
G6c:__ZN5physx25PxcSweepConvexHeightfieldERKNS_11PxsCCDShapeES2_PKNS_12PxsRigidBodyES5_RKNS_11PxTransformES8_S8_S8_fRNS_6PxVec3ESA_RNS_10PxcNpCacheERNS_18PxcNpThreadContextEf
VMe:_DSAManaged_NormalizeArray_m2287089393
r$e:_Mesh_SetArrayForChannel_TisIl2CppObject_m2177737897_gshared
Z:invoke_diddi
Cde:_Double_TryParseStringConstant_m2585405703
DHh:__ZN15dense_hashtableINSt3__24pairIK10KeyWrapperIPK10Il2CppTypeEjEES6_N6il2cpp8metadata14Il2CppTypeHashEN14dense_hash_mapIS6_jSB_NSA_17Il2CppTypeCompareENS0_9allocatorIS8_EEE9SelectKeyESD_SF_E5clearEv
hJf:_MonoField_get_Attributes_m4138688533
bqb:__Z18Transfer_BlittableI14SafeBinaryReadLb0EiEvRK29SerializationCommandArgumentsR31RuntimeSerializationCommandInfo
hyh:__ZN6il2cpp2vm13MetadataCache30GetPropertyDefinitionFromIndexEi
qJd:_RijndaelTransform_Clear_m1652144089
rQc:__ZN5physx14NpRigidDynamic7releaseEv
fye:_MonoIO_GetException_m2577367044
oMg:__Z57RuntimeInvoker_Void_t1841601450_Il2CppObject_Il2CppObjectPK10MethodInfoPvPS2_
fHe:_NumberFormatter_get_IsZero_m1325357749
W2c:__ZN5physx6shdfnd8PoolBaseINS_21PxsBodyTransformVault13PxsBody2WorldENS0_19ReflectionAllocatorIS3_EEE15disposeElementsEv
Rme:_Enum_ToObject_m322320225
tNd:_X509Certificate__ctor_m3860837120
vgh:_Camera_RaycastTry2D_m755036866
Gcc:__ZN5physx2Gu30computeCapsule_TriangleMeshMTDERKNS_22PxTriangleMeshGeometryERKNS_11PxTransformERNS0_8CapsuleVEffbRNS_10PxSweepHitE
imb:__ZN30RuntimeInitializeOnLoadManager8TransferI18StreamedBinaryReadILb0EEEEvRT_
y_f:_Dictionary_2__ctor_m1206668798_gshared
mnb:__ZN21ArchiveStorageCreator14StoreDirectoryEv
ATb:__ZL34GetComponentsImplementationRecurseILb1ELi0ELi2EEbR10GameObjectbRK17CompareParametersRK39GetComponentsImplementation_ReturnValue
n8h:__ZN6il2cpp6icalls8mscorlib6System9Threading5Mutex20CreateMutex_internalEbP12Il2CppStringPb
dWg:__Z50RuntimeInvoker_Int16_t4041245914_Int16_t4041245914PK10MethodInfoPvPS2_
s5d:_ArrayListWrapper_Remove_m1105489978
oFa:__ZNK6Camera18WorldToScreenPointERK8Vector3fPb
Mcd:__ZN5physx2Cm12DelegateTaskINS_10PxsContextEXadL_ZNS2_28mergeCMDiscreteUpdateResultsEPNS_10PxBaseTaskEEEE11runInternalEv
n1d:_Boolean_CompareTo_m3691698947_AdjustorThunk
ztd:__ZN5physx19TriangleMeshBuilder10importMeshERKNS_18PxTriangleMeshDescERKNS_15PxCookingParamsEb
c9d:_HashKeys_CopyTo_m3566668422
k3d:_Convert_ToSByte_m2665932200
cP:__ZNSt3__227__insertion_sort_incompleteIRPFbRKN18AwakeFromLoadQueue4ItemES4_EPS2_EEbT0_S9_T_
oK:__GLOBAL__sub_I_runtime_camera_culling_lump_cpp
Qci:_strrchr
sJc:__ZN5physx6shdfnd5ArrayINS_18PxClothFabricPhaseENS0_19ReflectionAllocatorIS2_EEE8recreateEj
j9a:__ZN26EnlightenSystemInformation8TransferI14SafeBinaryReadEEvRT_
E$e:_Array_InternalArray__get_Item_TisLink_t2723257478_m2281261655_gshared
VYc:__ZN5physx2Sq17SceneQueryManager11shiftOriginERKNS_6PxVec3E
Ahb:__ZN12MeshRendererD0Ev
Kac:__ZN5physx2Gu16sweepBoxTriangleERKNS_10PxTriangleERKNS_9PxBounds3ERKNS_6PxVec3ES9_RS7_SA_Rf
vx:__ZN4PPtrI15AudioMixerGroupE8TransferI18StreamedBinaryReadILb1EEEEvRT_
QAg:_ExpressionAssertion_IsComplex_m783019628
e8d:_Hashtable__ctor_m2702360557
uh:_utime
jud:__ZN5physx10writeChunkEaaaaRNS_14PxOutputStreamE
Zqe:_DateTimeFormatInfo_get_RawAbbreviatedDayNames_m3998113647
gOh:__ZNSt3__26vectorIN6il2cpp2vm17TypeNameParseInfoENS_9allocatorIS3_EEE8allocateEj
JNd:__ZN16VirtFuncInvoker0IP8String_tE6InvokeEjPv
kHh:__ZN6il2cpp2gc19AppendOnlyGCHashMapIPK10Il2CppTypeP20Il2CppReflectionTypeNS_8metadata14Il2CppTypeHashENS7_17Il2CppTypeCompareEE3AddERKS4_S6_
j2e:_PrimalityTest_Invoke_m4058801829
Yrf:_RemotingConfiguration_SetCustomErrorsMode_m1844153208
nn:FUNCTION_TABLE_viiiiii
eAc:__ZN5physx2Sc9RigidCore13onShapeChangeERNS0_9ShapeCoreENS_7PxFlagsINS0_21ShapeChangeNotifyFlag4EnumEjEENS4_INS_11PxShapeFlag4EnumEhEE
tpe:_CultureInfo_GetFormat_m3560116485
Fnh:_ScriptableObject_CreateInstance_m3271154163
RNc:__ZN5physx6shdfnd5ArrayIPvNS0_15InlineAllocatorILj256ENS0_19ReflectionAllocatorINS_2Sc19ParticlePacketShapeEEEEEE15growAndPushBackERKS2_
j9c:__ZN5physx17solveContactBlockEPKNS_23PxcSolverConstraintDescEjRNS_16PxcSolverContextE
sud:__ZN5physx6shdfnd10FoundationD2Ev
_We:_Array_InternalArray__IndexOf_TisResourceCacheItem_t333236149_m761772858_gshared
Oog:__ZL79Convert_t2607082565_CustomAttributesCacheGenerator_Convert_ToUInt64_m1896191125P21CustomAttributesCache
Ing:__ZL76Convert_t2607082565_CustomAttributesCacheGenerator_Convert_ToInt64_m44696721P21CustomAttributesCache
tsf:_TrackingServices__cctor_m3639412334
g0:__ZN9ShaderLab11shaderprops9GetVectorEPK19ShaderPropertySheetS3_NS_16FastPropertyNameERNS0_16PropertyLocationE
ryf:_DESTransform_ECB_m2629024873
K$:__ZNSt3__26__treeINS_12__value_typeI4PPtrI13RenderTextureEN19RenderBufferManager23RenderTextureParametersEEENS_19__map_value_compareIS4_S7_NS_4lessIS4_EELb1EEE11memory_poolIS7_EE5eraseENS_21__tree_const_iteratorIS7_PNS_11__tree_nodeIS7_PvEEiEE
cPd:_StrongNamePublicKeyBlob_Equals_m2407250401
R_a:__ZN17GlobalGameManager23VirtualRedirectTransferER19StreamedBinaryWriteILb0EE
r3c:__ZN5physx2Sc10NPhaseCoreD2Ev
Snc:__ZN5physx2Sc7BodySim18onConstraintDetachEv
vti:_glGetShaderInfoLog__wrapper
Xh:_emscripten_glGetTexParameteriv
QXc:__ZN5physx7NpScene8simulateEfPNS_10PxBaseTaskEPvjb
vWc:__ZThn8_N5physx2Sc24ElementInteractionMarker10onActivateEj
vve:_Int32_ToString_m1064459878_AdjustorThunk
NQe:_DeriveBytes__ctor_m3089550878
Vyd:__ZN5physx7profile12MemoryBufferINS0_21WrapperNamedAllocatorEE5writeIyEEvRKT_
nEb:__ZN9ShaderLab20SerializedSubProgram14ConstantBufferaSERKS1_
x2f:_ChannelData_CopyFrom_m4049054607
UJb:__Z13RegisterClassI4MeshEvv
pWe:_Array_FindLastIndex_TisIl2CppObject_m869210470_gshared
d6a:__ZN8PlayableD0Ev
K1:__ZNSt3__24pairIK8UnityStrS1_EC2ERKS3_
Tt:__ZN12AudioManager8TransferI19StreamedBinaryWriteILb0EEEEvRT_
nAe:_WriteDelegate_Invoke_m2103848735
FBb:__ZN18StreamedBinaryReadILb1EE21TransferSTLStyleArrayI13dynamic_arrayI11ColorRGBA32Lj4EEEEvRT_17TransferMetaFlags
CI:__ZN22LocalFileSystemHandler4NameEv
knb:__ZNSt3__26__treeINS_12__value_typeINS_12basic_stringIcNS_11char_traitsIcEENS_9allocatorIcEEEEjEENS_19__map_value_compareIS7_S8_NS_4lessIS7_EELb1EEE13stl_allocatorIS8_L18MemLabelIdentifier54ELi16EEE12__find_equalIS7_EERPNS_16__tree_node_baseIPvEESM_RKT_
SYf:_Transform_1_EndInvoke_m687617772_gshared
b2g:__Z66RuntimeInvoker_Void_t1841601450_Int32_t2071877448_Mark_t2724874473PK10MethodInfoPvPS2_
Nnh:_Locale_GetText_m512920887
lNb:__ZNK32RendererMaterialAnimationBinding12GetPPtrValueERKN11UnityEngine9Animation10BoundCurveE
dyb:__Z18Transfer_BlittableI18StreamedBinaryReadILb0EELb0E8Vector2fEvRK29SerializationCommandArgumentsR31RuntimeSerializationCommandInfo
Uwc:__ZN5physx18NpArticulationLink10clearForceENS_11PxForceMode4EnumE
Grf:_RemotingConfiguration_get_ProcessId_m3870172209
u7b:__ZN5physx2Gu30distanceSegmentTriangleSquaredERKNS_6PxVec3ES3_S3_S3_S3_PfS4_S4_
cni:__ZNSt3__212basic_stringIcNS_11char_traitsIcEENS_9allocatorIcEEE21__grow_by_and_replaceEjjjjjjPKc
zse:_SortKey_ToString_m2406913228
VI:__ZN22LocalFileSystemHandler9MakeLocalER13FileEntryDatab
K1h:__ZN6il2cpp2vm8Profiler10AllocationEP12Il2CppObjectP11Il2CppClass
Jce:_Convert_ToDateTime_m1020507389
dSh:__ZN13dynamic_arrayIP12Il2CppObjectLj4EE10reallocateEPS1_j
dye:_Path_IsPathRooted_m1347207448
Jtf:_ObjectManager_RegisterObjectInternal_m879109503
uHc:__ZNK5physx15NpActorTemplateINS_7PxClothEE12getAggregateEv
fba:__ZNSt3__26__sortIRNS_4lessIiEEPiEEvT0_S5_T_
oKb:__Z13RegisterClassI15QualitySettingsEvv
c1h:__ZN6il2cpp2vm6String21InitializeEmptyStringEP11Il2CppClass
$Ka:__ZN25DeferredRenderLoopScratchD0Ev
Klg:__ZL90UTF7Encoding_t741406939_CustomAttributesCacheGenerator_UTF7Encoding_GetHashCode_m359766848P21CustomAttributesCache
lPg:__Z52RuntimeInvoker_Decimal_t724701077_Single_t2076509932PK10MethodInfoPvPS2_
L5c:__ZNK5physx2Cm12DelegateTaskINS_13PxsCCDContextEXadL_ZNS2_14postCCDAdvanceEPNS_10PxBaseTaskEEEE7getNameEv
SIa:__ZL13RenderCastersiRK8Vector3fS1_RK13ShadowJobDataR17ShaderPassContextRKNSt3__26vectorI16ShadowCasterData13stl_allocatorIS9_L18MemLabelIdentifier2ELi16EEEERKNS8_I20ShadowCasterPartDataSA_ISG_LSB_2ELi16EEEERK15RenderNodeQueueb
hsg:__ZL62SecurityProtocolType_t155967584_CustomAttributesCacheGeneratorP21CustomAttributesCache
qEa:__ZNSt3__227__insertion_sort_incompleteIRPFbP10GUIElementS2_EPS2_EEbT0_S7_T_
Ljf:_X509BasicConstraintsExtension_get_HasPathLengthConstraint_m3788532759
t0:__ZN22CreateGpuProgramOutputD2Ev
ibh:__ZN21InterfaceFuncInvoker1Ii38CustomAttributeNamedArgument_t94157543E6InvokeEjP11Il2CppClassPvS0_
Agc:__ZNK5physx3Cct15ObstacleContext14getNbObstaclesEv
txb:__Z18Transfer_BlittableI19StreamedBinaryWriteILb0EELb1EsEvRK29SerializationCommandArgumentsR31RuntimeSerializationCommandInfo
uIh:__ZNK15dense_hashtableINSt3__24pairIK10KeyWrapperINS1_IPK10MethodInfoP11Il2CppClassEEEjEES9_17ReflectionMapHashIS8_EN14dense_hash_mapIS9_jSD_19ReflectionMapEqualsIS8_ENS0_9allocatorISB_EEE9SelectKeyESG_SI_E12test_deletedERK24dense_hashtable_iteratorISB_S9_SD_SK_SG_SI_E
SKd:_RSACryptoServiceProvider_EncryptValue_m802714447
mTh:__ZN6il2cpp6icalls8mscorlib6System2IO6MonoIO9SetLengthE12Il2CppIntPtrxPi
jrd:__ZN5physx6shdfnd8PoolBaseINS_11NpAggregateENS0_19ReflectionAllocatorIS2_EEE12allocateSlabEv
aQc:__ZN5physx16NpParticleSystem23setParticleReadDataFlagENS_22PxParticleReadDataFlag4EnumEb
gth:__ZNSt3__26vectorIPK10Il2CppTypeNS_9allocatorIS3_EEE7reserveEj
LOc:__ZN5physx7NpScene26removeFromParticleBaseListERNS_14PxParticleBaseE
Epe:_DateTimeFormatInfo_GetInstance_m3133223810
z1e:_ModulusRing_BarrettReduction_m2802101099
RQg:__Z57RuntimeInvoker_ExtenderType_t1556892101_Int32_t2071877448PK10MethodInfoPvPS2_
aKc:__ZN5physx2Sc9ClothCore23setSelfCollisionIndicesEPKjj
Psa:__ZN12HandlerChain4OpenER13FileEntryData14FilePermission16FileAutoBehavior
xIf:_MonoMethodInfo_GetParametersInfo_m3456861922
Ath:__ZN15dense_hashtableINSt3__24pairIK10KeyWrapperIPK19Il2CppGenericMethodEPK26Il2CppGenericMethodIndicesEES6_N6il2cpp8metadata23Il2CppGenericMethodHashEN14dense_hash_mapIS6_SA_SE_NSD_26Il2CppGenericMethodCompareENS0_9allocatorISB_EEE9SelectKeyESG_SI_E15set_deleted_keyERKSB_
VR:__ZN14FileCacherReadD2Ev
mLd:_RSAPKCS1SignatureDeformatter_VerifySignature_m1825067195
HVb:__Z50Register_UnityEngine_CullingGroup_FinalizerFailurev
D7g:_KeyValuePair_2_ToString_m2613351884_gshared
x6:__ZN27UnloadUnusedAssetsOperationD0Ev
G1a:__ZN6Camera15ThreadedCleanupEv
QF:__ZN9JSONWrite8TransferI8UnityStrEEvRT_PKc17TransferMetaFlags
EHd:__ZN13RuntimeStaticINSt3__26vectorIjNS0_9allocatorIjEEEEE13StaticDestroyEPv
Rbh:_Collection_1_System_Collections_IList_IndexOf_m1667133881_gshared
iTh:__ZN6il2cpp6icalls8mscorlib6System2IO6MonoIO9GetLengthE12Il2CppIntPtrPi
$uf:_ObjectRecord_get_HasPendingFixups_m670959802
vZf:_Dictionary_2_Resize_m2807616086_gshared
j6c:__ZN5physx10PxsCCDPair12updateShapesEv
RLd:_SHA256Managed_HashCore_m4111458495
jpe:_CultureInfo_get_CompareInfo_m3085280862
Zuf:_ObjectManager_RecordDelayedFixup_m1895730844
I_d:_ArrayTypeMismatchException__ctor_m1898555879
Rr:__ZN9AudioClip23VirtualRedirectTransferER18StreamedBinaryReadILb0EE
X7e:_ClientSessionInfo_CheckDisposed_m1394638186
cxf:_SByte_Parse_m2544167007
bya:__ZNSt3__26vectorIPN9ShaderLab9SubShaderENS_9allocatorIS3_EEE21__push_back_slow_pathIKS3_EEvRT_
Ske:_StackFrame_GetILOffset_m115192054
UWa:__ZN24GenerateTypeTreeTransfer8TransferIN11AssetBundle9AssetInfoEEEvRT_PKc17TransferMetaFlags
AKc:__ZN5physx2Sc9ClothCore22removeCollisionCapsuleEj
rwf:_RuntimeTypeHandle_GetHashCode_m3697629454_AdjustorThunk
eKe:_BigInteger__ctor_m2945783161
sfb:__Z14resize_trimmedINSt3__26vectorIh13stl_allocatorIhL18MemLabelIdentifier14ELi16EEEEEvRT_j
rig:__ZL96ProxyAttribute_t4031752430_CustomAttributesCacheGenerator_ProxyAttribute_IsContextOK_m2391079277P21CustomAttributesCache
pte:_IndexOutOfRangeException__ctor_m3497760912
_oc:__ZN5physx16PxsIslandManager25setArticulationLinkHandleEjPvRKNS_20PxsIslandManagerHookIjLj4294967295EEE
tj:_glCopyTexSubImage2D
wrf:_RealProxy_InternalGetTransparentProxy_m3415358600
uNb:__ZNK24RendererAnimationBinding13GetFloatValueERKN11UnityEngine9Animation10BoundCurveE
Wjc:__ZN5physx2Sc10NPhaseCore39pool_deleteParticleElementRbElementPairEPNS0_35ParticleElementRbElementInteractionEjj
Yxi:_glActiveTexture__wrapper
wbh:_Collection_1_Insert_m3594407958_gshared
Kza:_UNITY_png_write_zTXt
OH:__ZN18ScreenManagerWebGL13SetShowCursorEb
N1h:__ZN6il2cpp6icalls8mscorlib6System7Convert24InternalFromBase64StringEP12Il2CppStringb
bxa:__ZZ23InitPlayerLoopCallbacksvEN37EarlyUpdateProcessMouseInWindowstruct7ForwardEv
rbi:_frexp
CAf:_AssemblyCompanyAttribute__ctor_m1217508649
Pyc:__ZN5physx6shdfnd5ArrayIPNS_3Scb5ShapeENS0_15InlineAllocatorILj16ENS0_19ReflectionAllocatorIS4_EEEEE15growAndPushBackERKS4_
Opb:__Z18Transfer_BlittableI14SafeBinaryReadLb0E5RectTIfEEvRK29SerializationCommandArgumentsR31RuntimeSerializationCommandInfo
Aga:__ZN9GfxDevice18InsertCustomMarkerEi
lbi:_fmt_u
Kpe:_DateTimeFormatInfo_GetFormat_m3676195179
Sha:__ZN14GfxContextGLES14GetFramebufferEv
Fvi:_emscripten_glGenVertexArrays__wrapper
KJb:__ZN11GameManager7PRODUCEE18MemLabelIdentifier18ObjectCreationMode
b$g:__Z36RuntimeInvoker_HideFlags_t1434274199PK10MethodInfoPvPS2_
D3:__ZN6prcoreL21CreateRemapAnyBlitterE13TextureFormatS0_
eai:__ZN6il2cpp2os5Event4WaitEjb
iSb:__ZN17AnimationCurveTplIfE16StripInvalidKeysEv
CXe:_Array_InternalArray__ICollection_Add_TisKeyValuePair_2_t3716250094_m2381539361_gshared
xRe:_X509Extension_WriteLine_m2850991173
p9f:__ZL40UIntPtr_t_CustomAttributesCacheGeneratorP21CustomAttributesCache
jFh:_il2cpp_method_has_attribute
zPb:__Z13RegisterClassI17GlobalGameManagerEvv
nWh:__ZNK15dense_hashtableI10KeyWrapperIP18Il2CppGenericClassES3_N6il2cpp8metadata22Il2CppGenericClassHashEN14dense_hash_setIS3_S6_NS5_25Il2CppGenericClassCompareENSt3__29allocatorIS3_EEE8IdentityES8_SB_E3endEv
NUe:_Array_InternalArray__ICollection_Remove_TisInt64_t909078037_m2653583130_gshared
$Cg:_Thread_get_ExecutionContext_m922067206
TD:__ZN11UnityEngine15CloudWebService13WWWRestClient18GetEditableHeadersEv
H7e:_RecordProtocol_get_Context_m2688493529
B1:__ZN4PPtrI7TextureE8TransferI14SafeBinaryReadEEvRT_
Ghd:__ZN5physx2Sc8ClothSim16addCollisionMeshEPKNS0_8ShapeSimE
$Ah:__ZL25UnresolvedVirtualCall_141P12Il2CppObject38CustomAttributeNamedArgument_t94157543PK10MethodInfo
gn:FUNCTION_TABLE_iiiiiiiiiiiiii
Jmd:__ZN5physx6shdfnd5ArrayIPKNS_10PxsCCDBodyENS0_19ReflectionAllocatorIS4_EEE8recreateEj
Tpa:__ZN14DrawBufferGLESI12VertexBuffer27VertexBufferUsageMapperGLESED2Ev
Jyc:__ZN5physx6shdfnd4sortINS_2Cm19PreallocatingRegionENS0_4LessIS3_EENS0_19ReflectionAllocatorIS3_EEEEvPT_jRKT0_RKT1_j
GFd:__ZN19UnityConnectService18OnPlayerQuitStaticEPS_
S4a:__ZN11Tetrahedron8TransferI24GenerateTypeTreeTransferEEvRT_
HVd:_DecoderExceptionFallback_GetHashCode_m2972426052
CPa:__ZN16ReflectionProbes8ScheduleEN18ReflectionProbeJob7JobTypeEP15ReflectionProbei
Rng:__ZL77Convert_t2607082565_CustomAttributesCacheGenerator_Convert_ToSByte_m883113940P21CustomAttributesCache
cLa:__ZN14qsort_internal31_FindAndMovePivotToLastPositionIP16RenderObjectDatai26RenderDeferredObjectSorterEEvT_S4_T0_T1_
jRc:__ZN5physx19NpRigidBodyTemplateINS_14PxRigidDynamicEE20setRigidDynamicFlagsENS_7PxFlagsINS_15PxRigidBodyFlag4EnumEhEE
_Ef:_GenericTypeParameterBuilder_get_DeclaringType_m1652924692
t3a:__ZN5Light23VirtualRedirectTransferER18StreamedBinaryReadILb1EE
Wif:_X509KeyUsageExtension_ToString_m1992050580
g2f:_ConstructionCall__ctor_m1143766850
UPc:__ZN5physx22NpParticleBaseTemplateINS_16PxParticleSystemENS_16NpParticleSystemEE20setMaxMotionDistanceEf
Vtf:_ObjectReader_ReadArrayOfString_m3752210963
$Xa:__ZN5Cache10AddToCacheERKNSt3__212basic_stringIcNS0_11char_traitsIcEENS0_9allocatorIcEEEEi
ZPa:__Z18SkinGenericMathLibILi2ELb1ELb0EEvR12SkinMeshInfo
S9c:__ZN5physx18ComputeSortedListsEPNS_2Cm10BitMapBaseINS_6shdfnd9AllocatorEEEjjPKjPPNS_8SapBox1DES7_PjSB_jRKNS_2Gu4AxesESB_RjSB_SG_RbSH_
mgh:_Camera_INTERNAL_CALL_ScreenPointToRay_m2752248646
cYg:__Z77RuntimeInvoker_TimeSpan_t3430258949_TimeSpan_t3430258949_TimeSpan_t3430258949PK10MethodInfoPvPS2_
Ipa:__ZN13dynamic_arrayIN16GeometryJobTasks15GeometryJobTaskELj4EE18resize_initializedEjRKS1_12ResizePolicy
Uce:_Decimal_stripStyles_m294582157
vda:__ZN9GfxDevice20SetMaxBufferedFramesEi
Jw:__ZN24AudioScriptBufferManagerD2Ev
Qpi:dynCall_vdd
j$b:__ZN8JSONRead21TransferSTLStyleArrayINSt3__26vectorINS1_12basic_stringIcNS1_11char_traitsIcEE13stl_allocatorIcL18MemLabelIdentifier1ELi16EEEES6_IS9_LS7_1ELi16EEEEEEvRT_S7_17TransferMetaFlags
uTa:__Z23ConvertIntegerToTypePtrIsEbPvR14SafeBinaryRead
Ytc:__ZNK5physx14NpArticulation17releaseDriveCacheERNS_24PxArticulationDriveCacheE
M1e:_BigInteger_Incr2_m505983313
Rfh:_PCMReaderCallback_BeginInvoke_m3119095492
q4d:_ArrayList_get_Count_m523955479
P5d:_FixedSizeArrayListWrapper_Remove_m1359458911
L3:__ZN6prcoreL29inner_stretch_rgb565_bilinearEPKNS_9InnerInfoE
bKc:__ZNK5physx2Sc9ClothCore25getSelfCollisionStiffnessEv
qYg:__Z47RuntimeInvoker_SecurityProtocolType_t3099771628PK10MethodInfoPvPS2_
hKa:__ZNK14RenderSettings19GetFlatAmbientColorEv
xPa:__ZN6prcoreL10inner_flipILj4EEEvPhS1_j
Ijb:__ZN18StreamedBinaryReadILb0EE21TransferSTLStyleArrayI10vector_mapIPKN5Unity4TypeE7Hash128NSt3__24lessIS6_EENS8_9allocatorINS8_4pairIS6_S7_EEEEEEEvRT_17TransferMetaFlags
ZTd:_String_Concat_m56707527
Gcf:_SslClientStream_get_HaveRemoteValidation2Callback_m3555576758
geb:__ZN14Texture2DArray17UploadToGfxDeviceEv
Ev:__Z14FMODMemoryFreePvjPKc
aHa:__Z20IsRunningNativeTestsv
qOf:_InternalEnumerator_1_System_Collections_IEnumerator_Reset_m3731327620_AdjustorThunk
Iab:__ZThn28_N8RendererD0Ev
lWh:__ZN15dense_hashtableI10KeyWrapperIP18Il2CppGenericClassES3_N6il2cpp8metadata22Il2CppGenericClassHashEN14dense_hash_setIS3_S6_NS5_25Il2CppGenericClassCompareENSt3__29allocatorIS3_EEE8IdentityES8_SB_E12expand_arrayEjN21dense_hash_map_traits17integral_constantIbLb0EEE
uqh:_YieldInstruction_t3462875981_marshal_pinvoke_cleanup
Voh:_SharedBetweenAnimatorsAttribute__ctor_m1221241062
N$c:__ZN5physx3Scb4Body9syncStateEv
FGd:__ZN13RuntimeStaticI19UnityConnectServiceE16StaticInitializeEPv
Odg:__ZL47File_t1930543328_CustomAttributesCacheGeneratorP21CustomAttributesCache
Khe:_DateTimeOffset__ctor_m1796624924
k5f:_Identity_get_ChannelSink_m3989446673
zcd:__ZN5physx20SingleAABBUpdateTaskD0Ev
lLh:__ZN15dense_hashtableINSt3__24pairIK10KeyWrapperINS1_IPK11Il2CppImageP11Il2CppClassEEEjEES9_17ReflectionMapHashIS8_EN14dense_hash_mapIS9_jSD_19ReflectionMapEqualsIS8_ENS0_9allocatorISB_EEE9SelectKeyESG_SI_EC2EjRKSD_RKSG_RKSK_
gyc:__ZN5physx12PxsRigidBody23updatePoseDependenciesVERNS_10PxsContextE
DUe:_Array_InternalArray__ICollection_Remove_TisKeyValuePair_2_t3716250094_m2566517826_gshared
K2e:_ASN1Convert_ToInt32_m2121135414
ZTf:_InternalEnumerator_1_MoveNext_m1741571735_gshared
nqd:__ZN5physx2Gu12TriangleMesh4loadERNS_13PxInputStreamE
B9f:__ZL82Enum_t2459695545_CustomAttributesCacheGenerator_Enum_GetUnderlyingType_m3513899012P21CustomAttributesCache
m5h:_GC_is_heap_ptr
SQh:__GLOBAL__sub_I_Assembly_cpp
naf:_TlsServerSettings_set_CertificateRequest_m3419519893
f6:__Z21PlayerStartFirstSceneb
NHg:_Type_get_IsGenericParameter_m161434704
CFf:_MethodBuilder_get_Attributes_m3678061338
$l:_emscripten_glIsTexture
v5d:_ArrayListWrapper_CopyTo_m793444109
dog:__ZL79Convert_t2607082565_CustomAttributesCacheGenerator_Convert_ToUInt16_m3265369225P21CustomAttributesCache
Gk:_emscripten_glHint
CP:__ZN6Object15ClassIDToStringEi
bhe:_DateTime_AddMilliseconds_m1813199744_AdjustorThunk
Kwf:_SByte_System_IConvertible_ToSByte_m108774324_AdjustorThunk
GFf:_MethodBuilder_GetParameterCount_m467267889
YGf:_TypeBuilder_IsValueTypeImpl_m1499671481
nmf:_X509ChainStatus_t4278378721_marshal_pinvoke
x4e:_RSAManaged__ctor_m1680944437
cm:_SDL_UpperBlit
qmd:__ZN5physx2Cm12DelegateTaskINS_2Sc5SceneEXadL_ZNS3_13ccdBroadPhaseEPNS_10PxBaseTaskEEEED0Ev
PKa:__Z35GetTextureDecodeValuesWithIntensity16TextureUsageMode17TextureColorSpace10ColorSpacef
w2d:_Byte_GetHashCode_m2885528842_AdjustorThunk
RFc:__ZNK5physx7NpShape16getContactOffsetEv
Nbd:__ZN5physx14PxsAABBManager21processAggregatePairsEPKNS_19AggregateSortedDataE
VAd:_PxCreateCooking
Uhi:__ZNKSt3__28time_getIwNS_19istreambuf_iteratorIwNS_11char_traitsIwEEEEE16do_get_monthnameES4_S4_RNS_8ios_baseERjP2tm
fpb:__ZN14SafeBinaryRead20OverrideRootTypeNameEPKc
yib:__ZN9InputAxis7SetNameERKNSt3__212basic_stringIcNS0_11char_traitsIcEENS0_9allocatorIcEEEE
ZR:__ZN14FileCacherRead16UnlockCacheBlockEj
KKg:_UIntPtr_get_Size_m537421489
AQe:_X509Certificate_GetUnsignedBigInteger_m3491353542
cBc:__ZNK5physx12NpBatchQuery23getFilterShaderDataSizeEv
Jeg:__ZL57StackBehaviour_t1390406961_CustomAttributesCacheGeneratorP21CustomAttributesCache
Cc:_emscripten_glUniform1f
Zyd:__ZN5physx7profile11EventBufferINS_24PxDefaultContextProviderENS_6shdfnd6MutexTINS0_26WrapperReflectionAllocatorIhEEEENS0_14ScopedLockImplIS7_EENS_24PxProfileNullEventFilterEE10doAddEventINS0_17RelativeStopEventEEEvhtRKT_
pdf:_SslStreamBase_get_HashStrength_m480059173
uSf:_InternalEnumerator_1_System_Collections_IEnumerator_Reset_m651165750_AdjustorThunk
_ob:__ZN13MonoBehaviour9CallAwakeEv
rld:__ZN5physx2Sc19ShapeInstancePairLL23postIslandGenSecondPassEv
Qfc:__ZN5physx3Cct26CharacterControllerManager16createControllerERKNS_16PxControllerDescE
tRg:__Z66RuntimeInvoker_Void_t1841601450_Int32_t2071877448_SByte_t454417549PK10MethodInfoPvPS2_
nFb:__ZN9ShaderLab16SerializedTagMapaSERKS0_
IRg:__Z75RuntimeInvoker_Void_t1841601450_Il2CppObject_Int32_t2071877448_Il2CppObjectPK10MethodInfoPvPS2_
dAd:__ZN5physx26PxPhysicsInsertionCallbackD2Ev
a5c:__ZN5physx2Sq16BucketPrunerCore12updateObjectERKNS_9PxBounds3ERKNS0_13PrunerPayloadE
Ekd:__ZN5physx18PxsDynamicsContext23atomIntegrationParallelEfPKPNS_11PxsBodyCoreEPKPNS_12PxsRigidBodyEjPKNS_2Cm13SpatialVectorEPNS_13PxcSolverBodyEPNS_17PxcSolverBodyDataEPSA_RjSI_RNS_10PxBaseTaskE
Dlb:__ZN14SafeBinaryRead21TransferSTLStyleArrayINSt3__26vectorIN30RuntimeInitializeOnLoadManager9ClassInfoE13stl_allocatorIS4_L18MemLabelIdentifier12ELi16EEEEEEvRT_17TransferMetaFlags
VJg:_UInt64_System_IConvertible_ToDateTime_m2412118561
MGh:__ZNK15dense_hashtableINSt3__24pairIK10KeyWrapperINS1_IPK9FieldInfoP11Il2CppClassEEEjEES9_17ReflectionMapHashIS8_EN14dense_hash_mapIS9_jSD_19ReflectionMapEqualsIS8_ENS0_9allocatorISB_EEE9SelectKeyESG_SI_E13find_positionERSA_
tQ:__ZN14MessageHandler3GetEv
HHa:__ZL24AssignProjectorQueuesJobP30AssignProjectorQueuesJobHeader
uda:__ZN9GfxDevice13SetActiveTierE12GraphicsTier
nNe:_KeyPairPersistence_get_UserPath_m3433052783
fec:__ZN5physx2Gu19GetRaycastFuncTableEv
EPh:__ZNK15dense_hashtableINSt3__24pairIK10KeyWrapperIP11Il2CppClassES4_EES5_N6il2cpp8metadata16SZArrayClassHashEN14dense_hash_mapIS5_S4_SA_NS9_19SZArrayClassCompareENS0_9allocatorIS7_EEE9SelectKeyESC_SE_E10test_emptyEj
P8f:__ZL58Decimal_t724701077_CustomAttributesCacheGenerator_MinusOneP21CustomAttributesCache
ZVe:_Array_InternalArray__IEnumerable_GetEnumerator_TisKeyframe_t1449471340_m3949799719_gshared
Ppb:__Z18Transfer_BlittableI14SafeBinaryReadLb0E11QuaternionfEvRK29SerializationCommandArgumentsR31RuntimeSerializationCommandInfo
eG:__ZNK13EmscriptenWWW6GetUrlEv
jld:__ZN5physx17EdgeChangeManager23cleanupBrokenEdgeEventsEPKNS_4EdgeE
myc:__ZN5physx17PxsContactManager16resetCachedStateEv
cH:_tlsf_walk_heap
ZPe:_PKCS12_Decode_m731190390
nCh:__ZN6il2cpp2vm7Runtime6InvokeEPK10MethodInfoPvPS5_PP15Il2CppException
CTf:_InternalEnumerator_1_get_Current_m1550231132_gshared
cAg:_Reference_get_IgnoreCase_m2810892634
db:invoke_vif
lfb:__ZN14VertexDataInfo13UpdateStreamsEjjjRK19VertexStreamsLayoutRK20VertexChannelsLayout
eb:invoke_vid
z7g:_KeyValuePair_2_set_Key_m744486900_AdjustorThunk
fb:invoke_vii
Zsg:__ZL86Component_t3819376471_CustomAttributesCacheGenerator_Component_SendMessage_m3615678587P21CustomAttributesCache
d_c:__ZN5physx13NpVolumeCacheD2Ev
fVa:__ZN12TLSAllocatorI14StackAllocatorE16ThreadInitializeEP13BaseAllocator
T4d:_ArrayList_Sort_m2778059513
bwh:__ZN15dense_hashtableINSt3__24pairIK10KeyWrapperI13dynamic_arrayIPK10Il2CppTypeLj4EEEPFvvEEES8_N6il2cpp8metadata19Il2CppSignatureHashEN14dense_hash_mapIS8_SB_SF_NSE_22Il2CppSignatureCompareENS0_9allocatorISC_EEE9SelectKeyESH_SJ_E5clearEv
Lvg:__ZL107StackTraceUtility_t1881293839_CustomAttributesCacheGenerator_StackTraceUtility_SetProjectFolder_m2154926761P21CustomAttributesCache
eid:__ZThn8_N5physx2Sc35ParticleElementRbElementInteraction12onDeactivateEj
n3e:_MD2_Create_m539024737
O9d:_SortedList_get_SyncRoot_m3299704254
X7c:__ZN5physx16PxsThreadContextC2EPNS_10PxsContextE
oae:_Slot_t2267560602_marshal_pinvoke
BWg:__Z51RuntimeInvoker_UInt16_t986882611_Single_t2076509932PK10MethodInfoPvPS2_
Vpf:_SoapAttribute_get_XmlNamespace_m1436066016
fva:__ZN25SingleBlockMemoryFileDataD0Ev
IWa:__ZNSt3__26vectorI14ConstantStringNS_9allocatorIS1_EEE6assignINS_11__wrap_iterIPS1_EEEENS_9enable_ifIXaasr21__is_forward_iteratorIT_EE5valuesr16is_constructibleIS1_NS_15iterator_traitsISA_E9referenceEEE5valueEvE4typeESA_SA_
y4b:__ZN5physx3Cct10Controller4moveERNS0_11SweptVolumeERKNS_6PxVec3EffRKNS_19PxControllerFiltersEPKNS_17PxObstacleContextEb
wRc:__ZN5physx14NpRigidDynamic17setAngularDampingEf
Psb:__ZNSt3__26vectorI8GUIStyle13stl_allocatorIS1_L18MemLabelIdentifier1ELi16EEE7reserveEj
wph:_Transform_RotateAroundInternal_m2303097692
OQh:__ZN6il2cpp6icalls8mscorlib6System9Threading6Thread27GetSerializedCurrentCultureEP12Il2CppThread
hXe:_Array_InternalArray__IndexOf_TisUInt32_t2149682021_m3231515987_gshared
hKb:__Z13RegisterClassI11TimeManagerEvv
uv:__ZN4FMOD8ChannelI11setPositionEjj
SC:__ZN11UnityEngine15CloudWebService16SessionContainer27GetDeleteErrorJsonDataBlockERK8UnityStrS4_RS2_
Hhh:_Component_SendMessage_m913946877
h3h:_GC_set_fl_marks
Gqc:__ZN5physx6shdfnd8PoolBaseINS_2Sc12SimStateDataENS0_19ReflectionAllocatorIS3_EEE17releaseEmptySlabsEv
DV:__ZN17BaseObjectManager13StaticDestroyEPv
Mvg:__ZL108StackTraceUtility_t1881293839_CustomAttributesCacheGenerator_StackTraceUtility_ExtractStackTrace_m1593581205P21CustomAttributesCache
SPb:__ZN18PlayableController18DoesPlayableExistsEPK8Playable
lie:_DBNull_System_IConvertible_ToChar_m3344298044
n8b:__ZN5physx2Gu22closestPtPointTriangleEPNS_6shdfnd3aos5Vec3VES4_S4_Rj
mRe:_X509Certificate_GetObjectData_m3888130484
$kb:__ZNSt3__26vectorIN15ResourceManager10DependencyE13stl_allocatorIS2_L18MemLabelIdentifier51ELi16EEEC2INS_11__wrap_iterIPS2_EEEET_SB_RKS5_PNS_9enable_ifIXaasr21__is_forward_iteratorISB_EE5valuesr16is_constructibleIS2_NS_15iterator_traitsISB_E9referenceEEE5valueEvE4typeE
BAc:__ZN5physx2Cm8PtrTableC2Ev
mpf:_LinkStack_Push_m2660199875
ou:__ZN4FMOD6Reverb13setPropertiesEPK22FMOD_REVERB_PROPERTIES
pMc:__ZNK5physx22NpParticleBaseTemplateINS_15PxParticleFluidENS_15NpParticleFluidEE14getRestitutionEv
vGa:__ZN9DepthPass13PrepareSubsetEjRK10RenderNodeifRK17ShaderReplaceData
fbd:__ZN5physx16PxsBroadPhaseMBP6updateEjjRKNS_23PxcBroadPhaseUpdateDataEPNS_10PxBaseTaskE
qEc:__ZN5physx9NpPhysics18createRigidDynamicERKNS_11PxTransformE
vlc:__ZN5physx6shdfnd5ArrayIPvNS0_19ReflectionAllocatorINS_2Sc18TriggerInteractionEEEE15growAndPushBackERKS2_
C4g:_X509CertificateCollection_Add_m4008705157
t7f:_MonoMethodMessage_set_Uri_m3218581120
qSb:__Z18ExtractTagThrowingR11ICallString
p2:__ZN4PPtrI6ShaderE8TransferI19StreamedBinaryWriteILb0EEEEvRT_
ixa:__ZZ23InitPlayerLoopCallbacksvEN40EarlyUpdatePlayerCleanupCachedDatastruct7ForwardEv
Hbc:__ZN5physx2Gu17intersectRayAABB2ERKNS_6shdfnd3aos5Vec3VES5_S5_S5_RKNS2_6FloatVERS6_S9_
yFc:__ZNK5physx7NpShape17getSphereGeometryERNS_16PxSphereGeometryE
Jdc:__ZL18intersectAnyVsMeshILi1EEbPKN5physx2Gu6SphereEPKNS1_7CapsuleEPKNS1_3BoxERKNS1_13RTreeMidphaseERKNS0_11PxTransformERKNS0_11PxMeshScaleEP14LimitedResults
Glb:__Z14resize_trimmedINSt3__26vectorIi13stl_allocatorIiL18MemLabelIdentifier12ELi16EEEEEvRT_j
Ooc:__ZN5physx6shdfnd5ArrayIPvNS0_15InlineAllocatorILj256ENS0_19ReflectionAllocatorINS_2Cm5BlockIhLj128EEEEEEEE15growAndPushBackERKS2_
U5d:_ReadOnlyArrayListWrapper_set_Item_m2199017141
mNa:__ZN6Camera6SetFarEf
x4g:_DeriveBytes_DeriveIV_m3343375195
ONd:_X509Certificate_ToString_m1582581274
jKd:_RNGCryptoServiceProvider_GetBytes_m167497991
q4:__ZN6prcoreL12RemapGenericI17TexFormatABGR888817TexFormatARGB8888EEvPKNS_9InnerInfoE
C_a:__ZN11GameManager17MainThreadCleanupEv
lDh:__ZN6il2cpp6icalls8mscorlib6System18CollectTypeMethodsINS_5utils10functional6FilterINSt3__212basic_stringIcNS7_11char_traitsIcEENS7_9allocatorIcEEEENS4_11StringUtils23CaseInsensitiveComparerEEEEEvP11Il2CppClassPKSH_jRKT_RNS7_6vectorIPK10MethodInfoNSB_ISR_EEEERA65535_b
aDf:_TypeBuilder_get_Assembly_m492491492
O5e:_CipherSuite_set_Context_m4127897124
PF:__ZN11UnityEngine15CloudWebService17CloudServiceEvent12ToJsonStringER8UnityStrjPKc
aIc:__ZNK5physx7NpCloth24getParticleAccelerationsEPNS_6PxVec4E
Kzf:_HMACSHA512__cctor_m1167457383
j1b:__ZL22Transfer_ManagedObjectI9JSONWriteLb1EEvRK29SerializationCommandArgumentsR31RuntimeSerializationCommandInfo
Oea:__ZN9GfxDevice20DestroyRenderSurfaceER12ObjectHandleI17RenderSurface_TagP17RenderSurfaceBaseE
gsa:__ZN9GfxDevice22UpdateComputeResourcesEjPK9TextureIDPK16TextureDimensionPKijPKjjPK15ComputeBufferIDS7_PK20ComputeBufferCounterjSC_S2_S5_S9_SF_
gVa:__ZN12TLSAllocatorI14StackAllocatorE13ThreadCleanupEv
Rz:__Z18GetAudioManagerPtrv
Khi:__ZNKSt3__28time_getIcNS_19istreambuf_iteratorIcNS_11char_traitsIcEEEEE10__get_yearERiRS4_S4_RjRKNS_5ctypeIcEE
sZg:__Z67RuntimeInvoker_Void_t1841601450_Int16_t4041245914_Int16_t4041245914PK10MethodInfoPvPS2_
ifb:__ZN4Mesh27SwizzleVertexColorsIfNeededEb
hWa:__Z27FindActiveTransformWithPathPKc
HRg:__Z63RuntimeInvoker_DSAParameters_t1872138834_BooleanU26_t3168250738PK10MethodInfoPvPS2_
RVc:__ZN5physx16PxsIslandManager14setEdgeRigidCMERKNS_20PxsIslandManagerHookIjLj4294967295EEEPNS_17PxsContactManagerE
s0a:__ZN12BaseRendererD0Ev
lTa:__Z29StdTemplateConversionFunctionIbyEbPvR14SafeBinaryRead
YXg:__Z56RuntimeInvoker_TimeSpan_t3430258949_TimeSpan_t3430258949PK10MethodInfoPvPS2_
Jtc:__ZN5physx14NpArticulation25setStabilizationThresholdEf
Qya:_UNITY_png_write_info
Gpd:__ZN5physx2Gu11HeightField7releaseEv
lGb:__ZN24GenerateTypeTreeTransfer21TransferSTLStyleArrayINSt3__26vectorIN9ShaderLab20SerializedSubProgram14ConstantBufferENS1_9allocatorIS5_EEEEEEvRT_17TransferMetaFlags
gCa:__ZNK6Camera7GetNearEv
pja:__ZN7ApiGLES11UnmapBufferEjN2gl12BufferTargetE
GYh:__ZN6il2cpp5utilsL24Utf32CharToSurrogatePairEjRA2_Ds
U7a:__Z25GetNextAllowedTextureSizeib13TextureFormat
SI:__ZN20LocalFileSystemWebGL4CopyER13FileEntryDataS1_
eFf:_GenericTypeParameterBuilder_get_ContainsGenericParameters_m1449092549
FE:__ZN19CloudServiceHandler6RetainEv
y9h:__ZN6il2cpp2os9Semaphore4WaitEb
YPd:_StrongName_Equals_m67226644
A0a:__ZN12BaseRenderer20FlattenToRenderQueueER15RenderNodeQueueRK20DeprecatedSourceData
eEf:_FieldBuilder_get_Attributes_m2174064290
Hhd:__ZN5physx2Sc8ClothSim23addCollisionHeightfieldEPKNS0_8ShapeSimE
Yib:__ZN11TimeManager23VirtualRedirectTransferER18StreamedBinaryReadILb1EE
$6:__Z34scripting_liveness_calculation_endPv
G$h:__ZN6il2cpp2os6ThreadC2Ev
MQd:_SecurityFrame_InitFromRuntimeFrame_m45195821
heg:__ZL53TextReader_t1561828458_CustomAttributesCacheGeneratorP21CustomAttributesCache
_kf:_X509Chain_IsSignedWith_m292245392
IUe:_Array_InternalArray__ICollection_Remove_TisDateTime_t693205669_m1275668216_gshared
aPb:__ZZN6Camera15InitializeClassEvEN31FunctorImpl_99kTransformChanged4CallEPviR11MessageData
dZb:__Z18Transfer_BlittableI8JSONReadLb0E8Vector3fEvRK29SerializationCommandArgumentsR31RuntimeSerializationCommandInfo
B2f:_ChannelServices__cctor_m3534779830
VMh:__ZN6il2cpp2vm6Thread6DetachEP12Il2CppThread
Mde:_Convert_ToInt16_m416789348
nxc:__ZNK5physx18NpArticulationLink13isSubordinateEv
zzh:__ZL24UnresolvedVirtualCall_59P12Il2CppObjectS0_aPK10MethodInfo
tEh:_il2cpp_class_get_name
nbh:_Collection_1_System_Collections_IList_set_Item_m3488446830_gshared
AZh:__ZN6il2cpp2os10ThreadImpl5SleepEjb
tad:__ZN5physx14SapPairManager12shrinkMemoryEv
W6g:_X509ExtensionCollection_System_Collections_IEnumerable_GetEnumerator_m2600902401
cnb:__ZN15FileSystemEntry4MoveERS_23FileSystemCopyMoveFlags
ZZf:_Dictionary_2_System_Collections_Generic_IEnumerableU3CSystem_Collections_Generic_KeyValuePairU3CTKeyU2CTValueU3EU3E_GetEnumerator_m3968773920_gshared
evi:_glBindSampler__wrapper
Bf:_emscripten_set_mouseup_callback
FDb:__Z14resize_trimmedINSt3__26vectorIN9ShaderLab14SerializedPassENS0_9allocatorIS3_EEEEEvRT_j
Vra:__ZN9GfxDevice27SetRandomWriteTargetTextureEi9TextureID
iWg:__Z48RuntimeInvoker_Int64_t909078037_SByte_t454417549PK10MethodInfoPvPS2_
DYc:__ZN5physx7NpScene22removeBroadPhaseRegionEj
Olc:__ZL34GeomOverlapCallback_CapsuleCapsuleRKN5physx10PxGeometryERKNS_11PxTransformES2_S5_PNS_2Gu12TriggerCacheE
ZH:__ZNK18ScreenManagerWebGL8GetWidthEv
LXc:__ZNK5physx7NpScene23getFilterShaderDataSizeEv
Zpi:dynCall_iiifii
dyh:__ZN6il2cpp2vm13MetadataCache33GetFieldDefaultValueDataFromIndexEi
vr:__ZN10SampleClipD2Ev
h5f:_SynchronizationAttribute_EnterContext_m2984912761
M9f:__ZL73Enum_t2459695545_CustomAttributesCacheGenerator_Enum_ToObject_m2601523252P21CustomAttributesCache
vpe:_CultureInfo_construct_internal_locale_from_name_m971766383
J5f:__ZN16VirtFuncInvoker0IP21WaitHandle_t677569169E6InvokeEjPv
zZh:__ZN6il2cpp2os10ThreadImpl13SetWaitObjectEPNS0_5posix15PosixWaitObjectE
y2d:_Byte_Equals_m368616327_AdjustorThunk
Gme:_Enum_ToObject_m2460371738
bLe:_PrimalityTests_Test_m1088386156
aS:__ZN14FileCacherRead13GetFileLengthEv
Tci:_readlink
TPf:_InternalEnumerator_1_System_Collections_IEnumerator_get_Current_m4259662004_AdjustorThunk
g0e:_Array_InternalArray__get_Item_TisKeyframe_t1449471340_m1003508933_gshared
TPe:_StrongName_get_PublicKeyToken_m1968460885
Qcb:__ZNK6Sprite9GetBoundsE8Vector2fbb
v$g:__Z87RuntimeInvoker_Boolean_t3825574718_Ray_t2469606224_Single_t2076509932_Int32_t2071877448PK10MethodInfoPvPS2_
Uha:__ZN11ContextGLES6CreateEi
hdc:__ZN5physx6shdfnd5ArrayINS_10PxTriangleENS0_19ReflectionAllocatorIS2_EEE15growAndPushBackERKS2_
mxe:_BinaryReader_Dispose_m4249456877
M6g:_X509CrlEntry_get_Extensions_m1330698752
Rce:_Double_ToString_m1085043609
Dzb:__Z19TransferField_ArrayI18StreamedBinaryReadILb0EE27Converter_SimpleNativeClassI17AnimationCurveTplIfEEEvRK23StaticTransferFieldInfoR31RuntimeSerializationCommandInfoRT0_
S5e:_CipherSuite_createEncryptionCipher_m1926075645
TUa:__ZN14StackAllocator16FrameMaintenanceEb
z8b:__ZL11SweepBoxBoxPKN5physx3Cct9SweepTestEPKNS0_11SweptVolumeEPKNS0_11TouchedGeomERKNS_14PxExtendedVec3ERKNS_6PxVec3ERNS0_12SweptContactE
ivh:__ZNK15dense_hashtableI10KeyWrapperIPK19Il2CppGenericMethodES4_N6il2cpp8metadata23Il2CppGenericMethodHashEN14dense_hash_setIS4_S7_NS6_26Il2CppGenericMethodCompareENSt3__29allocatorIS4_EEE8IdentityES9_SC_E5beginEv
IM:__ZNK10GameObject20QueryComponentByTypeEPKN5Unity4TypeE
vGf:_OpCode_GetHashCode_m2974727122
K2a:__ZN16GraphicsSettings8TransferI18StreamedBinaryReadILb1EEEEvRT_
T5e:_CipherSuite_createDecryptionCipher_m1118350455
Cxg:_PatternCompiler_EmitReference_m1381860071
zle:_Double_System_IConvertible_ToInt16_m4200640326
gFf:_GenericTypeParameterBuilder_get_IsGenericType_m1883522222
eO:__ZL30InitializeCoreScriptingClassesv
Q6f:_MethodCall_Init_m3987198685
xg:_glBlitFramebuffer
ewa:__ZN17ArchiveFileSystem5TouchER13FileEntryData
I1c:__ZNK5physx2Sc5Scene17prefetchForRemoveERKNS0_10StaticCoreE
xaf:_SecurityParameters_set_Cipher_m3888132335
jLe:_BigInteger_GeneratePseudoPrime_m2606361440
hre:_DateTimeFormatInfo_get_ShortTimePattern_m20923983
pqb:__Z35Transfer_Blittable_SingleValueFieldI14SafeBinaryReadhEvRT_R17GeneralMonoObjectRK23StaticTransferFieldInfo
I2g:__Z57RuntimeInvoker_ContactPoint_t1376425630_Int32_t2071877448PK10MethodInfoPvPS2_
eMc:__ZN5physx22NpParticleBaseTemplateINS_15PxParticleFluidENS_15NpParticleFluidEE13setVelocitiesEjRKNS_16PxStrideIteratorIKjEERKNS4_IKNS_6PxVec3EEE
jSg:__Z129RuntimeInvoker_Int32_t2071877448_Il2CppObject_Int32_t2071877448_Int32_t2071877448_Il2CppObject_Int32_t2071877448_SByte_t454417549PK10MethodInfoPvPS2_
FOe:_EncryptedPrivateKeyInfo_get_Algorithm_m2779196942
Qpf:_RemotingServices_GetRealProxy_m620317996
OLa:__ZN13dynamic_arrayI11CulledLightLj4EE6insertEPS0_PKS0_S4_
UNf:_ArrayReadOnlyList_1_RemoveAt_m2270349795_gshared
A$a:__ZN10TagManager23VirtualRedirectTransferER18StreamedBinaryReadILb1EE
Y4a:__ZN11Tetrahedron8TransferI18StreamedBinaryReadILb0EEEEvRT_
Cn:FUNCTION_TABLE_vif
Dn:FUNCTION_TABLE_vid
En:FUNCTION_TABLE_vii
Hya:_UNITY_png_create_write_struct
NAh:__ZL25UnresolvedVirtualCall_127P12Il2CppObject19DateTime_t693205669S1_PK10MethodInfo
hRg:__Z149RuntimeInvoker_Boolean_t3825574718_Int32_t2071877448_Il2CppObject_Int32_t2071877448_Int32_t2071877448_Il2CppObject_Int32_t2071877448_SByte_t454417549PK10MethodInfoPvPS2_
B$:__ZN7Texture23VirtualRedirectTransferER24GenerateTypeTreeTransfer
kNb:__ZNK32RendererMaterialAnimationBinding12SetPPtrValueERKN11UnityEngine9Animation10BoundCurveEi
LWh:__ZN6il2cpp8metadata15GenericMetadata20RegisterGenericClassEP18Il2CppGenericClass
Lui:_glDeleteFramebuffers__wrapper
m1e:_BigInteger_ModInverse_m1881894572
lCh:__ZN6il2cpp2vm7Runtime17GetDelegateInvokeEP11Il2CppClass
HQc:__ZNK5physx15NpActorTemplateINS_14PxRigidDynamicEE14getOwnerClientEv
l9a:__ZN28EnlightenRendererInformation8TransferI14SafeBinaryReadEEvRT_
jLa:__ZN14qsort_internal6_QSortIP16RenderObjectDatai25RenderPrePassObjectSorterEEvT_S4_T0_T1_
jgg:__ZL69DefaultDependencyAttribute_t3858269114_CustomAttributesCacheGeneratorP21CustomAttributesCache
fBc:__ZN5physx12NpBatchQuery13getUserMemoryEv
Kta:__ZNK15Lz4Decompressor16DecompressMemoryEPKvPjPvS2_
SZ:__ZN29SerializeTraitsForStringTypesINSt3__212basic_stringIcNS0_11char_traitsIcEE13stl_allocatorIcL18MemLabelIdentifier1ELi16EEEEE19ResizeSTLStyleArrayERS7_iS5_
Kmh:_Ray_ToString_m2019179238
z2:__Z35UnityPropertySheet_MakeSortedColorsRKNSt3__23mapIN9ShaderLab16FastPropertyNameE10ColorRGBAfNS_4lessIS2_EENS_9allocatorINS_4pairIKS2_S3_EEEEEER10vector_mapIS2_S3_S5_NS6_INS7_IS2_S3_EEEEE
Mie:_Decimal_System_IConvertible_ToType_m3828527724_AdjustorThunk
Afd:__ZN5physx2GuL34fullContactsGenerationSphereConvexERKNS0_8CapsuleVERKNS0_11ConvexHullVERKNS_6shdfnd3aos12PsTransformVESB_PNS0_17PersistentContactERjRNS0_13ContactBufferEbRNS0_25PersistentContactManifoldERNS8_5Vec3VERKNS8_6FloatVEb
kRc:__ZN5physx19NpRigidBodyTemplateINS_14PxRigidDynamicEE16setRigidBodyFlagENS_15PxRigidBodyFlag4EnumEb
f3e:_HMAC_get_Key_m2528863640
Coc:__ZN5physx6shdfnd8PoolBaseINS_2Sc19ConstraintGroupNodeENS0_19ReflectionAllocatorIS3_EEE17releaseEmptySlabsEv
Dsb:__Z29Transfer_Blittable_ArrayFieldI14SafeBinaryRead8Vector4fEvRT_R9ArrayInfoRK23StaticTransferFieldInfo
k3f:_ConfigHandler_CheckPath_m2296459741
IZh:__GLOBAL__sub_I_RCW_cpp
z4b:__ZN5physx3Cct8SweptBoxD2Ev
wsi:_glClientWaitSync__wrapper
X5c:__ZN5physx2Cm12DelegateTaskINS_13PxsCCDContextEXadL_ZNS2_12postCCDSweepEPNS_10PxBaseTaskEEEED0Ev
Yie:_Decimal_System_IConvertible_ToInt16_m3159038792
Xmc:__ZN5physx3Scb5Scene20addArticulationJointERNS0_17ArticulationJointE
Lgc:__ZN5physx3Cct9SweepTest15onObstacleAddedEjPKNS_17PxObstacleContextERKNS_6PxVec3ES7_f
mmc:__ZN5physx2Gu10SupportMapD2Ev
H9a:__ZN4PPtrI11LightProbesE8TransferI18StreamedBinaryReadILb0EEEEvRT_
c1f:_ComVisibleAttribute__ctor_m1789587486
vwc:__ZNK5physx15NpActorTemplateINS_18PxArticulationLinkEE22getClientBehaviorFlagsEv
IJf:_MonoMethodInfo_GetReturnType_m2864247130
Mh:_JS_WebRequest_Release
Aye:_DirectoryNotFoundException__ctor_m2242202556
wwc:__ZNK5physx15NpActorTemplateINS_18PxArticulationLinkEE12getAggregateEv
tRa:__ZNSt3__26__treeINS_12__value_typeINS_12basic_stringIcNS_11char_traitsIcEENS_9allocatorIcEEEE17MessageIdentifierEENS_19__map_value_compareIS7_S9_NS_4lessIS7_EELb1EEENS5_IS9_EEE7destroyEPNS_11__tree_nodeIS9_PvEE
LUd:_String_CreateString_m2448464375
Dmf:_X509SubjectKeyIdentifierExtension__ctor_m2959112706
uHf:_FieldInfo_get_IsNotSerialized_m2322769148
mYc:__ZNK5physx7NpScene18getStaticStructureEv
opg:__ZL68Math_t2022911894_CustomAttributesCacheGenerator_Math_Max_m2671311541P21CustomAttributesCache
_5c:__ZN5physx13PxsCCDContext12postCCDSweepEPNS_10PxBaseTaskE
JWh:__ZN6il2cpp8metadata15GenericMetadata7InflateEPK19Il2CppGenericMethodPK20Il2CppGenericContext
BJf:_MonoGenericCMethod_get_ReflectedType_m2689239043
YJa:__ZN22PerThreadPageAllocatorC2Ev
Aud:__ZN5physx6shdfnd10Foundation19AlignCheckAllocator28deregisterAllocationListenerERNS_20PxAllocationListenerE
Xvc:__ZN5physx2Sc21ArticulationJointCore12setChildPoseERKNS_11PxTransformE
GSf:_InternalEnumerator_1_get_Current_m4083613828_gshared
mLh:__ZN13Il2CppHashMapINSt3__24pairIPK9EventInfoP11Il2CppClassEEj17ReflectionMapHashIS7_E19ReflectionMapEqualsIS7_ENS0_9allocatorINS1_IK10KeyWrapperIS7_EjEEEEEC2EjRKS9_RKSB_
ZXd:_UnicodeEncoding_GetString_m542738941
$xe:_Path_InsecureGetFullPath_m2635272425
Fae:_Enumerator_Clone_m1124749523
Ige:_DateTime_System_IConvertible_ToUInt32_m1363211018
m8c:__ZN5physx33solveContactCoulombBlockWriteBackEPKNS_23PxcSolverConstraintDescEjRNS_16PxcSolverContextEPNS_25PxcThresholdStreamElementEjPi
Yvf:_RuntimeMethodHandle__ctor_m1162528746
$fd:__ZN5physx9PxTaskMgr17submitUnnamedTaskERNS_6PxTaskENS_10PxTaskType4EnumE
syf:_DSA__ctor_m613430209
lka:__ZN7Texture21GetMasterTextureLimitEv
TLh:__ZN6il2cpp2vm10Reflection12HasAttributeEP12Il2CppObjectP11Il2CppClass
dAa:_UNITY_png_write_sRGB
x$b:__ZN8JSONRead21TransferSTLStyleArrayI13dynamic_arrayI4AABBLj4EEEEvRT_18MemLabelIdentifier17TransferMetaFlags
WM:__ZN9ShaderLabL25StaticInitializeShaderLabEPv
r_f:_Dictionary_2_ContainsKeyValuePair_m3818021458_gshared
T3c:__ZNK5physx2Sq12BucketPruner5sweepERKNS0_9ShapeDataERKNS_6PxVec3ERfRNS0_14PrunerCallbackE
T:Math_max
eAh:__ZL24UnresolvedVirtualCall_92P12Il2CppObjectPK10MethodInfo
sEh:_il2cpp_class_get_methods
cye:_Path_CanonicalizePath_m383914732
Z4d:_ArrayList_Synchronized_m2395071980
M$h:__ZN6il2cpp2os6Thread16GetCurrentThreadEv
ZAd:__ZN5physx6shdfnd8internal8HashBaseINS0_4PairIKPKNS0_14NamedAllocatorEPKcEES6_NS0_4HashIS6_EENS1_11HashMapBaseIS6_S9_SC_NS0_20NonTrackingAllocatorEE6GetKeyESE_Lb1EE15reserveInternalEj
LDe:_UnexceptionalStreamWriter_Write_m3206913035
VJb:__Z13RegisterClassI10MeshFilterEvv
l0a:__ZN10TagManager8TransferI19StreamedBinaryWriteILb0EEEEvRT_
dCb:__ZN11PreloadData23VirtualRedirectTransferER18StreamedBinaryReadILb0EE
qyf:_DESTransform_ProcessBlock_m2826669227
$Yg:__Z115RuntimeInvoker_Void_t1841601450_Il2CppObject_Int32_t2071877448_Int32_t2071877448_SByte_t454417549_Int32_t2071877448PK10MethodInfoPvPS2_
Wte:_Int16_CompareTo_m3493496879
Otg:__ZL56RenderTexture_t2666733923_CustomAttributesCacheGeneratorP21CustomAttributesCache
hdb:__ZN6Sprite17MainThreadCleanupEv
hrg:__ZL56OidCollection_t3790243618_CustomAttributesCacheGeneratorP21CustomAttributesCache
Bkg:__ZL61SignatureDescription_t89145500_CustomAttributesCacheGeneratorP21CustomAttributesCache
Mw:__ZN10AudioMixer14UpdateMuteSoloEv
Rrb:__ZNSt3__26vectorINS_12basic_stringIcNS_11char_traitsIcEE13stl_allocatorIcL18MemLabelIdentifier1ELi16EEEES4_IS7_LS5_1ELi16EEE6assignINS_11__wrap_iterIPS7_EEEENS_9enable_ifIXaasr21__is_forward_iteratorIT_EE5valuesr16is_constructibleIS7_NS_15iterator_traitsISF_E9referenceEEE5valueEvE4typeESF_SF_
GAa:__Z17GetMonoManagerPtrv
thh:_Component_GetComponents_m637589504
KDc:__ZN5physx6shdfnd5ArrayINS_3Scb13MaterialEventENS0_19ReflectionAllocatorIS3_EEE15growAndPushBackERKS3_
nah:_Stack_1_System_Collections_ICollection_get_SyncRoot_m3151629354_gshared
n0:__ZN9ShaderLab10SubProgram7CompileEv
wja:__ZN7ApiGLES16SetPatchVerticesEi
Ffa:__ZN9GfxDevice12PresentFrameEPK14ChannelAssigns
rqc:__ZN5physx2Sc5Scene11onBodySleepEPNS0_7BodySimE
Yo:__ZN6Object12SetHideFlagsEi
vua:__ZN10MemoryFileC2E18MemLabelIdentifierP14MemoryFileData14FilePermission
Yqf:_TrackingServices_NotifyUnmarshaledObject_m1794048369
Crh:__ZN6il2cpp2vm5Class20FromGenericParameterEPK22Il2CppGenericParameter
Jig:__ZL59RemotingServices_t2399536837_CustomAttributesCacheGeneratorP21CustomAttributesCache
h5b:__ZL28GeomMTDCallback_PlaneCapsuleRN5physx6PxVec3ERfRKNS_10PxGeometryERKNS_11PxTransformES5_S8_
bV:__ZN15GlobalCallbacksC2Ev
yWa:__ZN11AssetBundle8TransferI14SafeBinaryReadEEvRT_
l_e:_Array_InternalArray__set_Item_TisLabelFixup_t4090909514_m565370771_gshared
kDc:__ZNK5physx10NpMaterial18getDynamicFrictionEv
Xrg:__ZL74X509Crl_t1699034837_CustomAttributesCacheGenerator_U3CU3Ef__switchU24map13P21CustomAttributesCache
ivf:_SerializationEntry__ctor_m1619256036_AdjustorThunk
wxa:__ZZ23InitPlayerLoopCallbacksvEN43PostLateUpdatePlayerSendFrameCompletestruct7ForwardEv
PPd:__Z15CastclassSealedP12Il2CppObjectP11Il2CppClass
Jwe:_IntPtr_System_Runtime_Serialization_ISerializable_GetObjectData_m21554269_AdjustorThunk
fEc:__ZN5physx9NpPhysics16createConvexMeshERNS_13PxInputStreamE
jub:__Z18Transfer_BlittableI17RemapPPtrTransferLb1EhEvRK29SerializationCommandArgumentsR31RuntimeSerializationCommandInfo
q1h:__ZNSt3__26vectorIjNS_9allocatorIjEEE26__swap_out_circular_bufferERNS_14__split_bufferIjRS2_EE
AMa:__ZN16ReflectionProbes40UpdateRealtimeReflectionProbesTimeslicedEv
kVh:__ZNSt3__26__treeINS_12__value_typeIP24Il2CppReflectionAssemblyPvEENS_19__map_value_compareIS3_S5_NS_4lessIS3_EELb1EEENS_9allocatorIS5_EEE16__insert_node_atEPNS_16__tree_node_baseIS4_EERSF_SF_
__:__ZN13RenderManager16SetCurrentCameraEP6Camera
EFf:_MethodBuilder_GetBaseDefinition_m774166361
Epc:__ZN5physx2Sq17SceneQueryManager8addShapeERKNS_7NpShapeERKNS_12PxRigidActorEbPNS_9PxBounds3E
OFb:__ZN18StreamedBinaryReadILb1EE21TransferSTLStyleArrayI13dynamic_arrayIN9ShaderLab21SerializedBindChannelELj4EEEEvRT_17TransferMetaFlags
N6h:__ZN6il2cpp5utils5MatchENSt3__212basic_stringIcNS1_11char_traitsIcEENS1_9allocatorIcEEEEjRKS7_j
exg:_MRUList_Evict_m2430323183
jUh:__ZN6il2cpp2vm5Image9GetCorlibEv
xcb:__ZN2UI13RectTransform8TransferI18StreamedBinaryReadILb1EEEEvRT_
yDe:_NullTextWriter_Write_m2306984725
PWh:__ZN6il2cpp2vm11MethodStack17GetStackFramesRawEv
gbf:_RecordProtocol_ProcessChangeCipherSpec_m3233959862
dhh:_Component_GetComponent_m4225719715
V7c:__ZNK5physx2Gu29EPASupportMapPairRelativeImplINS0_8CapsuleVES2_E9doSupportERKNS_6shdfnd3aos5Vec3VERS6_S9_S9_
Ltd:__ZN5physx10SubSortSAH5sort4EPjjRNS_6shdfnd5ArrayINS_11RTreeNodeNQENS2_19ReflectionAllocatorIS4_EEEERjjPS4_
tDe:_TextWriter_Write_m576684782
Ij:_glIsVertexArray
Twd:__ZN14SphereCollider16TransformChangedEi
uua:__ZN25SingleBlockMemoryFileDataC2E18MemLabelIdentifierPvjb
q1a:__ZN5Unity9Component8TransferI18StreamedBinaryReadILb0EEEEvRT_
xxe:__ZN16VirtFuncInvoker0IhE6InvokeEjPv
ca:invoke_fff
C8g:_List_1_Clear_m4254626809_gshared
Vri:b14
waf:_TlsServerHello_Update_m1740270635
gAd:__ZN5physx2Sc7PhysicsC2ERKNS_17PxTolerancesScaleERKNS_14PxvOffsetTableE
vth:__ZN13Il2CppHashMapIPK19Il2CppGenericMethodPK26Il2CppGenericMethodIndicesN6il2cpp8metadata23Il2CppGenericMethodHashENS7_26Il2CppGenericMethodCompareENSt3__29allocatorINSA_4pairIK10KeyWrapperIS2_ES5_EEEEEC2EjRKS8_RKS9_
oqg:__ZL85Locale_t4255929015_CustomAttributesCacheGenerator_Locale_GetText_m1445803604____args1P21CustomAttributesCache
Vwg:_MatchCollection_get_Item_m2609281578
sqa:__ZN7ApiGLES13CreateProgramEv
p$g:__Z74RuntimeInvoker_Boolean_t3825574718_Vector3_t2243707580_Vector3_t2243707580PK10MethodInfoPvPS2_
TYd:_UTF8Encoding__ctor_m100325490
yka:__ZN4crnd12crn_unpackerD2Ev
Xj:_emscripten_glTexImage2D
z7f:_ObjRefSurrogate_SetObjectData_m1873902916
ZN:__ZN18ScriptingArguments9AddStringEPKc
LPh:__ZN15dense_hashtableINSt3__24pairIK10KeyWrapperIP11Il2CppClassES4_EES5_N6il2cpp8metadata16SZArrayClassHashEN14dense_hash_mapIS5_S4_SA_NS9_19SZArrayClassCompareENS0_9allocatorIS7_EEE9SelectKeyESC_SE_E13set_empty_keyERKS7_
Rsg:__ZL116Component_t3819376471_CustomAttributesCacheGenerator_Component_GetComponentsInParent_m1920178904____includeInactive1P21CustomAttributesCache
Poi:runPostSets
U7c:__ZNK5physx2Gu29EPASupportMapPairRelativeImplINS0_8CapsuleVES2_E18doWarmStartSupportEiiRNS_6shdfnd3aos5Vec3VES7_S7_
F9:__ZL23stbir__resize_arbitraryPvPKviiiS_iiiffffPfiij14stbir_datatype12stbir_filterS4_10stbir_edgeS5_16stbir_colorspace
nYe:_Array_InternalArray__ICollection_CopyTo_TisByte_t3683104436_m2871066554_gshared
uue:_Int16_ToString_m3971652088_AdjustorThunk
fk:_pthread_detach
oBh:__ZN6il2cpp2vm19SocketPollingThread7RunLoopEv
xmf:_X509ExtensionEnumerator_Reset_m3200687545
U6f:_MethodDictionary_AllocInternalProperties_m3261295876
gXg:__Z197RuntimeInvoker_Boolean_t3825574718_Il2CppObject_Il2CppObject_Il2CppObject_Int32_t2071877448_DateTimeU26_t3448131235_SByte_t454417549_BooleanU26_t3168250738_SByte_t454417549_ExceptionU26_t1467204777PK10MethodInfoPvPS2_
b3c:__ZN5physx11EdgeManager6resizeEj
jhf:_IPv6Address_set_ScopeId_m1442934355
isg:__ZL77U3CPrivateImplementationDetailsU3E_t1486305139_CustomAttributesCacheGeneratorP21CustomAttributesCache
uGb:__ZN9ShaderLab25SerializedTextureProperty8TransferI24GenerateTypeTreeTransferEEvRT_
mzi:_emscripten_glIsShader__wrapper
wga:__ZN13GfxDeviceGLES28GetNativeVertexBufferPointerEP9GfxBuffer
VRc:__ZN5physx2Sc5Scene12removeStaticERNS0_10StaticCoreERNS_6shdfnd11InlineArrayIPKNS0_9ShapeCoreELj64ENS4_19ReflectionAllocatorIS8_EEEEb
qHh:__ZN15dense_hashtableINSt3__24pairIK10KeyWrapperIPK10Il2CppTypeEjEES6_N6il2cpp8metadata14Il2CppTypeHashEN14dense_hash_mapIS6_jSB_NSA_17Il2CppTypeCompareENS0_9allocatorIS8_EEE9SelectKeyESD_SF_E15insert_noresizeERKS8_
B_:__ZN11NamedObject8TransferI18StreamedBinaryReadILb0EEEEvRT_
lpa:__ZNK17GPUSkinPoseBuffer12GetBoneCountEv
dvf:_DelegatePInvokeWrapper_CallbackHandler_t362827733
Jpg:__ZL59ResolveEventArgs_t1859808873_CustomAttributesCacheGeneratorP21CustomAttributesCache
Aeh:_UnityAction_1_BeginInvoke_m3462722079_gshared
mHf:_EventInfo_get_MemberType_m3337516651
N_b:__Z18Transfer_BlittableI8JSONReadLb1EyEvRK29SerializationCommandArgumentsR31RuntimeSerializationCommandInfo
Ck:_emscripten_glMatrixMode
Oeg:__ZL93TypeBuilder_t3308873219_CustomAttributesCacheGenerator_TypeBuilder_GetConstructors_m774120094P21CustomAttributesCache
DQa:__Z22CalculateTransformPathRK9TransformPS0_
qze:_NotSupportedException__ctor_m836173213
cVc:__ZN5physx2Sc10NPhaseCore25createShapeInstancePairLLERNS0_8ShapeSimES3_NS_7PxFlagsINS_10PxPairFlag4EnumEtEE
j7f:_MethodReturnDictionary__ctor_m756139344
AC:__ZN11UnityEngine15CloudWebService14DataDispatcher16PrepareDataBlockERNS0_16SessionContainerE
hWc:__ZThn8_N5physx2Sc19ShapeInstancePairLL12onDeactivateEj
aPf:_InternalEnumerator_1__ctor_m967618647_gshared
A2g:__Z62RuntimeInvoker_ParameterModifier_t1820634920_Int32_t2071877448PK10MethodInfoPvPS2_
oyb:__ZL26Transfer_SimpleNativeClassI18StreamedBinaryReadILb0EE10RectOffsetLb0EEvRK29SerializationCommandArgumentsR31RuntimeSerializationCommandInfo
jGa:__ZL12DepthPassJobPN21GfxDeviceAsyncCommand10ArgScratchEPKNS_3ArgE
zEb:__ZNSt3__26vectorIN9ShaderLab20SerializedSubProgram16TextureParameterENS_9allocatorIS3_EEE6assignINS_11__wrap_iterIPS3_EEEENS_9enable_ifIXaasr21__is_forward_iteratorIT_EE5valuesr16is_constructibleIS3_NS_15iterator_traitsISC_E9referenceEEE5valueEvE4typeESC_SC_
Mwe:_IntPtr_Equals_m1214967011_AdjustorThunk
Vud:__ZN9Rigidbody16ApplyConstraintsEv
Hm:FUNCTION_TABLE_iiiiiiiiiiii
GW:__Z24InitializeIl2CppFromMainRKNSt3__212basic_stringIcNS_11char_traitsIcEENS_9allocatorIcEEEES7_iPPKc
LNc:__ZN5physx2Sc17ParticleSystemSim8setFlagsEj
k2a:__ZN16GraphicsSettingsD0Ev
SSa:__Z29StdTemplateConversionFunctionIshEbPvR14SafeBinaryRead
CCa:__ZN15LODGroupManager21CalculateLODDataArrayERK13LODParametersPK6Cameraf
m:cttz_i8
fci:_uselocale
Dsd:__ZN5physx2Gu15EdgeListBuilder18CreateEdgesToFacesEjPKjPKt
Ucc:__ZN5physx11PxMeshQuery5sweepERKNS_6PxVec3EfRKNS_10PxGeometryERKNS_11PxTransformEjPKNS_10PxTriangleERNS_10PxSweepHitENS_7PxFlagsINS_9PxHitFlag4EnumEtEEPKjfb
Hxh:__ZNK15dense_hashtableINSt3__24pairIK10KeyWrapperIPK19Il2CppGenericMethodEPK26Il2CppGenericMethodIndicesEES6_N6il2cpp8metadata23Il2CppGenericMethodHashEN14dense_hash_mapIS6_SA_SE_NSD_26Il2CppGenericMethodCompareENS0_9allocatorISB_EEE9SelectKeyESG_SI_E12test_deletedERK24dense_hashtable_iteratorISB_S6_SE_SK_SG_SI_E
epg:__ZL47Guid_t2533601593_CustomAttributesCacheGeneratorP21CustomAttributesCache
bxg:_MRUList__ctor_m2726533367
lre:_DateTimeFormatInfo_get_FullDateTimePattern_m2607507656
Waf:_HttpsClientStream_RaiseServerCertificateValidation_m3356770426
Vag:__ZL73Il2CppArray_CustomAttributesCacheGenerator_Array_BinarySearch_m3052238307P21CustomAttributesCache
Bke:_DelegateSerializationHolder__ctor_m3915060553
yl:_emscripten_glViewport
t1h:__ZN6il2cpp6icalls8mscorlib6System15MonoCustomAttrs17IsDefinedInternalEP12Il2CppObjectP20Il2CppReflectionType
Reb:__ZN4Mesh21UnswizzleVertexColorsEb
laf:_TlsServerSettings_set_CertificateTypes_m264196087
qQf:_InternalEnumerator_1__ctor_m4150855019_gshared
Bhe:_DateTime_ToString_m2276663647_AdjustorThunk
tgd:__ZN5physx2Sc27ConstraintProjectionManagerC2Ev
gec:__Z14raycast_sphereRKN5physx10PxGeometryERKNS_11PxTransformERKNS_6PxVec3ES8_fNS_7PxFlagsINS_9PxHitFlag4EnumEtEEjPNS_12PxRaycastHitEbPFbRSD_PvESG_
Tjb:__ZN14PlayerSettings23VirtualRedirectTransferER18StreamedBinaryReadILb0EE
YP:__ZN13MonoBehaviour19RebuildMonoInstanceEP11Il2CppClassP12Il2CppObjectP10MonoScript
cai:__ZN6il2cpp2os5Event5ResetEv
rKa:__Z26CombineDepthNormalsTextureRK17RenderLoopContextR13dynamic_arrayI16RenderObjectDataLj4EE
koh:_AesManaged__ctor_m2322442838
uWh:__ZN6il2cpp8metadata15GenericMetadata17InflateParametersEPK13ParameterInfohPK20Il2CppGenericContextb
Yve:_Int64_System_IConvertible_ToUInt32_m850395426_AdjustorThunk
YO:__ZN18AwakeFromLoadQueue28InvokePersistentManagerAwakeEPNS_4ItemEj17AwakeFromLoadMode
SDf:_TypeBuilder_GetMethodsByName_m229541072
bD:__ZNSt3__215basic_stringbufIcNS_11char_traitsIcEENS_9allocatorIcEEE7seekposENS_4fposI11__mbstate_tEEj
Hzf:_HMACSHA512__ctor_m2390736870
nld:__ZNK5physx2Cm12DelegateTaskINS_2Sc5SceneEXadL_ZNS3_23postIslandGenSecondPassEPNS_10PxBaseTaskEEEE7getNameEv
a8h:__ZNSt3__26__treeINS_12__value_typeIPvxEENS_19__map_value_compareIS2_S3_NS_4lessIS2_EELb1EEENS_9allocatorIS3_EEE16__insert_node_atEPNS_16__tree_node_baseIS2_EERSD_SD_
_hb:__ZN4PPtrI6SpriteE8TransferI18StreamedBinaryReadILb0EEEEvRT_
aCa:__ZNK6Camera23CalculateShadowDistanceEv
ODf:_TypeBuilder_GetInterfaces_m1818658502
tqe:_NumberFormatter_AppendIntegerString_m868842252
a1e:_BigInteger_op_Equality_m2683055762
bX:__Z25SetNeedToPerformRenderingb
WJf:_MonoMethod_GetPseudoCustomAttributes_m466965107
lIa:__ZNSt3__227__insertion_sort_incompleteIR23CompareReflectionProbesP31RuntimeReflectionProbeBlendInfoEEbT0_S5_T_
Zcg:__ZL53SortedList_t3004938869_CustomAttributesCacheGeneratorP21CustomAttributesCache
snh:_ResourceRequest_t2560315377_marshal_pinvoke
rXf:_Enumerator_System_Collections_IDictionaryEnumerator_get_Value_m3005608231_gshared
Uyh:__ZL24UnresolvedVirtualCall_26P12Il2CppObjectS0_iiPK10MethodInfo
X6c:__ZN5physxL27PxcSweepAnyShapeHeightfieldERKNS_11PxsCCDShapeES2_PKNS_12PxsRigidBodyES5_RKNS_11PxTransformES8_fRNS_6PxVec3ESA_RNS_10PxcNpCacheERNS_18PxcNpThreadContextE
PMe:_DSAManaged_GenerateKeyPair_m2711647034
VXe:_Array_InternalArray__ICollection_Add_TisResourceCacheItem_t333236149_m1151081240_gshared
b2c:__ZN5physx3Scb5SceneD2Ev
aee:_Convert_ToInt32_m2209788057
Oqb:__ZN6HelperI14SafeBinaryRead23TransferArrayField_InfoE24SerializationFunctionForERKS1_R23StaticTransferFieldInfoPb
xsf:_SoapServices_GetXmlTypeForInteropType_m3821579913
Kia:__ZN7ApiGLES13CreateTextureEj16TextureDimensionN2gl9TexFormatEiiiii
lxi:_emscripten_glTexParameterfv__wrapper
oAg:_CaptureAssertion_IsComplex_m1433259302
hFh:_il2cpp_method_get_param_count
cvd:__Z16GetDynamicsScenev
nVc:__ZThn8_N5physx2Sc18TriggerInteraction7destroyEv
rrg:__ZL68Uri_t19570940_CustomAttributesCacheGenerator_U3CU3Ef__switchU24map15P21CustomAttributesCache
VOd:_String_IndexOfUnchecked_m3356721554
T8a:__ZN16LightmapSettings8TransferI14SafeBinaryReadEEvRT_
Sla:__ZN17BufferManagerGLES13ReleaseBufferEP14DataBufferGLES
Kmc:__ZN5physx6shdfnd5ArrayIPvNS0_19ReflectionAllocatorINS_16NpConnectorArrayEEEE15growAndPushBackERKS2_
$Pg:__Z94RuntimeInvoker_Int32_t2071877448_Il2CppObject_Int32_t2071877448_Int32_t2071877448_Il2CppObjectPK10MethodInfoPvPS2_
fQ:__Z64scripting_unity_engine_object_new_and_invoke_default_constructorP11Il2CppClassP6ObjectPP15Il2CppException
kUc:__ZN5physx2Sc5Scene15prepareSimulateEv
L_b:__Z18Transfer_BlittableI8JSONReadLb1EjEvRK29SerializationCommandArgumentsR31RuntimeSerializationCommandInfo
ooc:__ZN5physx6shdfnd5ArrayIPNS_2Sc11InteractionENS0_19ReflectionAllocatorIS4_EEE8recreateEj
r4g:_PKCS12_Decrypt_m1557069392
$hf:_WebHeaderCollection_ToString_m1246460752
FQf:_InternalEnumerator_1_System_Collections_IEnumerator_get_Current_m2842514953_AdjustorThunk
Po:stackSave
uei:__ZNSt3__213basic_istreamIcNS_11char_traitsIcEEED1Ev
IWb:__Z41Register_UnityEngine_Mesh_Internal_Createv
CUa:__ZN16MemoryFileSystem5TouchER13FileEntryData
SJd:_RIPEMD160Managed_JJ_m2933451431
YCd:__Z63Register_UnityEngine_Physics_INTERNAL_CALL_Internal_RaycastTestv
qId:_MACTripleDES_Initialize_m1318099802
T3e:_MD5SHA1_VerifySignature_m507888141
L1d:_Byte_System_IConvertible_ToChar_m4188836679
Vqe:_NumberFormatter_InitDecHexDigits_m2036076025
WXf:_Enumerator_get_CurrentKey_m3839846791_AdjustorThunk
h$b:__ZN8JSONRead21TransferSTLStyleArrayI13dynamic_arrayIaLj1EEEEvRT_18MemLabelIdentifier17TransferMetaFlags
sNa:__ZN6Camera9SetAspectEf
PGc:__ZN5physx6shdfnd8internal8HashBaseIPNS_7PxActorES4_NS0_4HashIS4_EENS1_11HashSetBaseIS4_S6_NS0_9AllocatorELb0EE6GetKeyES8_Lb0EE6createERKS4_Rb
ZFh:__ZN15dense_hashtableINSt3__24pairIK10KeyWrapperINS1_IPK14Il2CppAssemblyP11Il2CppClassEEEjEES9_17ReflectionMapHashIS8_EN14dense_hash_mapIS9_jSD_19ReflectionMapEqualsIS8_ENS0_9allocatorISB_EEE9SelectKeyESG_SI_E4findERSA_
n1e:_Kernel_modInverse_m3230829577
Nya:_UNITY_png_set_write_fn
NIg:_UInt32_TryParse_m3987111861
f7a:__ZN12CubemapArray8TransferI18StreamedBinaryReadILb1EEEEvRT_
qmi:__ZNSt3__26locale5__imp7installINS_8messagesIcEEEEvPT_
Eyi:_emscripten_glBindVertexArray__wrapper
v3e:_MD4__ctor_m2366413460
Bih:_Display__ctor_m563295973
d_f:_Dictionary_2_InitArrays_m435313205_gshared
sr:__ZN10ObjectPoolIN4FMOD3DSPENS0_4DSPIEE7GetFreeEi
lOa:__ZN9Transform37InitializeTransformHierarchyRecursiveER18TransformHierarchyRii
Z8f:__ZL80Decimal_t724701077_CustomAttributesCacheGenerator_Decimal_op_Implicit_m233687092P21CustomAttributesCache
Mhf:_ServicePointManager_get_CheckCertificateRevocationList_m4009410230
Szh:__ZL24UnresolvedVirtualCall_78P12Il2CppObjectPK10MethodInfo
_Ke:_ModulusRing_Pow_m1137250399
Dci:_fscanf
Mwd:__ZN14SphereCollider23VirtualRedirectTransferER24GenerateTypeTreeTransfer
UDa:__ZN17MeshRenderingData4InitEP4MeshS1_iP15SharedGfxBufferS3_
C5e:_CipherSuite_get_HashAlgorithmType_m3902365773
KGh:__ZN15dense_hashtableINSt3__24pairIK10KeyWrapperINS1_IPK9FieldInfoP11Il2CppClassEEEjEES9_17ReflectionMapHashIS8_EN14dense_hash_mapIS9_jSD_19ReflectionMapEqualsIS8_ENS0_9allocatorISB_EEE9SelectKeyESG_SI_E12resize_deltaEjj
n8d:_Hashtable__cctor_m2952659675
jmf:_X509ChainStatus__ctor_m3628359961_AdjustorThunk
pTc:__ZN5physx2Sc9StaticSim21postActor2WorldChangeEv
nPd:_Evidence_get_HostEvidenceList_m2095478124
W6e:_Context_Clear_m4000337070
Jga:__ZN13GfxDeviceGLES26SetRandomWriteTargetBufferEi15ComputeBufferID
UJa:__ZN18BlockRangeInternal16PopLastNodeIndexEP10BlockRangeji
pzc:__ZN5physx6shdfnd4sortIPvNS0_4LessIS2_EENS0_19ReflectionAllocatorINS_2Cm5BlockIhLj256EEEEEEEvPT_jRKT0_RKT1_j
sXa:__ZN18AssetBundleManager19RegisterAssetBundleEP11AssetBundle
qqd:__ZN5physx20InternalTriangleMesh7releaseEv
C5c:__ZN5physx6shdfnd5ArrayINS_16PxsCCDBlockArrayINS_13PxsCCDOverlapELi128EE9BlockInfoENS0_19ReflectionAllocatorIS5_EEE15growAndPushBackERKS5_
Dpc:__ZNK5physx7NpShape8getFlagsEv
KRb:__ZNK11ICallString6ToUTF8Ev
mAg:_CaptureAssertion_get_Alternate_m2729005740
v2h:_GC_number_stack_black_listed
jBf:_Default_SelectMethod_m3081239996
F1:__ZN18UnityPropertySheet11UnityTexEnvC2Ev
cJc:__ZNK5physx7NpCloth16getContactOffsetEv
hS:__ZN12FileAccessor4ReadEyyPvPy
k0:__ZN13dynamic_arrayI16ShaderKeywordSetLj4EE6insertEPS0_PKS0_S4_
Mzb:__Z29Transfer_Blittable_ArrayFieldI18StreamedBinaryReadILb0EE11QuaternionfEvRT_R9ArrayInfoRK23StaticTransferFieldInfo
V6f:_MethodDictionary_IsOverridenKey_m3922224650
z9d:_SyncHashtable_Contains_m3042906549
vSb:__Z21GetSceneHierarchyPathPK6Object
Cmf:_X509KeyUsageExtension_CopyFrom_m931530012
QMa:__ZN13RenderTexture9SetHeightEi
ffi:__ZNKSt3__27collateIcE7do_hashEPKcS3_
Pkf:_X509Chain_get_CertificateAuthorities_m3325663784
l5a:__ZN16LevelGameManager8TransferI24GenerateTypeTreeTransferEEvRT_
CWh:__ZN15dense_hashtableI10KeyWrapperIP18Il2CppGenericClassES3_N6il2cpp8metadata22Il2CppGenericClassHashEN14dense_hash_setIS3_S6_NS5_25Il2CppGenericClassCompareENSt3__29allocatorIS3_EEE8IdentityES8_SB_E12resize_deltaEjj
vFd:__ZNSt3__24pairIKN4core12basic_stringIcNS1_20StringStorageDefaultIcEEEEN11UnityEngine7Connect19RemoteSettingsValueEEC2ERKSA_
EXh:__ZNK15dense_hashtableINSt3__24pairIK10KeyWrapperIP12Il2CppObjectEN6il2cpp2gc9CachedCCWEEES5_NS7_5utils11PointerHashIS3_EEN14dense_hash_mapIS5_S9_SD_NS0_8equal_toIS5_EENS0_9allocatorISA_EEE9SelectKeyESG_SI_E12test_deletedERK24dense_hashtable_iteratorISA_S5_SD_SK_SG_SI_E
eTh:__ZN6il2cpp6icalls8mscorlib6System2IO6MonoIO17GetFileAttributesEP12Il2CppStringPi
rGf:_ModuleBuilderTokenGenerator__ctor_m1041652642
Erb:__Z29Transfer_Blittable_ArrayFieldI14SafeBinaryReadjEvRT_R9ArrayInfoRK23StaticTransferFieldInfo
sgh:_Camera_FireOnPostRender_m94860165
Omb:__ZN23PreloadManagerOperationD0Ev
Zd:_emscripten_set_keydown_callback
Z8d:_Enumerator_get_Value_m3684748062
n0a:__ZN19StreamedBinaryWriteILb0EE21TransferSTLStyleArrayINSt3__26vectorI17SortingLayerEntryNS2_9allocatorIS4_EEEEEEvRT_17TransferMetaFlags
Hdh:_ReadOnlyCollection_1_System_Collections_IList_Remove_m1743441024_gshared
JIg:_UInt32_Parse_m3371984903
pS:__ZN12FileAccessorC2Ev
E_g:__Z52RuntimeInvoker_Void_t1841601450_ColorU26_t3402129837PK10MethodInfoPvPS2_
dOa:__ZN9Transform35SetLocalPositionWithoutNotificationERKN4math7_float3E
guc:__ZN5physx2Sc15ArticulationSim12applyImpulseERNS0_8BodyCoreERKNS_9PxcFsDataERKNS_6PxVec3ES9_
lQc:__ZNK5physx22NpParticleBaseTemplateINS_16PxParticleSystemENS_16NpParticleSystemEE7getTypeEv
Yxg:_PatternLinkStack_GetCurrent_m2994645935
VA:__ZN11AudioSource7PRODUCEE18MemLabelIdentifier18ObjectCreationMode
Sdh:_Comparison_1__ctor_m2929820459_gshared
uJd:__ZN16VirtFuncInvoker5IiP22ByteU5BU5D_t3397334013iiS1_iE6InvokeEjPvS1_iiS1_i
v5f:_AsyncResult__ctor_m1183194429
X6f:_MethodDictionary_set_Item_m3475146889
Btc:__ZNK5physx14NpArticulation26getInternalDriveIterationsEv
v1g:__Z54RuntimeInvoker_Void_t1841601450_LabelFixup_t4090909514PK10MethodInfoPvPS2_
Pig:__ZL62WellKnownObjectMode_t2630225581_CustomAttributesCacheGeneratorP21CustomAttributesCache
NEe:_MonoCustomAttrs_GetCustomAttribute_m100274015
g8:__ZN13RenderManager18UpdateAllRenderersEv
jwd:__ZThn24_N14PhysicsManagerD1Ev
qDd:__ZN22BaseUnityConnectClient30OnEnteringStatePausedOrStoppedEv
yeh:_UnityAction_1__ctor_m2836997866_gshared
Wmg:__ZL64AssemblyLoadEventArgs_t4233815743_CustomAttributesCacheGeneratorP21CustomAttributesCache
fW:__ZN15dense_hashtableINSt3__24pairIKNS0_12basic_stringIcNS0_11char_traitsIcEE13stl_allocatorIcL18MemLabelIdentifier54ELi16EEEEP11AssetBundleEES8_11djb2_hash_tIS8_EN14dense_hash_mapIS8_SB_SE_NS0_8equal_toIS8_EENS0_9allocatorISC_EEE9SelectKeyESH_SJ_EC2ERKSM_j
VNa:__Z24MergeTransformComponentsR9TransformS0_b
gpc:__ZThn24_N5physx2Sc20ArticulationJointSimD0Ev
_fh:_DelegatePInvokeWrapper_AudioConfigurationChangeHandler_t3743753033
dBe:_MonoIO_get_PathSeparator_m2635828107
Jsf:_TypeInfo_get_TypeName_m1722081275
qGe:_MonoType_get_Name_m865859211
Woe:_CultureInfo__cctor_m2290268677
rNf:_ArrayReadOnlyList_1_System_Collections_IEnumerable_GetEnumerator_m3039869667_gshared
dTd:_String_Trim_m3982520224
mjc:__ZN5physx14PxsAABBManager12createBPElemEv
Erf:_RemotingConfiguration__cctor_m2129988840
cGc:__ZThn12_N5physx7NpShape14onRefCountZeroEv
u5b:__ZL26GeomMTDCallback_ConvexMeshRN5physx6PxVec3ERfRKNS_10PxGeometryERKNS_11PxTransformES5_S8_
P9f:__ZL42Il2CppArray_CustomAttributesCacheGeneratorP21CustomAttributesCache
Fob:__ZNK13MonoBehaviour25GetNeedsPerObjectTypeTreeEv
Hzc:__ZN5physx15NpActorTemplateINS_18PxArticulationLinkEE22setClientBehaviorFlagsENS_7PxFlagsINS_25PxActorClientBehaviorFlag4EnumEhEE
Gj:_emscripten_glVertexAttribPointer
l6:__ZN14PreloadManager26UpdatePreloadingSingleStepENS_21UpdatePreloadingFlagsEi
oMd:_SHA512Managed_Initialize_m891287980
Fld:__ZN18ScBeforeSolverTask11runInternalEv
cca:__Z19InitializeGfxDevicej
R4a:__ZN26ProbeSetTetrahedralization8TransferI24GenerateTypeTreeTransferEEvRT_
EPd:_SecurityException__ctor_m1484114982
$2f:_SinkProviderData_get_Children_m100594762
B6g:_X509Crl_GetHashName_m183504634
w_d:_Array_GetValue_m1507415734
_Oh:__ZN15dense_hashtableINSt3__24pairIK10KeyWrapperINS1_IP11Il2CppClassjEEES4_EES6_N6il2cpp8metadata14ArrayClassHashEN14dense_hash_mapIS6_S4_SB_NSA_17ArrayClassCompareENS0_9allocatorIS8_EEE9SelectKeyESD_SF_E9copy_fromERKSI_j
Jpe:_Object_MemberwiseClone_m2655589444
Qlc:__ZL33GeomOverlapCallback_CapsuleConvexRKN5physx10PxGeometryERKNS_11PxTransformES2_S5_PNS_2Gu12TriggerCacheE
jdh:_ReadOnlyCollection_1_System_Collections_IList_get_Item_m375043207_gshared
K3:__ZN6prcoreL25inner_stretch_i8_bilinearEPKNS_9InnerInfoE
RD:__ZN11UnityEngine15CloudWebService13WWWRestClient17GetResponseStatusEv
zye:_DirectoryInfo_ToString_m4208086799
Fgh:_Collision_get_transform_m4132935520
dKf:_MonoMethod_get_IsGenericMethod_m4276550811
cde:_Decimal_op_Implicit_m2149927308
xqd:__ZN5physx20InternalTriangleMesh9loadRTreeERNS_13PxInputStreamEj
iSc:__ZN5physx19NpRigidBodyTemplateINS_14PxRigidDynamicEE25setCMassLocalPoseInternalERKNS_11PxTransformE
t9g:_List_1_set_Capacity_m895816763_gshared
YSc:__ZNK5physx15NpActorTemplateINS_13PxRigidStaticEE14getOwnerClientEv
Dni:__ZNSt3__212basic_stringIwNS_11char_traitsIwEENS_9allocatorIwEEE9__grow_byEjjjjjj
UYh:__ZN6il2cpp6icalls8mscorlib6System9AppDomain22InternalGetProcessGuidEP12Il2CppString
rOc:__ZN5physx2Sc18ParticleSystemCore16releaseParticlesEv
lNe:_KeyPairPersistence_get_UseMachineKeyStore_m560802076
W6c:__ZNK5physx2Gu29EPASupportMapPairRelativeImplINS0_8CapsuleVENS0_4BoxVEE6getDirEv
Wdc:__ZN5physx2Gu20intersectTriangleBoxERKNS_6shdfnd3aos5Vec3VES5_S5_S5_S5_
$Ch:__ZNSt3__214__split_bufferIP9FieldInfoRNS_9allocatorIS2_EEEC2EjjS5_
Jvb:__Z18Transfer_BlittableI24GenerateTypeTreeTransferLb1EjEvRK29SerializationCommandArgumentsR31RuntimeSerializationCommandInfo
q3e:_MD2Managed_Padding_m410163267
Grh:__ZN6il2cpp2os12FastAutoLockD2Ev
a3a:__ZN11ColorRGBA328TransferI14SafeBinaryReadEEvRT_
Dzd:__ZN5physx6shdfnd5ArrayIPvNS0_19ReflectionAllocatorINS_24NpPtrTableStorageManager8PtrBlockILi4EEEEEE15growAndPushBackERKS2_
Cnb:__ZN24RingBufferMemoryFileData4LockEPPv
Yud:__ZN8Collider14FinalizeCreateERN5physx10PxGeometryEPK9Rigidbody
B9:__Z11IsHDRFormat13TextureFormat
Df:_emscripten_glClearDepth
h6a:__ZN8Playable12SetPlayStateE9PlayState
t3g:__Z70RuntimeInvoker_Boolean_t3825574718_Il2CppObject_BooleanU26_t3168250738PK10MethodInfoPvPS2_
Cbb:__ZN14SafeBinaryRead21TransferSTLStyleArrayINSt3__26vectorIN15QualitySettings14QualitySettingENS1_9allocatorIS4_EEEEEEvRT_17TransferMetaFlags
Pye:_File_OpenText_m4058508963
Qgh:_Collision_get_frictionForceSum_m3438602686
fZg:__Z54RuntimeInvoker_Double_t4078015681_Interval_t2354235237PK10MethodInfoPvPS2_
Ajb:__ZNSt3__26vectorINS_4pairIPKN5Unity4TypeE7Hash128EENS_9allocatorIS7_EEE8__appendEj
Ksf:_WellKnownClientTypeEntry__ctor_m670594074
xge:_DateTime_System_IConvertible_ToSingle_m3927769066_AdjustorThunk
cbf:_RecordProtocol_SendRecord_m2977889250
q9c:__ZN5physx35solveContactPreBlock_ConcludeStaticEPKNS_23PxcSolverConstraintDescEjRNS_16PxcSolverContextE
L9:__ZL22stbir__encode_scanlineP11stbir__infoiPvPfiii
bDd:__ZN20QuadTreeNodeRenderer13StaticDestroyEPv
pz:__ZN14AudioBehaviourD2Ev
dVe:_Array_InternalArray__ICollection_Remove_TisUInt32_t2149682021_m4198326168_gshared
sLb:__ZN9Transform12CleanupClassEv
F6h:__ZN6il2cpp6icalls8mscorlib6System9Threading16NativeEventCalls19CloseEvent_internalE12Il2CppIntPtr
U6e:_ClientContext_set_ClientHelloProtocol_m2246603449
coc:__ZN5physx6shdfnd5ArrayIPvNS0_15InlineAllocatorILj256ENS0_19ReflectionAllocatorINS_2Cm5BlockIS2_Lj32EEEEEEEE15growAndPushBackERKS2_
Fkd:__ZN5physx18PxsSolverStartTask13setupDescTaskEv
csh:__ZN6il2cpp2vmL21SetupPropertiesLockedEP11Il2CppClassRKNS_2os12FastAutoLockE
pFb:__ZNSt3__26vectorIN9ShaderLab19SerializedSubShaderENS_9allocatorIS2_EEE26__swap_out_circular_bufferERNS_14__split_bufferIS2_RS4_EE
bIh:__ZNK15dense_hashtableINSt3__24pairIK10KeyWrapperINS1_IPK10MethodInfoP11Il2CppClassEEEjEES9_17ReflectionMapHashIS8_EN14dense_hash_mapIS9_jSD_19ReflectionMapEqualsIS8_ENS0_9allocatorISB_EEE9SelectKeyESG_SI_E10test_emptyEj
W3b:__ZN5physx3Cct13BoxController6resizeEf
NRg:__Z31RuntimeInvoker_Byte_t3683104436PK10MethodInfoPvPS2_
YLf:_ResourceReader_Close_m3256966401
hxf:_SByte_ToString_m4105923225_AdjustorThunk
WZa:_LZ4_compress_generic
fvf:_StreamingContext_t1417235061_marshal_pinvoke_cleanup
_oe:_CultureInfo_ConstructCurrentUICulture_m3363349599
Isg:__ZL87Component_t3819376471_CustomAttributesCacheGenerator_Component_GetComponent_m3720754210P21CustomAttributesCache
s0d:__ZN21InterfaceFuncInvoker1IxP12Il2CppObjectE6InvokeEjP11Il2CppClassPvS1_
KFe:_MonoType_GetEvent_m4160342003
jmd:__ZN5physx6shdfnd5ArrayINS_2Cm12DelegateTaskINS_2Sc5SceneEXadL_ZNS5_19updateCCDSinglePassEPNS_10PxBaseTaskEEEEENS0_19ReflectionAllocatorIS8_EEE8recreateEj
g3a:__Z30ProcessDynamicBatchGeometryJobP25DynamicVBOGeometryJobDataj
TLa:__ZNSt3__27__sort4IRNS_6__lessI11CulledLightS2_EEPS2_EEjT0_S6_S6_S6_T_
ENh:__ZN6il2cpp2vm14TypeNameParser26ParseArrayModifierOptionalEv
uIe:_MSCompatUnicodeTable_Level3_m260824928
sCf:_ConstructorBuilder_get_CallingConvention_m443074051
k3g:__Z72RuntimeInvoker_DictionaryEntry_t3048875398_Il2CppObject_SByte_t454417549PK10MethodInfoPvPS2_
dAc:__ZN5physx34NpShapeGetScRigidObjectFromScbSLOWERKNS_3Scb5ShapeE
oue:_Int32_FindExponent_m3187554672
yNe:_KeyPairPersistence_Load_m1355205585
qve:_Int32_ToString_m2960866144_AdjustorThunk
Swh:__ZN15dense_hashtableI10KeyWrapperIPK19Il2CppGenericMethodES4_N6il2cpp8metadata23Il2CppGenericMethodHashEN14dense_hash_setIS4_S7_NS6_26Il2CppGenericMethodCompareENSt3__29allocatorIS4_EEE8IdentityES9_SC_E12maybe_shrinkEv
gig:__ZL83MethodDictionary_t1742974787_CustomAttributesCacheGenerator_U3CU3Ef__switchU24map21P21CustomAttributesCache
Wrc:__ZNK5physx21PxsBodyTransformVault12getTransformERKNS_11PxsBodyCoreE
x$h:__ZN6il2cpp6icalls8mscorlib6System11Environment15internalGetHomeEv
zDb:__ZN9ShaderLab26SerializedShaderDependencyC2ERKS0_
W4g:_PKCS12_get_Keys_m288413492
a$a:__ZNK5Unity9Component7GetNameEv
u2g:__Z49RuntimeInvoker_Slot_t2267560602_Int32_t2071877448PK10MethodInfoPvPS2_
EDh:__ZNSt3__214__split_bufferIN6il2cpp6icalls8mscorlib6System12PropertyPairERNS_9allocatorIS5_EEEC2EjjS8_
Vca:__ZN13RenderTexture9SetActiveEPS_i11CubemapFaceij
kog:__ZL79Convert_t2607082565_CustomAttributesCacheGenerator_Convert_ToUInt16_m2130758075P21CustomAttributesCache
R5b:__ZN44ConvexVsHeightfieldContactGenerationCallback7onEventEjPj
fN:__Z27LogRepeatingStringWithFlagsRKNSt3__212basic_stringIcNS_11char_traitsIcEENS_9allocatorIcEEEE15LogMessageFlagsi
_Qa:__ZN13ScreenManagerD0Ev
sAa:_UNITY_png_set_error_fn
Ln:FUNCTION_TABLE_diiii
Aki:__ZNKSt3__27codecvtIwc11__mbstate_tE5do_inERS1_PKcS5_RS5_PwS7_RS7_
T_b:__ZN8JSONRead21TransferSTLStyleArrayI13dynamic_arrayIfLj4EEEEvRT_18MemLabelIdentifier17TransferMetaFlags
w7c:__ZN5physx2Gu19_gjkRelativeRayCastINS0_9TriangleVENS0_8CapsuleVEEEbRT_RT0_RKNS_6shdfnd3aos15PsMatTransformVERKNS9_6FloatVERKNS9_5Vec3VESI_RSD_RSG_SK_f
fIe:_ContractionComparer_Compare_m314873025
nub:__Z18Transfer_BlittableI17RemapPPtrTransferLb1EjEvRK29SerializationCommandArgumentsR31RuntimeSerializationCommandInfo
Fsc:__ZN5physx6shdfnd5ArrayIPvNS0_15InlineAllocatorILj256ENS0_19ReflectionAllocatorINS_11NpAggregateEEEEEE15growAndPushBackERKS2_
Hve:_Int64_System_IConvertible_ToDouble_m638786774
zRc:__ZNK5physx14NpRigidDynamic21getMaxAngularVelocityEv
Uv:__ZN4FMOD6System7releaseEv
w3c:__ZN5physx6shdfnd8PoolBaseINS_2Sc18TriggerInteractionENS0_19ReflectionAllocatorIS3_EEE15disposeElementsEv
mxb:__Z18Transfer_BlittableI19StreamedBinaryWriteILb0EELb1E8BitFieldEvRK29SerializationCommandArgumentsR31RuntimeSerializationCommandInfo
IAd:__ZN5physx28PxcContactCapsuleHeightFieldERKNS_2Gu13GeometryUnionES3_RKNS_11PxTransformES6_RKfRNS_10PxcNpCacheERNS0_13ContactBufferE
SMd:_SymmetricAlgorithm_get_Padding_m718051685
KL:__ZN26RecursivePlayableTraverser8TraverseER9FrameDataP8PlayableS3_P14DirectorPlayeriPvf
M5b:__ZL31PointInConvexPolygon2D_OutCodesPKfjffffRh
KPc:__ZN5physx22NpParticleBaseTemplateINS_16PxParticleSystemENS_16NpParticleSystemEE18setDynamicFrictionEf
Vnb:__ZN10MonoScript23VirtualRedirectTransferER17RemapPPtrTransfer
f6a:__ZN8Playable11SetDurationEd
Svc:__ZN5physx2Sc21ArticulationJointCore21setInternalComplianceEf
hng:__ZL76Convert_t2607082565_CustomAttributesCacheGenerator_Convert_ToChar_m541258017P21CustomAttributesCache
nud:__ZNK5physx6shdfnd10Foundation13getErrorLevelEv
Jpa:__ZN16GeometryJobTasks20ScheduleGeometryJobsER9GfxDevicePFvP15GeometryJobDataEPK22GeometryJobInstructionjb
Vt:__ZN12AudioManager29ShutdownReinitializeAndReloadEv
b4g:_NetscapeCertTypeExtension_Decode_m2210025005
Npg:__ZL59StringComparison_t2376310518_CustomAttributesCacheGeneratorP21CustomAttributesCache
tnd:__ZN5physx2Cm12DelegateTaskINS_2Sc5SceneEXadL_ZNS3_15postNarrowPhaseEPNS_10PxBaseTaskEEEE11runInternalEv
EBd:__Z20ConvertContactToMonoP9Collision
Tsf:_BaseFixupRecord_DoFixup_m1821597450
Uye:_FileLoadException__ctor_m1356374414
b6e:_TlsStream_Reset_m1504601050
aUb:__Z29GetGlobalAllowNameConversionsv
L5b:__ZL17transformVerticesRfS_S_S_PfjPKN5physx6PxVec3EPKhRKNS1_7PxMat33E
NAd:__ZNK5physx2Gu15HeightFieldUtil31getFaceIndexAtShapePointNoTest2Ejff
Qz:__ZN9AudioClip27IsFormatSupportedByPlatformERKNSt3__212basic_stringIcNS0_11char_traitsIcEENS0_9allocatorIcEEEE
Qgd:__ZN5physx6shdfnd5ArrayIPNS_14PxLightCpuTaskENS0_13TempAllocatorEE6resizeEjRKS3_
nIf:_Module_GetCustomAttributes_m3581287913
ibg:__ZL67Type_t_CustomAttributesCacheGenerator_Type_IsSubclassOf_m2450899481P21CustomAttributesCache
Px:__ZN11AudioSource23VirtualRedirectTransferER18StreamedBinaryReadILb0EE
kSh:__ZN13dynamic_arrayIP12Il2CppObjectLj4EE20resize_uninitializedEjb
x4c:__ZNK5physx2Sq10AABBPruner5sweepERKNS0_9ShapeDataERKNS_6PxVec3ERfRNS0_14PrunerCallbackE
Twb:__ZN10RectOffset8TransferI19StreamedBinaryWriteILb0EEEEvRT_
vO:__ZL41AssemblyNameMatchesWithOrWithoutExtensionPKcS0_
GZa:__ZN21ArchiveStorageCreatorC2Ev
v$c:__ZN5physx2Sc5Scene21fireCallBacksPostSyncEv
jfh:_AssemblyIsEditorAssembly__ctor_m2639706522
rna:__ZN14GfxContextGLES43AddRenderSurfaceToDeferredFBOInvalidateListEPK17RenderSurfaceGLES
Xuh:__ZN15dense_hashtableINSt3__24pairIK10KeyWrapperINS0_12basic_stringIcNS0_11char_traitsIcEENS0_9allocatorIcEEEEEP11Il2CppClassEES9_N6il2cpp5utils11StringUtils12StringHasherIS8_EEN14dense_hash_mapIS9_SC_SI_NS0_8equal_toIS9_EENS6_ISD_EEE9SelectKeyESL_SM_EC2EjRKSI_RKSL_RKSO_
b6c:__ZN5physx17PxsCCDAdvanceTask11runInternalEv
u$:__ZN11NamedObject23VirtualRedirectTransferER14SafeBinaryRead
Owh:__ZN15dense_hashtableI10KeyWrapperIPK19Il2CppGenericMethodES4_N6il2cpp8metadata23Il2CppGenericMethodHashEN14dense_hash_setIS4_S7_NS6_26Il2CppGenericMethodCompareENSt3__29allocatorIS4_EEE8IdentityES9_SC_E15insert_noresizeERKS4_
y6:__ZN23PreloadManagerOperation6IsDoneEv
_Wa:__ZN15SerializeTraitsINSt3__24pairI8UnityStrN11AssetBundle9AssetInfoEEEE8TransferI19StreamedBinaryWriteILb0EEEEvRS5_RT_
gRe:_X509Certificate_get_RawData_m3000055075
ksh:__ZNSt3__26vectorIPK10Il2CppTypeNS_9allocatorIS3_EEE21__push_back_slow_pathIRKS3_EEvOT_
CQb:__Z33GetHasChangedDeprecatedSystemMaskv
mYh:__ZN6il2cpp5utils11StringUtils11Utf16ToUtf8ERKNSt3__212basic_stringIDsNS2_11char_traitsIDsEENS2_9allocatorIDsEEEE
cgc:__ZN5physx3Cct26CharacterControllerManagerD2Ev
bXf:_Enumerator_VerifyState_m1165543189_AdjustorThunk
dhe:_DateTime_AddSeconds_m722082155_AdjustorThunk
u6d:_SynchronizedArrayListWrapper_CopyTo_m956887031
gWf:_Comparer_1__ctor_m1202126643_gshared
waa:__ZN21LightProbeProxyVolume18HasHardwareSupportEv
KHa:__ZN26LightProbeProxyVolumeCacheC2ER13BatchRendererR15RenderLoopStats
F3:__ZN6prcoreL31inner_stretch_argb8888_bilinearEPKNS_9InnerInfoE
WAb:__Z18Transfer_BlittableI18StreamedBinaryReadILb1EELb1E8BitFieldEvRK29SerializationCommandArgumentsR31RuntimeSerializationCommandInfo
g9e:_TlsClientCertificate_get_ClientCertificate_m3062440489
ePd:_StrongNamePublicKeyBlob_ToString_m3721281223
_vg:__ZL80UnityEvent_t408735097_CustomAttributesCacheGenerator_UnityEvent__ctor_m588741179P21CustomAttributesCache
XPf:_InternalEnumerator_1_get_Current_m198513457_AdjustorThunk
E5c:__ZN5physx6shdfnd8internal8HashBaseINS0_4PairIKNS3_IPKNS_12PxsRigidCoreEPKNS_12PxsShapeCoreEEEPNS_11PxsCCDShapeEEESA_NS0_4HashISA_EENS1_11HashMapBaseISA_SD_SG_NS0_9AllocatorEE6GetKeyESI_Lb1EE15reserveInternalEj
FD:__ZN11UnityEngine15CloudWebService10RestClientINS0_16WWWRestHeaderMapEED2Ev
mYb:__Z58Register_UnityEngine_Object_Internal_CloneSingleWithParentv
tG:__ZN14UnityWebStream7ReleaseEv
Kse:_TextInfo_ToUpper_m299550697
cYf:_ShimEnumerator_get_Entry_m2332479818_gshared
l0c:__ZN5physx2Sc5Scene21setDominanceGroupPairEhhRKNS_20PxDominanceGroupPairE
J6:__ZN23PreloadManagerOperation21MustCompleteNextFrameEv
$ee:_Convert_ToUInt16_m3265369225
O:Math_exp
kFe:_MonoEnumInfo_get_Cache_m3551569711
so:FUNCTION_TABLE_iiifi
bZh:__ZN6il2cpp2os5posix13PosixAutoLockD2Ev
vUe:_Array_InternalArray__ICollection_Contains_TisVector3_t2243707580_m3625701788_gshared
Bca:__ZNSt3__26vectorINS_4pairIyP17VertexDeclarationEENS_9allocatorIS4_EEE6insertENS_11__wrap_iterIPKS4_EERS9_
lFh:_il2cpp_object_get_virtual_method
uDa:__ZNK17MeshRenderingData30ExtractMeshBuffersAndDrawRangeEjiR11MeshBuffersR16DrawBuffersRangeb
ltb:__Z18Transfer_BlittableI17RemapPPtrTransferLb0E8Vector2fEvRK29SerializationCommandArgumentsR31RuntimeSerializationCommandInfo
_tg:__ZL87Object_t1021602117_CustomAttributesCacheGenerator_Object_DestroyObject_m282495858____t1P21CustomAttributesCache
d_h:__ZNSt3__218uninitialized_copyIPNS_4pairIK10KeyWrapperIP14Il2CppIUnknownEjEES8_EET0_T_SA_S9_
LTc:__ZN5physx7NpScene12loadFromDescERKNS_11PxSceneDescE
xje:_Decimal_IsZero_m3557909184_AdjustorThunk
Y3d:_Char_ToString_m1401375624
AId:_MD5CryptoServiceProvider__cctor_m3309191799
vJ:__ZNK10FileSystem16LastErrorMessageEv
FWg:__Z51RuntimeInvoker_UInt32_t2149682021_Int16_t4041245914PK10MethodInfoPvPS2_
rof:_InterpreterFactory_get_NamesMapping_m3186583301
q3f:_ConfigHandler_ReadCustomProviderData_m784203316
rHd:__ZN22UnityWebRequestManager10InitializeEv
pXa:__ZN17PersistentManager24GetTypeFromPathAndFileIDERKNSt3__212basic_stringIcNS0_11char_traitsIcEENS0_9allocatorIcEEEEx
v1e:_Kernel_DwordDivMod_m3728402123
Aob:__ZN13MonoBehaviour13AwakeFromLoadE17AwakeFromLoadMode
fub:__ZL26Transfer_SimpleNativeClassI17RemapPPtrTransfer8GradientLb1EEvRK29SerializationCommandArgumentsR31RuntimeSerializationCommandInfo
QQb:__ZN12CachedWriter9InitWriteER15CacheWriterBase
JYb:__Z21UnsignedInt64ToStringy
MYd:_UTF7Decoder__ctor_m549434986
j0c:__ZN5physx14PxsAABBManager15createAggregateEPvb
Tlh:_Object_t1021602117_marshal_pinvoke
SWb:__Z36MonoBehaviour_CUSTOM_InvokeRepeatingP12Il2CppObjectP12Il2CppStringff
tRf:_InternalEnumerator_1_MoveNext_m2720582493_gshared
S9g:_List_1_IndexOf_m1434084853_gshared
Va:invoke_iiiiifiiiif
t0h:__ZN15dense_hashtableINSt3__24pairIK10KeyWrapperIPK19Il2CppGenericMethodEP10MethodInfoEES6_N6il2cpp8metadata23Il2CppGenericMethodHashEN14dense_hash_mapIS6_S9_SD_NSC_26Il2CppGenericMethodCompareENS0_9allocatorISA_EEE9SelectKeyESF_SH_E5clearEv
mnf:_Group__ctor_m4103922028
DAa:__ZN6Camera26ClearIntermediateRenderersEj
TBh:__ZNSt3__214__split_bufferI6pollfdRNS_9allocatorIS1_EEEC2EjjS4_
Vza:_UNITY_png_write_pCAL
nyi:_glLinkProgram__wrapper
k4:__ZN6prcoreL12RemapGenericI17TexFormatARGB888815TexFormatBGR888EEvPKNS_9InnerInfoE
GId:_MD5CryptoServiceProvider_ProcessFinalBlock_m1052610785
J6d:_BitArray_Set_m2878881714
ZFc:__ZN5physx7NpShape8requiresERNS_23PxProcessPxBaseCallbackE
URh:__ZN6il2cpp6icalls8mscorlib6System13Globalization11CultureInfo35construct_internal_locale_from_nameEP17Il2CppCultureInfoP12Il2CppString
mOg:__Z58RuntimeInvoker_Il2CppObject_Int32_t2071877448_Il2CppObjectPK10MethodInfoPvPS2_
Obh:__ZN18VirtActionInvoker2Ii40CustomAttributeTypedArgument_t1498197914E6InvokeEjPviS0_
mvb:__ZL22Transfer_ManagedObjectI24GenerateTypeTreeTransferLb1EEvRK29SerializationCommandArgumentsR31RuntimeSerializationCommandInfo
rgg:__ZL55COMException_t1790481504_CustomAttributesCacheGeneratorP21CustomAttributesCache
ULe:_ASN1_get_Count_m404940548
L4f:_ContextAttribute_Equals_m53324298
Vbi:_catgets
Rj:_emscripten_set_main_loop_timing
Nvh:__ZN15dense_hashtableINSt3__24pairIK10KeyWrapperI13dynamic_arrayIPK10Il2CppTypeLj4EEEPFvvEEES8_N6il2cpp8metadata19Il2CppSignatureHashEN14dense_hash_mapIS8_SB_SF_NSE_22Il2CppSignatureCompareENS0_9allocatorISC_EEE9SelectKeyESH_SJ_E12resize_deltaEjj
aMg:_WeakReference_AllocateHandle_m1783929473
Pvc:__ZN5physx2Sc21ArticulationJointCore22setTangentialStiffnessEf
Acd:__ZNK5physx20SingleAABBUpdateTask7getNameEv
tPa:__ZN14ImageReference10FlipImageYEv
bji:__ZNKSt3__210moneypunctIwLb0EE11do_groupingEv
a1a:__Z32TransferEnumWithNameForceIntSizeI14SafeBinaryRead13TargetEyeMaskEvRT_RT0_PKc17TransferMetaFlags
MEb:__ZNSt3__26vectorIN9ShaderLab20SerializedSubProgram15VectorParameterENS_9allocatorIS3_EEE8__appendEj
ape:_CultureInfo_get_Name_m3316229893
Vge:_DateTime_get_Ticks_m310281298_AdjustorThunk
pr:__ZN4FMOD3DSP9setBypassEb
UVa:__Z19NormalizeWheelInputf
_mf:_CaptureCollection_CopyTo_m1982767892
TSa:__Z29StdTemplateConversionFunctionIsaEbPvR14SafeBinaryRead
e$b:__Z29Transfer_Blittable_ArrayFieldI8JSONReadhEvRT_R9ArrayInfoRK23StaticTransferFieldInfo
uSb:__ZN11MonoManager25GetImageFromAssemblyIndexEi
yKc:__ZN5physx2Sc9ClothCore17addCollisionPlaneERKNS_21PxClothCollisionPlaneE
LMg:__Z123RuntimeInvoker_Void_t1841601450_Int32U26_t455636984_Il2CppObject_Il2CppObject_BooleanU26_t3168250738_BooleanU26_t3168250738PK10MethodInfoPvPS2_
Axa:__ZZ23InitPlayerLoopCallbacksvEN43PostLateUpdateClearImmediateRenderersstruct7ForwardEv
F1b:__Z18Transfer_BlittableI9JSONWriteLb1EtEvRK29SerializationCommandArgumentsR31RuntimeSerializationCommandInfo
Vye:_FileLoadException__ctor_m918124939
hk:___syscall85
Kpd:__ZNK5physx13PxHeightField8isKindOfEPKc
j4d:__ZN18VirtActionInvoker1IP12Il2CppObjectE6InvokeEjPvS1_
Xfa:__ZN9GfxDevice14ImmediateBeginE16GfxPrimitiveTypePK14ChannelAssigns
d2e:_SequentialSearchPrimeGeneratorBase_GenerateSearchBase_m2930465198
Nx:__ZNK11AudioSource26GetTypeInfoVirtualInternalEv
Hef:__ZN23InterfaceActionInvoker2IP12Il2CppObjectS1_E6InvokeEjP11Il2CppClassPvS1_S1_
$rh:__ZN6il2cpp2vmL21SetupInterfacesLockedEP11Il2CppClassRKNS_2os12FastAutoLockE
ZLc:__ZNK5physx15NpActorTemplateINS_15PxParticleFluidEE12getAggregateEv
lnd:__ZNK5physx2Sc18ParticleSystemCore16getInternalFlagsEv
f5a:__ZN19StreamedBinaryWriteILb0EE8TransferI13dynamic_arrayI8Vector3fLj4EEEEvRT_PKc17TransferMetaFlags
Pmf:_Capture__ctor_m885749277
Mi:_emscripten_glUniformMatrix4fv
Jec:__ZN16ControllerFilter9preFilterERKN5physx12PxFilterDataEPKNS0_7PxShapeEPKNS0_12PxRigidActorERNS0_7PxFlagsINS0_9PxHitFlag4EnumEtEE
TC:__ZN11UnityEngine15CloudWebService14DataDispatcher15SetupWebRequestEv
bVg:__Z94RuntimeInvoker_Int32_t2071877448_Il2CppObject_Int32_t2071877448_Il2CppObject_Int32_t2071877448PK10MethodInfoPvPS2_
kDe:_TextWriter__cctor_m4047845042
Bbf:_ReceiveRecordAsyncResult_get_Record_m1336421357
oEd:__ZN11UnityEngine15PlatformWrapper13GetShaderCapsEv
z8d:__ZN16VirtFuncInvoker2IbP12Il2CppObjectS1_E6InvokeEjPvS1_S1_
wbd:__ZN16MBPOS_TmpBuffers16allocateSleepingEjj
eng:__ZL76Convert_t2607082565_CustomAttributesCacheGenerator_Convert_ToByte_m509311047P21CustomAttributesCache
Uj:_emscripten_glGetProgramiv
lvb:__Z65EmitSerializationCommandsForLinearCollectionOfManagedObjectsFieldI24GenerateTypeTreeTransferEvRK23TransferArrayField_InfoR20SerializationCommandR32SerializationCommandQueueBuilderRP20AllowNameConversions
g4f:__ZN23InterfaceActionInvoker3IP12Il2CppObjectbbE6InvokeEjP11Il2CppClassPvS1_bb
YNe:_SmallXmlParser_ReadCharacters_m1966365555
jdf:_InternalAsyncResult_get_CompletedWithError_m3993955322
sPb:__ZN21FixedBehaviourManager6UpdateEv
pAa:_UNITY_png_free_data
Cdh:_ReadOnlyCollection_1_System_Collections_IList_Add_m527174473_gshared
N7:__ZN19RuntimeSceneManager24BeginIntegrateMainThreadEP10UnityScene
Ctc:__ZN5physx14NpArticulation26setExternalDriveIterationsEj
n6b:__ZN16RayRTreeCallbackILi0ELb0EED0Ev
QZg:__Z80RuntimeInvoker_Void_t1841601450_Il2CppObject_Int32_t2071877448_Int16_t4041245914PK10MethodInfoPvPS2_
Ugd:__ZN5physx20PxsParticleSystemSim23scheduleCollisionUpdateERNS_10PxBaseTaskE
B1h:__ZNSt3__2plIcNS_11char_traitsIcEENS_9allocatorIcEEEENS_12basic_stringIT_T0_T1_EERKS9_S6_
vTg:__Z53RuntimeInvoker_MonoEventInfo_t2190036573_Il2CppObjectPK10MethodInfoPvPS2_
bEe:_LocalDataStoreSlot__cctor_m1192669356
VEb:__ZN9ShaderLab20SerializedSubProgramaSERKS0_
NUd:_String_CreateString_m2556700934
k0a:__ZN18StreamedBinaryReadILb0EE21TransferSTLStyleArrayINSt3__26vectorI17SortingLayerEntryNS2_9allocatorIS4_EEEEEEvRT_17TransferMetaFlags
dvg:__ZL80Physics_t634932869_CustomAttributesCacheGenerator_Physics_RaycastAll_m3650851272P21CustomAttributesCache
zhc:__ZN5physx15PxBoxControllerD0Ev
dJf:_MonoEventInfo_t2190036573_marshal_pinvoke
ash:__ZN6il2cpp2vmL24SetupTypeHierarchyLockedEP11Il2CppClassRKNS_2os12FastAutoLockE
lHh:__ZN15dense_hashtableINSt3__24pairIK10KeyWrapperIPK10Il2CppTypeEjEES6_N6il2cpp8metadata14Il2CppTypeHashEN14dense_hash_mapIS6_jSB_NSA_17Il2CppTypeCompareENS0_9allocatorIS8_EEE9SelectKeyESD_SF_E4findERS7_
YHa:__Z20CalculateLightMatrixRK15SharedLightDataP10Matrix4x4f
Jui:_glBlendEquationSeparate__wrapper
Xhc:__ZN5physx19PxAllocatorCallbackD2Ev
d6h:__ZN6il2cpp6icalls8mscorlib6System8Security12Cryptography24RNGCryptoServiceProvider13RngInitializeEP11Il2CppArray
Rgf:_IPAddress__cctor_m3624830012
kPc:__ZNK5physx15NpActorTemplateINS_16PxParticleSystemEE17getDominanceGroupEv
Hy:__ZN20SoundChannelInstance7setMuteEb
V5a:__ZN4PPtrI5LightE8TransferI19StreamedBinaryWriteILb0EEEEvRT_
Xfc:__ZN5physx3Cct26CharacterControllerManager21createObstacleContextEv
Lif:_AsnEncodedData_EnhancedKeyUsageExtension_m1452131166
Dii:__ZNSt3__210moneypunctIcLb0EED2Ev
BBb:__Z19TransferField_ArrayI18StreamedBinaryReadILb1EE27Converter_SimpleNativeClassI17AnimationCurveTplIfEEEvRK23StaticTransferFieldInfoR31RuntimeSerializationCommandInfoRT0_
FOc:__ZN5physx15NpActorTemplateINS_15PxParticleFluidEE7releaseEv
zja:__ZN18GfxFramebufferGLES22MakeCurrentFramebufferENS_7BuiltinE
$5h:__ZN6il2cpp2vm12MarshalAlloc4FreeEPv
Tnf:_Interpreter_Close_m1500459069
XVc:__ZN5physx6shdfnd5ArrayIPNS_2Sc19ShapeInstancePairLLENS0_19ReflectionAllocatorIS4_EEE15growAndPushBackERKS4_
ylb:__ZN30RuntimeInitializeOnLoadManager23VirtualRedirectTransferER18StreamedBinaryReadILb1EE
F_:__ZN12CachedReader4ReadEPvj
Had:__ZN5physx21MBPPostUpdateWorkTaskD0Ev
ojc:__ZN5physx14PxsAABBManager19createAggregateElemEv
Qxc:__ZN5physx2Sc8BodyCore24clearSpatialAccelerationEbb
$Pf:_InternalEnumerator_1_System_Collections_IEnumerator_get_Current_m3600601141_gshared
ELd:_SHA1Internal_HashFinal_m3188468925
GPh:__ZN30dense_hashtable_const_iteratorINSt3__24pairIK10KeyWrapperIP11Il2CppClassES4_EES5_N6il2cpp8metadata16SZArrayClassHashEN14dense_hash_mapIS5_S4_SA_NS9_19SZArrayClassCompareENS0_9allocatorIS7_EEE9SelectKeyESC_SE_E30advance_past_empty_and_deletedEv
$Ha:__Z24CalculateLightShadowFadeRK6CamerafffR8Vector4f
BO:__ZN19RuntimeSceneManagerD2Ev
dqg:__ZL55HeaderHandler_t324204131_CustomAttributesCacheGeneratorP21CustomAttributesCache
w2f:_ChannelData_get_CustomProperties_m1470957369
sHh:__ZNK15dense_hashtableINSt3__24pairIK10KeyWrapperIPK10Il2CppTypeEjEES6_N6il2cpp8metadata14Il2CppTypeHashEN14dense_hash_mapIS6_jSB_NSA_17Il2CppTypeCompareENS0_9allocatorIS8_EEE9SelectKeyESD_SF_E12test_deletedEj
E3:__ZN6prcore17GetIntegerBlitterE13TextureFormatS0_N14ImageReference8BlitModeE
QVc:__ZN5physx10PxsContext20createContactManagerERKNS_24PxvManagerDescRigidRigidEPNS_18PxsMaterialManagerE
AXf:_Enumerator_VerifyState_m3173176371_AdjustorThunk
bUc:__ZN5physx2Cm12DelegateTaskINS_7NpSceneEXadL_ZNS2_12executeSolveEPNS_10PxBaseTaskEEEED0Ev
W6b:__ZN5physx2GuL18gPCMHullPrefetchCBEjPKNS_6PxVec3E
Lnc:__ZN5physx2Sc5Scene31removeActiveBreakableConstraintEPNS0_13ConstraintSimE
Uff:_TypeConverterAttribute__cctor_m506796812
BWd:_Encoding_get_IsReadOnly_m3729101432
T$e:_Array_InternalArray__get_Item_TisILTokenInfo_t149559338_m2004750537_gshared
DLg:_ValueType_t3507792607_marshal_pinvoke_back
mWf:_Comparer_1_System_Collections_IComparer_Compare_m1790257529_gshared
gIf:_MethodInfo_get_ContainsGenericParameters_m572340060
m_c:__ZN5physx6shdfnd5ArrayINS_12PxActorShapeENS0_19ReflectionAllocatorIS2_EEE15growAndPushBackERKS2_
Sua:__ZN25MultiBlocksMemoryFileData17AdjustBlocksCountEj
WX:__ZNK22BuiltinResourceManager11GetResourceEPKN5Unity4TypeERKNSt3__212basic_stringIcNS4_11char_traitsIcEENS4_9allocatorIcEEEE
$6e:_TlsClientHello__ctor_m1699671541
Sda:__ZN9GfxDevice26UpdateViewProjectionMatrixEv
eV:__ZN17CommonStringTableC2Ev
e4f:_Context_NotifyGlobalDynamicSinks_m2916447645
EVb:__Z27CullingGroup_CUSTOM_DisposeP12Il2CppObject
B1g:__Z48RuntimeInvoker_Void_t1841601450_Mark_t2724874473PK10MethodInfoPvPS2_
zCc:__ZN5physx2Sc14ConstraintCore8setFlagsENS_7PxFlagsINS_16PxConstraintFlag4EnumEtEE
uVf:_InternalEnumerator_1_get_Current_m1715820327_gshared
rm:_glStencilMask
CZh:__ZN6il2cpp2os10ThreadImpl16GetCurrentThreadEv
Eod:__ZNK5physx2Sc15ClothFabricCore20getNbParticleIndicesEv
j8d:_Hashtable__ctor_m2337481811
fXf:_Enumerator_System_Collections_IEnumerator_get_Current_m2010873149_gshared
nbg:__ZL88Type_t_CustomAttributesCacheGenerator_Type_MakeGenericType_m2765875033____typeArguments0P21CustomAttributesCache
jrf:_RealProxy__ctor_m2505535530
I3h:_GC_push_conditional_with_exclusions
tJg:_UInt32_System_IConvertible_ToUInt16_m2798641702_AdjustorThunk
qtf:_BinaryFormatter_get_DefaultSurrogateSelector_m219714691
Ivd:__ZN8Collider23VirtualRedirectTransferER18StreamedBinaryReadILb1EE
xD:__ZN11UnityEngine15CloudWebService10RestClientINS0_16WWWRestHeaderMapEE6SetUrlERK8UnityStr
WCf:_ILGenerator_label_fixup_m1325994348
E3e:_MD4Managed_Encode_m2097839378
xHh:__ZN15dense_hashtableINSt3__24pairIK10KeyWrapperIPK10Il2CppTypeEjEES6_N6il2cpp8metadata14Il2CppTypeHashEN14dense_hash_mapIS6_jSB_NSA_17Il2CppTypeCompareENS0_9allocatorIS8_EEE9SelectKeyESD_SF_E8min_sizeEjj
w0g:__Z57RuntimeInvoker_Boolean_t3825574718_LabelFixup_t4090909514PK10MethodInfoPvPS2_
JKf:_MonoProperty_GetOptionalCustomModifiers_m3827844355
B0e:_Component_GetComponents_TisIl2CppObject_m1073237913_gshared
LLf:__ZN16VirtFuncInvoker0IP18Stream_t3255436806E6InvokeEjPv
bnc:__ZN5physx2Sc7BodySim6wakeUpEv
aJe:_SimpleCollator_GetSortKey_m2188419329
GVc:__ZN5physx6shdfnd8PoolBaseINS_2Gu30LargePersistentContactManifoldENS0_19ReflectionAllocatorIS3_EEE17releaseEmptySlabsEv
ync:__ZN5physx2Sc21ConstraintInteraction7destroyEv
Qwd:__ZN14SphereCollider6CreateEPK9Rigidbody
gYb:__Z27Object_CUSTOM_DestroyObjectP12Il2CppObjectf
c8c:__ZN5physx13PxsSolverCoreD2Ev
Wji:__ZNSt3__211__money_putIwE8__formatEPwRS2_S3_jPKwS5_RKNS_5ctypeIwEEbRKNS_10money_base7patternEwwRKNS_12basic_stringIcNS_11char_traitsIcEENS_9allocatorIcEEEERKNSE_IwNSF_IwEENSH_IwEEEESQ_i
iUa:__ZN16MemoryFileSystem6ParentERK13FileEntryDataRNSt3__212basic_stringIcNS3_11char_traitsIcEENS3_9allocatorIcEEEE
pkb:__ZN14PlayerSettings8TransferI18StreamedBinaryReadILb0EEEEvRT_
kDh:__ZN6il2cpp6icalls8mscorlib6System8MonoType16GetMethodsByNameEP20Il2CppReflectionTypeP12Il2CppStringibS5_
ajh:_AnimationPlayable_op_Implicit_m408821639
cvh:__ZN15dense_hashtableI10KeyWrapperIPK19Il2CppGenericMethodES4_N6il2cpp8metadata23Il2CppGenericMethodHashEN14dense_hash_setIS4_S7_NS6_26Il2CppGenericMethodCompareENSt3__29allocatorIS4_EEE8IdentityES9_SC_E4swapERSF_
kXc:__ZNK5physx7NpScene16getNbConstraintsEv
hJc:__ZN5physx7NpCloth14setWakeCounterEf
Rab:__ZN4PPtrI10GameObjectE8TransferI14SafeBinaryReadEEvRT_
Hug:__ZL105Physics_t634932869_CustomAttributesCacheGenerator_Physics_Raycast_m2036777053____queryTriggerInteraction5P21CustomAttributesCache
Gca:__ZNSt3__27__sort3IRNS_4lessIN22BuiltinResourceManager8ResourceEEEPS3_EEjT0_S7_S7_T_
XVf:_DefaultComparer_Compare_m3472472212_gshared
uze:_MonoIO_GetLength_m2812344043
twg:__ZL68UsedByNativeCodeAttribute_t3212052468_CustomAttributesCacheGeneratorP21CustomAttributesCache
Ygb:__ZN10BlendShape8TransferI19StreamedBinaryWriteILb0EEEEvRT_
UZ:__ZL4WalkRK16TypeTreeIteratorR12CachedReaderPib
Vpd:__ZNK5physx2Gu11HeightField17getReferenceCountEv
Xr:__Z32TransferEnumWithNameForceIntSizeI14SafeBinaryReadN10SampleClip8LoadTypeEEvRT_RT0_PKc17TransferMetaFlags
xX:__Z19GetTimeSinceStartupv
A$:__ZN7Texture23VirtualRedirectTransferER17RemapPPtrTransfer
cRd:_SecurityFrame_get_Assembly_m2816566490
CHf:_FieldInfo_GetPseudoCustomAttributes_m2500972355
Lic:__ZN5physx3Scb5Scene10getPxSceneEv
uQa:__Z33MultiplyMatrixArrayWithBase4x4REFPK10Matrix4x4fS1_S1_PS_j
ZMg:__Z51RuntimeInvoker_Boolean_t3825574718_Int64_t909078037PK10MethodInfoPvPS2_
X_d:_Array_Sort_m2994254654
nBf:_Default_CompareCloserType_m1367126249
QJa:__ZN29RenderNodeQueuePrepareContextC2Ev
nGb:__ZN9ShaderLab20SerializedSubProgram16TextureParameter8TransferI24GenerateTypeTreeTransferEEvRT_
gEg:_Thread_set_Name_m1343706609
r8h:__ZN6il2cpp2os11MutexHandle4WaitEj
qTb:__ZL34GetComponentsImplementationRecurseILb1ELi1ELi1EEbR10GameObjectbRK17CompareParametersRK39GetComponentsImplementation_ReturnValue
q8h:__ZN6il2cpp2os11MutexHandle4WaitEv
s4d:_ArrayList_set_Capacity_m592558035
t5:__ZN6prcoreL17RemapGenericFloatI15TexFormatRGHalf18TexFormatARGBFloatEEvPKNS_9InnerInfoE
oFe:_MonoEnumInfo_t2335995564_marshal_pinvoke_cleanup
vZ:__ZNK13RenderTexture13GetDataHeightEv
wAa:__ZN13RenderManager23AddRemoveCamerasDelayedEv
Xza:_UNITY_png_write_pHYs
A6:__ZN23PreloadManagerOperation11GetPriorityEv
xne:_Exception_get_InnerException_m3722561235
UUe:_Array_InternalArray__ICollection_Remove_TisILTokenInfo_t149559338_m1523907845_gshared
CBd:__ZNK5Unity5Joint16GetCurrentForcesER8Vector3fS2_
Owg:__ZN21InterfaceFuncInvoker4IP17Match_t3164245899P17Regex_t1803876613P8String_tiiE6InvokeEjP11Il2CppClassPvS3_S5_ii
C8d:_Hashtable_Rehash_m2877670513
ASh:__ZN6il2cpp2vm8Liveness3EndEPv
PMa:__ZN13RenderTexture8SetWidthEi
eLb:__ZNK28RectTransformPropertyBinding12SetPPtrValueERKN11UnityEngine9Animation10BoundCurveEi
yyb:__Z18Transfer_BlittableI18StreamedBinaryReadILb0EELb0EfEvRK29SerializationCommandArgumentsR31RuntimeSerializationCommandInfo
jhb:__ZN10MeshFilterD0Ev
yUd:_Encoding_get_ISOLatin1_m151504502
lVg:__Z132RuntimeInvoker_Int32_t2071877448_Il2CppObject_Int32_t2071877448_Int32_t2071877448_Il2CppObject_Int32_t2071877448_Int32U26_t455636984PK10MethodInfoPvPS2_
QXe:_Array_InternalArray__ICollection_Add_TisCustomAttributeTypedArgument_t1498197914_m3260005285_gshared
p9d:_SyncHashtable_GetObjectData_m3774367030
bte:_Guid_GetHashCode_m1401300871
lfg:__ZL61CallingConventions_t1097349142_CustomAttributesCacheGeneratorP21CustomAttributesCache
gFc:__ZNK5physx9NpFactory11getNbShapesEv
aNg:__Z140RuntimeInvoker_Boolean_t3825574718_Il2CppObject_Int32_t2071877448_Il2CppObject_SByte_t454417549_Int64U26_t763825331_ExceptionU26_t1467204777PK10MethodInfoPvPS2_
zyh:__ZL23UnresolvedVirtualCall_5P12Il2CppObjectsPK10MethodInfo
gM:__ZN9ShaderLab16FastPropertyName4InitEPKc
TR:__Z18PathToAbsolutePathRKNSt3__212basic_stringIcNS_11char_traitsIcEENS_9allocatorIcEEEE
mJh:__ZN15dense_hashtableINSt3__24pairIK10KeyWrapperINS1_IPK12PropertyInfoP11Il2CppClassEEEjEES9_17ReflectionMapHashIS8_EN14dense_hash_mapIS9_jSD_19ReflectionMapEqualsIS8_ENS0_9allocatorISB_EEE9SelectKeyESG_SI_E13clear_deletedER30dense_hashtable_const_iteratorISB_S9_SD_SK_SG_SI_E
qKb:__Z13RegisterClassIN2UI13RectTransformEEvv
yIe:_MSCompatUnicodeTable_ToWidthCompat_m2299599532
eHe:_NumberFormatter_get_IsFloatingSource_m2830957202
rgb:__ZN10VertexData8TransferI17RemapPPtrTransferEEvRT_
TMa:__ZN13RenderTexture9SetMipMapEb
hgi:__ZNKSt3__27num_getIwNS_19istreambuf_iteratorIwNS_11char_traitsIwEEEEE6do_getES4_S4_RNS_8ios_baseERjRl
lgi:__ZNKSt3__27num_getIwNS_19istreambuf_iteratorIwNS_11char_traitsIwEEEEE6do_getES4_S4_RNS_8ios_baseERjRm
ggi:__ZNKSt3__27num_getIwNS_19istreambuf_iteratorIwNS_11char_traitsIwEEEEE6do_getES4_S4_RNS_8ios_baseERjRb
ghd:__ZN5physx2Sc10ClothShape21updateBoundsInAABBMgrEv
pgi:__ZNKSt3__27num_getIwNS_19istreambuf_iteratorIwNS_11char_traitsIwEEEEE6do_getES4_S4_RNS_8ios_baseERjRe
NHe:_OperatingSystem_GetObjectData_m2276196875
u$a:__ZNK10TagManager26GetTypeInfoVirtualInternalEv
igi:__ZNKSt3__27num_getIwNS_19istreambuf_iteratorIwNS_11char_traitsIwEEEEE6do_getES4_S4_RNS_8ios_baseERjRx
mgi:__ZNKSt3__27num_getIwNS_19istreambuf_iteratorIwNS_11char_traitsIwEEEEE6do_getES4_S4_RNS_8ios_baseERjRy
tnh:_ResourceRequest_t2560315377_marshal_pinvoke_back
KTh:__ZN6il2cpp2vm9Exception20GetTypeLoadExceptionEv
jgi:__ZNKSt3__27num_getIwNS_19istreambuf_iteratorIwNS_11char_traitsIwEEEEE6do_getES4_S4_RNS_8ios_baseERjRt
mgg:__ZL66CriticalFinalizerObject_t1920899984_CustomAttributesCacheGeneratorP21CustomAttributesCache
Rla:__ZN7ApiGLES19UploadBufferSubDataEjN2gl12BufferTargetEllPKv
n5c:__ZN5physx2Sc5Scene17createClothSolverEv
CSd:_String_System_IConvertible_ToInt32_m1927223638
Pmi:__ZdaPv
nNc:__ZNK5physx15PxsParticleData16getMaxParticlesVEv
Oxf:_CryptographicException__ctor_m406825529
qyd:__ZThn116_N5physx7profile8ZoneImplINS_28PxProfileNameProviderForwardEE12removeClientERNS_19PxProfileZoneClientE
Lad:__ZN15MBP_PairManager17removeMarkedPairsEPK10MBP_ObjectPN5physx16PxsBroadPhaseMBPERK8BitArrayS8_
xxh:__ZNSt3__26__treeINS_12__value_typeIP11Il2CppClassS3_EENS_19__map_value_compareIS3_S4_NS_4lessIS3_EELb1EEENS_9allocatorIS4_EEE25__emplace_unique_key_argsIS3_JNS_4pairIS3_S3_EEEEENSD_INS_15__tree_iteratorIS4_PNS_11__tree_nodeIS4_PvEEiEEbEERKT_DpOT0_
HUd:_ASCIIEncoding__ctor_m4127831672
Lsb:__Z19TransferField_ArrayI14SafeBinaryRead27Converter_SimpleNativeClassI8GUIStyleEEvRK23StaticTransferFieldInfoR31RuntimeSerializationCommandInfoRT0_
mob:__ZN9TextAsset23VirtualRedirectTransferER19StreamedBinaryWriteILb0EE
$Wd:_UTF8Encoding__ctor_m3336862259
j6h:__ZN6il2cpp5utils10MemoryPoolC2Ej
U$g:__Z54RuntimeInvoker_Boolean_t3825574718_HitInfo_t1761367055PK10MethodInfoPvPS2_
f6h:__ZN6il2cpp5utils10MemoryPoolC2Ev
v5a:__ZN14RenderSettings5ResetEv
FEc:__ZN5physx9NpPhysics33unregisterDeletionListenerObjectsERNS_18PxDeletionListenerEPKPKNS_6PxBaseEj
fLc:__ZNK5physx2Sc9ClothCore22getAngularInertiaScaleEv
Jhi:__ZNKSt3__28time_getIcNS_19istreambuf_iteratorIcNS_11char_traitsIcEEEEE13__get_weekdayERiRS4_S4_RjRKNS_5ctypeIcEE
xLh:__ZN14dense_hash_mapI10KeyWrapperINSt3__24pairIPK12PropertyInfoP11Il2CppClassEEEj17ReflectionMapHashIS8_E19ReflectionMapEqualsIS8_ENS1_9allocatorINS2_IKS9_jEEEEE15set_deleted_keyERSF_
aRg:__Z117RuntimeInvoker_Int32_t2071877448_Il2CppObject_Il2CppObject_Int32_t2071877448_Int32_t2071877448_BooleanU26_t3168250738PK10MethodInfoPvPS2_
nwc:__ZN5physx20NpRigidActorTemplateINS_18PxArticulationLinkEE12setActorFlagENS_11PxActorFlag4EnumEb
e$e:_Dictionary_2_Do_ICollectionCopyTo_TisKeyValuePair_2_t3716250094_m1740410536_gshared
mZh:__ZN6il2cpp2os10ThreadImplD2Ev
cPe:_RSAManaged_Dispose_m3018788098
I0b:__ZN8Gradient8TransferI9JSONWriteEEvRT_
qce:_DateTime_ToUniversalTime_m1815024752
M4g:_X509CertificateEnumerator_MoveNext_m1422952050
vff:_NameObjectCollectionBase_get_Count_m2353593692
yPh:__ZN15dense_hashtableINSt3__24pairIK10KeyWrapperIP11Il2CppClassES4_EES5_N6il2cpp8metadata16SZArrayClassHashEN14dense_hash_mapIS5_S4_SA_NS9_19SZArrayClassCompareENS0_9allocatorIS7_EEE9SelectKeyESC_SE_E9copy_fromERKSH_j
cVa:__ZNK12TLSAllocatorI14StackAllocatorE22GetAllocatedMemorySizeEv
efg:__ZL54AssemblyName_t894705941_CustomAttributesCacheGeneratorP21CustomAttributesCache
mfe:_Convert_ToUInt32_m3394039268
ySb:__Z32GetSceneHierarchyPathDescriptivePK6Object
Nfb:__ZNSt3__26vectorI7SubMesh13stl_allocatorIS1_L18MemLabelIdentifier16ELi16EEEC2ERKS5_
jy:__ZNK7WeakPtrI20SoundChannelInstanceE10SharedData9GetRawPtrEv
cta:__ZN12HandlerChain4NameEv
Cm:FUNCTION_TABLE_fiiiiiifiiiiiif
Hib:__ZNSt3__26vectorI9InputAxisNS_9allocatorIS1_EEE10deallocateEv
_jd:__ZN5physx37setupFinalizeSolverConstraintsCoulombERNS_13PxcNpWorkUnitERKNS_2Gu13ContactBufferERKNS_27PxcCorrelationBufferCoulombERKNS_11PxTransformESB_bPhRKNS_13PxcSolverBodyESF_RKNS_17PxcSolverBodyDataESI_ffjffff
Zte:_Int16_Equals_m3925135434_AdjustorThunk
Qt:__ZN12AudioManager8TransferI18StreamedBinaryReadILb1EEEEvRT_
Ycg:__ZL60IHashCodeProvider_t1980576455_CustomAttributesCacheGeneratorP21CustomAttributesCache
_zh:__ZL24UnresolvedVirtualCall_86P12Il2CppObjectxS0_xPK10MethodInfo
tTa:__Z29StdTemplateConversionFunctionIbbEbPvR14SafeBinaryRead
m6e:_CipherSuiteCollection_get_Item_m280627160
$be:_DateTime__ParseString_m2623687350
Bqf:_SerializationInfoEnumerator_MoveNext_m1876990879
NFg:_TimeSpan_Duration_m4205681645
MQa:__ZN14UnityWebStream24UpdateAllUnityWebStreamsEv
Bbg:__ZL60ObsoleteAttribute_t3878847927_CustomAttributesCacheGeneratorP21CustomAttributesCache
M9c:__ZN5physx31ComputeCreatedDeletedPairsListsEPKjS1_jRPNS_17PxcBroadPhasePairERjS5_S4_S5_S5_RNS_14SapPairManagerE
K7:__ZN18LoadSceneOperation21MustCompleteNextFrameEv
xw:__ZNK12AudioManager16GetAudioListenerEv
jJf:_MonoField_get_FieldType_m598011426
xSb:__ZNSt3__2plIcNS_11char_traitsIcEE13stl_allocatorIcL18MemLabelIdentifier1ELi16EEEENS_12basic_stringIT_T0_T1_EERKSA_SC_
aXa:__ZN18AssetBundleManager30CollectPreloadDataDependenciesER4PPtrI11AssetBundleEbR13dynamic_arrayIiLj4EE
Bsg:__ZL48Camera_t189460977_CustomAttributesCacheGeneratorP21CustomAttributesCache
dRh:__ZNSt3__212basic_stringIcNS_11char_traitsIcEENS_9allocatorIcEEE6__initINS_11__wrap_iterIPcEEEENS_9enable_ifIXsr21__is_forward_iteratorIT_EE5valueEvE4typeESB_SB_
Oed:__ZN5physx2Gu16pcmContactBoxBoxERKNS0_13GeometryUnionES3_RKNS_11PxTransformES6_RKfRNS0_5CacheERNS0_13ContactBufferE
qJg:_UInt32_System_IConvertible_ToType_m747769316
Yui:_glDeleteVertexArrays__wrapper
Fxb:__Z29Transfer_Blittable_ArrayFieldI19StreamedBinaryWriteILb0EEjEvRT_R9ArrayInfoRK23StaticTransferFieldInfo
jJ:__Z13GetFileSystemv
Oba:__ZNK5Unity4Type21FindAllDerivedClassesER13dynamic_arrayIPKS0_Lj4EENS0_17TypeFilterOptionsE
Wxb:__ZL12InvokeMethodI18StreamedBinaryReadILb0EEEvRK29SerializationCommandArgumentsR31RuntimeSerializationCommandInfo
Ere:_DaylightTime_get_Delta_m2316831491
vxd:__ZN15RaycastCallback14processTouchesEPKN5physx12PxRaycastHitEj
bFg:_WaitHandle_WaitOne_m370363697
hnf:_FactoryCache_Lookup_m1681894361
fei:__ZNSt3__215basic_streambufIcNS_11char_traitsIcEEED2Ev
xhe:_DateTime_Subtract_m698282245_AdjustorThunk
grd:__ZN5physx2Gu5RTree15exportExtraDataERNS_22PxSerializationContextE
iha:__ZNK9GfxDevice14IsPureThreadedEv
Lji:__ZNSt3__29money_putIcNS_19ostreambuf_iteratorIcNS_11char_traitsIcEEEEED2Ev
HJd:_RIPEMD160Managed_Initialize_m3365407578
Vji:__ZNSt3__211__money_putIwE13__gather_infoEbbRKNS_6localeERNS_10money_base7patternERwS8_RNS_12basic_stringIcNS_11char_traitsIcEENS_9allocatorIcEEEERNS9_IwNSA_IwEENSC_IwEEEESJ_Ri
Qgf:_IPAddress_HostToNetworkOrder_m1092199707
w4c:__ZNK5physx2Sq10AABBPruner7overlapERKNS0_9ShapeDataERNS0_14PrunerCallbackE
GOd:_SecurityAttribute__ctor_m3425755778
B5a:__ZN14RenderSettings23VirtualRedirectTransferER18StreamedBinaryReadILb1EE
HVc:__ZN5physx6shdfnd5ArrayIPvNS0_19ReflectionAllocatorINS_2Gu30LargePersistentContactManifoldEEEE4copyINS0_15InlineAllocatorILj256ES6_EEEEvRKNS1_IS2_T_EE
Qf:_glCheckFramebufferStatus
wUg:__Z57RuntimeInvoker_Il2CppObject_Il2CppObject_Byte_t3683104436PK10MethodInfoPvPS2_
lVf:_InternalEnumerator_1_System_Collections_IEnumerator_get_Current_m790514740_AdjustorThunk
ymd:__ZN5physx2Cm12DelegateTaskINS_2Sc5SceneEXadL_ZNS3_19updateCCDSinglePassEPNS_10PxBaseTaskEEEE11runInternalEv
Nhc:__ZN5physx6string9sprintf_sEPcjPKcz
aud:__ZThn8_N5physx19TriangleMeshBuilderD1Ev
FYb:__Z19ConcatWithSeparatorRKNSt3__212basic_stringIcNS_11char_traitsIcEE13stl_allocatorIcL18MemLabelIdentifier1ELi16EEEES8_S8_
h2e:__ZN16VirtFuncInvoker2IbP21BigInteger_t925946153P12Il2CppObjectE6InvokeEjPvS1_S3_
Sac:__ZN5physx2Gu16intersectRayAABBERKNS_6PxVec3ES3_S3_S3_RfS4_
bdb:__ZN9Transform23VirtualRedirectTransferER17RemapPPtrTransfer
Vbg:__ZL57TypedReference_t1025199857_CustomAttributesCacheGeneratorP21CustomAttributesCache
DWe:_Array_InternalArray__IndexOf_TisByte_t3683104436_m3605266236_gshared
Efi:__ZNKSt3__26locale5__imp9use_facetEl
TQd:_UnicodeEncoding__ctor_m72484327
gkd:__ZN5physx30setupFinalizeSolverConstraintsERNS_13PxcNpWorkUnitERKNS_2Gu13ContactBufferERKNS_20PxcCorrelationBufferERKNS_11PxTransformESB_bPhRKNS_13PxcSolverBodyESF_RKNS_17PxcSolverBodyDataESI_ffffff
Y9f:__ZL74Il2CppArray_CustomAttributesCacheGenerator_Array_GetUpperBound_m1352329707P21CustomAttributesCache
tBc:__ZN5physx7NpScene17releaseBatchQueryEPNS_12PxBatchQueryE
ZMh:__ZN6il2cpp2gc9AllocatorIP12Il2CppThreadE10deallocateEPvj
dTc:__ZN5physx20NpRigidActorTemplateINS_13PxRigidStaticEE11attachShapeERNS_7PxShapeE
zjd:__ZN5physx26solveVBlockDefaultFrictionEPNS_13PxsSolverCoreEfjjPNS_13PxcSolverBodyEPNS_17PxcSolverBodyDataEjjPNS_25PxcArticulationSolverDescEjPNS_23PxcSolverConstraintDescEjS9_jRNS_6shdfnd5ArrayINS_24PxsConstraintBatchHeaderENSA_19ReflectionAllocatorISC_EEEESG_PNS_2Cm13SpatialVectorEPNS_25PxcThresholdStreamElementEjRj
TZh:__ZN15dense_hashtableINSt3__24pairIK10KeyWrapperIP14Il2CppIUnknownEjEES5_N6il2cpp5utils11PointerHashIS3_EEN14dense_hash_mapIS5_jSB_NS0_8equal_toIS5_EENS0_9allocatorIS7_EEE9SelectKeyESE_SG_E16reset_thresholdsEv
g8e:_ClientSessionInfo_SetContext_m2649357891
RTa:__ZNSt3__26__treeINS_12__value_typeINS_12basic_stringIcNS_11char_traitsIcEE13stl_allocatorIcL18MemLabelIdentifier54ELi16EEEEPN16MemoryFileSystem4NodeEEENS_19__map_value_compareIS8_SC_NS_4lessIS8_EELb1EEES5_ISC_LS6_54ELi16EEE12__find_equalIS8_EERPNS_16__tree_node_baseIPvEESO_RKT_
Jzc:__ZN5physx15NpActorTemplateINS_18PxArticulationLinkEE17resolveReferencesERNS_24PxDeserializationContextE
EOg:__Z69RuntimeInvoker_Boolean_t3825574718_Il2CppObject_DoubleU26_t1208767207PK10MethodInfoPvPS2_
Cdf:_SslStreamBase_InternalReadCallback_m2524917586
KS:__ZN8Remapper6RemoveEi
b1c:__ZN5physx19NpRigidBodyTemplateINS_18PxArticulationLinkEE9visualizeERNS_2Cm12RenderOutputEPNS_7NpSceneE
H8c:__ZN5physx11writeBack1DERKNS_23PxcSolverConstraintDescERNS_16PxcSolverContextERNS_17PxcSolverBodyDataES6_
FHg:_Type_get_ContainsGenericParameters_m505913180
s6b:__ZThn4_N16RayRTreeCallbackILi0ELb0EED0Ev
FMa:__ZN15ReflectionProbe17UseRendererResultEP13ProbeRenderer
D_d:_Array_BinarySearch_m3270245097
FWb:__Z34Mesh_CUSTOM_SetArrayForChannelImplP12Il2CppObject30InternalScriptingShaderChannel34InternalScriptingVertexChannelTypeiP11Il2CppArrayi
Fye:_MonoIO_DeleteFile_m3273821223
iKe:_BigInteger_GenerateRandom_m2507308768
nge:_DateTime_System_IConvertible_ToDouble_m1431748426_AdjustorThunk
fuf:__ZN16VirtFuncInvoker0IdE6InvokeEjPv
nUe:_Array_InternalArray__ICollection_Contains_TisUInt16_t986882611_m510319131_gshared
V$c:__ZNK5physx2Sc5Scene20getNbParticleSystemsEv
Nje:_Decimal_ToString_m541380585
Vnf:_RepeatContext_get_Previous_m808449037
SVg:__Z60RuntimeInvoker_DateTime_t693205669_Il2CppObject_Il2CppObjectPK10MethodInfoPvPS2_
yEh:_il2cpp_class_is_valuetype
C3c:__ZN5physx2Gu17GetGeomSweepFuncsEv
qpc:__ZN5physx6shdfnd8PoolBaseINS_15PxsArticulationENS0_16AlignedAllocatorILj64ENS0_9AllocatorEEEE17releaseEmptySlabsEv
Sme:_Enum_ToObject_m2601523252
adf:_InternalAsyncResult_get_FromWrite_m2893408424
Trh:__ZN6il2cpp2vm5Class15GetElementClassEP11Il2CppClass
S_f:_Dictionary_2_CopyToCheck_m2147716750_gshared
FLa:__Z20RenderSceneDepthPassRK19SharedRendererSceneRK17ShaderReplaceDatabR17ShaderPassContext
Dli:__ZNKSt3__25ctypeIwE10do_tolowerEPwPKw
KMc:__ZN5physx22NpParticleBaseTemplateINS_15PxParticleFluidENS_15NpParticleFluidEE23setParticleReadDataFlagENS_22PxParticleReadDataFlag4EnumEb
hpd:__ZNK5physx2Gu10ConvexMesh11getVerticesEv
R2a:__ZN16GraphicsSettings8TransferI17RemapPPtrTransferEEvRT_
Y1e:_BigInteger_op_LessThanOrEqual_m3528380540
SBe:_StreamReader__ctor_m2654332332
wQ:__Z28scripting_method_is_instance21ScriptingMethodIl2Cpp
jEb:__ZNSt3__26vectorIN9ShaderLab20SerializedSubProgram14ConstantBufferENS_9allocatorIS3_EEE18__construct_at_endINS_11__wrap_iterIPS3_EEEENS_9enable_ifIXsr21__is_forward_iteratorIT_EE5valueEvE4typeESC_SC_j
oeh:_Predicate_1_BeginInvoke_m3556950370_gshared
mGc:__ZN5physx2Gu5Debug9visualizeERKNS_13PxBoxGeometryERNS_2Cm12RenderOutputERKNS5_8Matrix34ERKNS_9PxBounds3Eyfj
DXd:_StringBuilder_ToString_m617673931
Nda:__ZNK13GfxDeviceGLES12GetWireframeEv
Cxh:__ZN15dense_hashtableINSt3__24pairIK10KeyWrapperIPK19Il2CppGenericMethodEPK26Il2CppGenericMethodIndicesEES6_N6il2cpp8metadata23Il2CppGenericMethodHashEN14dense_hash_mapIS6_SA_SE_NSD_26Il2CppGenericMethodCompareENS0_9allocatorISB_EEE9SelectKeyESG_SI_E4findERS7_
P4b:__ZN5physx6shdfnd5ArrayIPKvNS0_19ReflectionAllocatorIS3_EEE6resizeEjRKS3_
bfa:__ZN9GfxDevice18AllocRenderSurfaceEb
mkd:__ZN5physx31setupFinalizeSolverConstraints4EPNS_21PxcSolverContact4DescERNS_18PxcNpThreadContextEPhffRKNS_6shdfnd3aos5Vec4VES9_S9_S9_
VXc:__ZN5physx7NpScene5flushEb
Nzg:_AnchorInfo_get_IsComplete_m1247624133
fO:__ZL27CleanupCoreScriptingClassesv
n0f:__ZN16VirtFuncInvoker1Ii38CustomAttributeNamedArgument_t94157543E6InvokeEjPvS0_
w5b:__ZN5physx2Gu13GeometryUnion3setERKNS_10PxGeometryE
Hfc:__ZThn8_N5physx3Cct17CapsuleController15getPxControllerEv
xWb:__Z26AnimationCurve_CUSTOM_InitP12Il2CppObjectP11Il2CppArray
CKh:__ZN6il2cpp2vm10Reflection7IsEventEP12Il2CppObject
nxh:__ZNSt3__26__treeINS_12__value_typeIPFvvEPK10MethodInfoEENS_19__map_value_compareIS3_S7_NS_4lessIS3_EELb1EEENS_9allocatorIS7_EEE16__insert_node_atEPNS_16__tree_node_baseIPvEERSI_SI_
lP:__ZN17PersistentManager26GetStreamNameSpaceInternalEi
es:__ZN4FMOD6System11createSoundEPKcjP22FMOD_CREATESOUNDEXINFOPPNS_5SoundE
sZd:_Exception_set_HResult_m2376998645
K1e:__ZN16VirtFuncInvoker1IP21BigInteger_t925946153iE6InvokeEjPvi
qlh:_Object_Destroy_m4145850038
GV:__ZNSt3__26__treeINS_12__value_typeINS_12basic_stringIcNS_11char_traitsIcEENS_9allocatorIcEEEEiEENS_19__map_value_compareIS7_S8_NS_4lessIS7_EELb1EEENS5_IS8_EEE7destroyEPNS_11__tree_nodeIS8_PvEE
IOh:__ZN6il2cpp2vm4Type14IsSystemDBNullEPK10Il2CppType
UTb:__ZN9Scripting28CreateEngineScriptableObjectEP12Il2CppObject
Kyd:__ZThn128_N5physx7profile8ZoneImplINS_28PxProfileNameProviderForwardEED1Ev
TM:__ZN9ShaderLab19CommonPropertyNames13StaticCleanupEPv
S4c:__ZN5physx2Sq17AABBTreeUpdateMap10invalidateEjjRNS0_8AABBTreeE
Dza:_unity_z_zcfree
Bjd:__ZN5physx28solveParallelDefaultFrictionERNS_18PxsDynamicsContextEjjPNS_13PxcSolverBodyEPNS_17PxcSolverBodyDataEjjPNS_25PxcArticulationSolverDescEjPNS_23PxcSolverConstraintDescEjS9_jPiSA_SA_SA_SA_SA_PNS_25PxcThresholdStreamElementEjSA_PNS_2Cm13SpatialVectorEPKPNS_11PxsBodyCoreERNSD_10BitMapBaseINS_6shdfnd9AllocatorEEEPKPNS_15PxsArticulationEjPViRNSL_5ArrayINS_24PxsConstraintBatchHeaderENSL_19ReflectionAllocatorISW_EEEES10_RNSV_IjNSX_IjEEEES13_PPNS_12PxsRigidBodyEj
Bti:_glStencilOpSeparate__wrapper
pRb:__ZN4Mesh5SetUvEiPKfjj
j8:__ZN7Texture13SetAnisoLimitENS_20AnisotropicFilteringE
z8:__ZN28LightProbeProxyVolumeManager25UpdateSHCoeffsTextureDataER21LightProbeProxyVolume
Gta:__Z18CreateDecompressor15CompressionType18MemLabelIdentifier
vA:__ZN11AudioModule16SetListenerPauseEb
Jh:_emscripten_glCompressedTexSubImage2D
hna:__ZN13GfxDeviceGLES22MemoryBarrierImmediateEyN2gl17MemoryBarrierTypeE
lJh:__ZNK15dense_hashtableINSt3__24pairIK10KeyWrapperINS1_IPK12PropertyInfoP11Il2CppClassEEEjEES9_17ReflectionMapHashIS8_EN14dense_hash_mapIS9_jSD_19ReflectionMapEqualsIS8_ENS0_9allocatorISB_EEE9SelectKeyESG_SI_E12test_deletedEj
Tya:_UNITY_png_error
RSh:__ZN6il2cpp6icalls8mscorlib6System4Type18internal_from_nameEP12Il2CppStringbb
I5:__ZN6prcoreL26RemapGenericFloatToIntegerI18TexFormatARGBFloat17TexFormatARGB8888EEvPKNS_9InnerInfoE
$0h:__ZN6il2cpp6icalls8mscorlib6System10Reflection9MonoField16GetValueInternalEP21Il2CppReflectionFieldP12Il2CppObject
xJb:__ZN6Object27GetOffsetOfInstanceIdMemberEv
Pif:_AsnEncodedData_NetscapeCertType_m2899239452
Fwg:__ZL134U3CGenerateSlowMotionU3Ec__Iterator0_t2605255806_CustomAttributesCacheGenerator_U3CGenerateSlowMotionU3Ec__Iterator0_Reset_m2958839442P21CustomAttributesCache
fud:__ZN5physx15writeWordBufferEPKtjbRNS_14PxOutputStreamE
KYf:_Transform_1_EndInvoke_m1025924012_gshared
W9f:__ZL81Il2CppArray_CustomAttributesCacheGenerator_Array_GetValue_m3550694941____indices0P21CustomAttributesCache
k2h:_GC_write
vxg:_PatternCompiler_EmitPosition_m3013268572
Gmf:_X509SubjectKeyIdentifierExtension__ctor_m1109455121
lzh:__ZL24UnresolvedVirtualCall_45P12Il2CppObject19DateTime_t693205669PK10MethodInfo
hPb:__Z33PluginsInitializePreloadedPluginsv
u$b:__Z29Transfer_Blittable_ArrayFieldI8JSONRead10ColorRGBAfEvRT_R9ArrayInfoRK23StaticTransferFieldInfo
FEf:_GenericTypeParameterBuilder_GetPropertyImpl_m3566422383
jZh:__GLOBAL__sub_I_ThreadImpl_cpp
dBb:__Z18Transfer_BlittableI18StreamedBinaryReadILb1EELb1EiEvRK29SerializationCommandArgumentsR31RuntimeSerializationCommandInfo
iNd:_TripleDES_IsWeakKey_m483013953
dnc:__ZN5physx2Sc7BodySim37checkSleepReadinessBesidesWakeCounterEv
bBb:__Z18Transfer_BlittableI18StreamedBinaryReadILb1EELb1EsEvRK29SerializationCommandArgumentsR31RuntimeSerializationCommandInfo
LRd:_Single_System_IConvertible_ToSByte_m3757385387
r0g:__Z51RuntimeInvoker_Boolean_t3825574718_Slot_t2022531261PK10MethodInfoPvPS2_
Jze:_StreamAsyncResult_SetComplete_m2141125667
o8:__ZL21SetAnisoLimitEnumImplN7Texture20AnisotropicFilteringEb
nDd:__ZN22BaseUnityConnectClient17OnEnterStateReadyEv
JAc:__ZN5physx2Sc16ArticulationCore14setWakeCounterEf
dVc:__ZN5physx2Sc10NPhaseCore24createTriggerInteractionERNS0_8ShapeSimES3_NS_7PxFlagsINS_10PxPairFlag4EnumEtEE
h_b:__ZN8JSONRead18TransferStringDataI8UnityStrEEvRT_
tva:__ZN15dense_hashtableINSt3__24pairIKNS0_12basic_stringIcNS0_11char_traitsIcEE13stl_allocatorIcL18MemLabelIdentifier54ELi16EEEEP20ArchiveStorageReaderEES8_11djb2_hash_tIS8_EN14dense_hash_mapIS8_SB_SE_NS0_8equal_toIS8_EES5_ISC_LS6_54ELi16EEE9SelectKeyESH_SI_E13set_empty_keyERKSC_
kI:__Z21GetManagerFromContexti
Wii:__ZNKSt3__210moneypunctIcLb1EE14do_frac_digitsEv
F5b:__ZN5physx2Gu9ContainerD2Ev
fkh:_Keyframe_get_tangentMode_m1869200796_AdjustorThunk
i4e:_EncryptedPrivateKeyInfo_get_EncryptedData_m598672214
v7b:__ZN5physx2Gu12selectNormalEhff
KDh:__ZN6il2cpp6icalls8mscorlib6System8MonoType16InternalGetEventEP20Il2CppReflectionTypeP12Il2CppStringi
uJg:_UInt32_System_IConvertible_ToUInt32_m1257480358_AdjustorThunk
Sdg:__ZL50FileMode_t236403845_CustomAttributesCacheGeneratorP21CustomAttributesCache
FZh:__ZN6il2cpp2osL23CleanupThreadIfCanceledEPv
sOc:__ZN5physx3Scb14ParticleSystem16releaseParticlesEjRKNS_16PxStrideIteratorIKjEE
Gmg:__ZL98Activator_t1850728717_CustomAttributesCacheGenerator_Activator_CreateInstance_m1465989661____args1P21CustomAttributesCache
oM:__ZN19ShaderPropertySheet11ComputeHashEv
qkh:__ZN23InterfaceActionInvoker4IiP18Object_t1021602117P8String_tP24ObjectU5BU5D_t3614634134E6InvokeEjP11Il2CppClassPviS1_S3_S5_
d$c:__ZN5physx2Sc5Scene21processLostTouchPairsEv
Np:__ZN4PPtrI6ObjectE8TransferI18StreamedBinaryReadILb1EEEEvRT_
HZe:_Array_InternalArray__Insert_TisUInt16_t986882611_m2263078_gshared
Uwf:_SByte_System_IConvertible_ToUInt64_m2174352876_AdjustorThunk
TCh:__ZNK6il2cpp5utils10functional6FilterINSt3__212basic_stringIcNS3_11char_traitsIcEENS3_9allocatorIcEEEENS0_11StringUtils21CaseSensitiveComparerEEclIPKcEEbRKT_
HAh:__ZL25UnresolvedVirtualCall_121P12Il2CppObjectiiPK10MethodInfo
SEf:_GenericTypeParameterBuilder_get_AssemblyQualifiedName_m902593295
udd:__ZN5physx22PxcContactConvexConvexERKNS_2Gu13GeometryUnionES3_RKNS_11PxTransformES6_RKfRNS_10PxcNpCacheERNS0_13ContactBufferE
N6b:__ZNK5physx2Gu11ConvexHullV12HillClimbingERKNS_6shdfnd3aos5Vec3VE
wpb:__ZL29CanTransferTypeAsNestedObjectI18TransferField_InfoEbRKT_
YUc:__ZNK5physx2Sc17ParticleSystemSim7getCoreEv
KIe:_SimpleCollator__cctor_m2693747668
Gje:_Decimal_CompareTo_m2454501434_AdjustorThunk
AP:__ZN14SafeBinaryReadD2Ev
bIg:_UInt16_System_IConvertible_ToChar_m4055364664
gOc:__ZN5physx2Sc18ParticleSystemCore10setDampingEf
jKb:__Z13RegisterClassI7TextureEvv
RAg:_ExpressionCollection_OnValidate_m1703610065
kbb:__ZN8Gradient8TransferI18StreamedBinaryReadILb1EEEEvRT_
iog:__ZL79Convert_t2607082565_CustomAttributesCacheGenerator_Convert_ToUInt16_m3991499696P21CustomAttributesCache
Pjc:__ZN5physx2Sc10NPhaseCore16deleteFilterPairEPNS0_10FilterPairE
IJg:_UInt32_ToString_m554020223_AdjustorThunk
Dze:__ZN16VirtFuncInvoker5IP12Il2CppObjectP22ByteU5BU5D_t3397334013iiP24AsyncCallback_t163412349S1_E6InvokeEjPvS3_iiS5_S1_
iah:_Enumerator_Dispose_m1520016780_AdjustorThunk
GYa:__ZN15dense_hashtableINSt3__24pairIKNS0_12basic_stringIcNS0_11char_traitsIcEENS0_9allocatorIcEEEES7_EES7_11djb2_hash_tIS7_EN14dense_hash_mapIS7_S7_SB_NS0_8equal_toIS7_EE13stl_allocatorIS9_L18MemLabelIdentifier54ELi16EEE9SelectKeyESE_SH_ED2Ev
nAd:_PxCreateBasePhysics
cj:_SDL_PauseAudio
DEh:_il2cpp_class_from_type
j$d:_Array_Sort_m2323017822
zMh:__ZN6il2cpp2os4File11GetStdErrorEv
agh:_AudioConfigurationChangeHandler_EndInvoke_m2237100787
Pnc:__ZN5physx2Sc5Scene28addActiveBreakableConstraintEPNS0_13ConstraintSimE
SM:__ZN9ShaderLab19CommonPropertyNames16StaticInitializeEPv
OCc:__ZN5physx6shdfnd8PoolBaseINS_16NpParticleSystemENS0_19ReflectionAllocatorIS2_EEE15disposeElementsEv
sEe:_MissingMemberException__ctor_m3710131950
X6:__ZN13MemoryManager31DisallowAllocationsOnThisThreadEv
ezd:__ZN5physx7profile11EventBufferINS_24PxDefaultContextProviderENS_6shdfnd6MutexTINS0_26WrapperReflectionAllocatorIhEEEENS0_14ScopedLockImplIS7_EENS_24PxProfileNullEventFilterEE10eventValueEtyx
Txf:_CspParameters__ctor_m2546931874
Rx:__ZN11AudioSource23VirtualRedirectTransferER24GenerateTypeTreeTransfer
Oac:__ZN5physx2Gu11getBoxEdgesEv
$db:__ZN14Texture2DArray23VirtualRedirectTransferER14SafeBinaryRead
lHa:__ZNK6Camera21CalculateCanDoShadowsEv
DZc:__ZNK5physx2Sc5Scene17getBroadPhaseCapsERNS_16PxBroadPhaseCapsE
T_f:_Dictionary_2_make_pair_m2631942124_gshared
Bzc:__ZN5physx9NpFactory14onActorReleaseEPNS_7PxActorE
tuh:__ZN14dense_hash_mapI10KeyWrapperINSt3__212basic_stringIcNS1_11char_traitsIcEENS1_9allocatorIcEEEEEP11Il2CppClassN6il2cpp5utils11StringUtils12StringHasherIS7_EENS1_8equal_toIS8_EENS5_INS1_4pairIKS8_SA_EEEEEC2EjRKSF_RKSH_
Q$h:__ZN6il2cpp2os6Thread12SetStackSizeEj
rkf:_X509ChainElementEnumerator_get_Current_m2232618221
Rpc:__ZN5physx2Sc5Actor15onElementAttachERNS0_7ElementE
pbh:_Collection_1_Clear_m3860339101_gshared
Hmb:__ZNK20ArchiveStorageReader15HasStreamBlocksEv
JJ:__Z13VFormatBufferPciPKcz
TNc:__ZN5physx2Sc18ParticleSystemCore23setSimulationFilterDataERKNS_12PxFilterDataE
bzb:__Z18Transfer_BlittableI18StreamedBinaryReadILb0EELb1EhEvRK29SerializationCommandArgumentsR31RuntimeSerializationCommandInfo
Qgg:__ZL90SafeHandle_t2733794115_CustomAttributesCacheGenerator_SafeHandle_get_IsInvalid_m3910183075P21CustomAttributesCache
SIg:_UInt16_ToString_m3280699191
M5:__ZN6prcoreL27StretchGenericFloatBilinearI15TexFormatRFloatEEvPKNS_9InnerInfoE
M3c:__ZN5physx6shdfnd8internal8HashBaseINS0_4PairIKNS_2Sq13PrunerPayloadEjEES5_NS0_4HashIS5_EENS1_11HashMapBaseIS5_jS9_NS0_9AllocatorEE6GetKeyESB_Lb1EE15reserveInternalEj
Lhg:__ZL62IDynamicMessageSink_t3056162262_CustomAttributesCacheGeneratorP21CustomAttributesCache
xPg:__Z33RuntimeInvoker_UInt32_t2149682021PK10MethodInfoPvPS2_
bOg:__Z130RuntimeInvoker_Int32_t2071877448_Il2CppObject_Int32_t2071877448_Int32_t2071877448_Il2CppObject_Int32_t2071877448_Int32_t2071877448PK10MethodInfoPvPS2_
oVe:_Array_InternalArray__IEnumerable_GetEnumerator_TisBoolean_t3825574718_m798244337_gshared
G$a:__ZN4core20StringStorageDefaultIcE6assignERKS1_
dTg:__Z102RuntimeInvoker_Il2CppObject_Int32_t2071877448_Int32_t2071877448_Il2CppObject_Il2CppObject_Il2CppObjectPK10MethodInfoPvPS2_
Lnb:__ZN39AssetBundleLoadFromStreamAsyncOperationC2ERKNSt3__212basic_stringIcNS0_11char_traitsIcEENS0_9allocatorIcEEEE
vWe:_Array_IndexOf_TisCustomAttributeNamedArgument_t94157543_m745056346_gshared
ila:__Z14PadImageBorderR14ImageReferenceii
eyh:__ZN6il2cpp2vm13MetadataCache28GetFieldDefaultValueForFieldEPK9FieldInfo
pNf:_ArrayReadOnlyList_1_ReadOnlyError_m2289309720_gshared
eCh:__ZN6il2cpp2vm8basepathEPKc
x7c:__ZN5physx2Gu22gjkRelativePenetrationINS0_9TriangleVENS0_8CapsuleVEEEjRKT_RKT0_RKNS_6shdfnd3aos15PsMatTransformVERKNSB_6FloatVERNSB_5Vec3VESJ_SJ_RSF_PhSL_Rh
bR:__ZNSt3__212basic_stringIcNS_11char_traitsIcEE13stl_allocatorIcL18MemLabelIdentifier1ELi16EEE9push_backEc
evd:__ZN9Rigidbody14SetIsKinematicEb
Ryh:__ZL24UnresolvedVirtualCall_23P12Il2CppObjectS0_PK10MethodInfo
du:__ZN12AudioManager39HandlePendingAudioConfigurationCallbackEv
i7:__ZNK8Material16MarkDependenciesER27GarbageCollectorThreadState
yOa:__Z20RequiredComponentsOfP11Il2CppClass
njh:_GenericMixerPlayable_InternalCreate_m559491731
fbh:_Collection_1_System_Collections_IList_Contains_m323652826_gshared
bk:_emscripten_glIsFramebuffer
koa:__ZNK13TranslateGLES9GetFormatE13TextureFormat17TextureColorSpace
Qfi:__ZNSt3__215__num_get_floatIfEET_PKcS3_Rj
wee:_Convert_ToInt64_m954367741
ek:_JS_Sound_SetLoopPoints
k4d:_ArrayList__ctor_m1467563650
qy:__ZN12AudioManager17ShouldSourcePauseEb
w6h:__ZN6il2cpp2vm26MetadataAllocGenericMethodEv
Kpa:__ZN19ConstantBuffersGLES12RecordRenderEv
o3c:__ZN5physx13ActorAABBTaskD2Ev
p8a:__ZN18AsyncUploadManager22UploadStreamingTextureEP28FileTextureUploadInstruction
F0b:__ZN9JSONWrite8TransferI10RectOffsetEEvRT_PKc17TransferMetaFlags
Qka:__ZN4crnd12symbol_codec11decode_bitsEj
Bni:__ZNSt3__212basic_stringIwNS_11char_traitsIwEENS_9allocatorIwEEE7reserveEj
rPb:__ZN21FixedBehaviourManagerD0Ev
T4a:__ZN10Matrix3x4f8TransferI24GenerateTypeTreeTransferEEvRT_
X$b:__ZL17Transfer_GUIStyleI9JSONWriteLb0EEvRK29SerializationCommandArgumentsR31RuntimeSerializationCommandInfo
Tha:__ZNK18GfxFramebufferGLES15GetSamplesCountEv
HEb:__ZNSt3__26vectorIN9ShaderLab20SerializedSubProgram15MatrixParameterENS_9allocatorIS3_EEE26__swap_out_circular_bufferERNS_14__split_bufferIS3_RS5_EE
Z6:__Z16MarkDependenciesR27GarbageCollectorThreadStatej
Xgi:__ZNSt3__27num_putIwNS_19ostreambuf_iteratorIwNS_11char_traitsIwEEEEED0Ev
imf:_X509ChainElementEnumerator_Reset_m3832280427
JGe:_MulticastDelegate_RemoveImpl_m2024746777
DGe:_MulticastDelegate_Equals_m3064081489
MSe:_Activator_CreateInstance_m1465989661
JM:__ZNK9Transform11GetPositionEv
tCc:__ZN5physx12NpConstraint8requiresERNS_23PxProcessPxBaseCallbackE
v3f:__ZN21InterfaceFuncInvoker1IP8String_tS1_E6InvokeEjP11Il2CppClassPvS1_
$Da:__ZN23SharedMeshRenderingData18UnloadVertexStreamEi
Hgc:__ZN5physx3Cct13HandleManager3AddEPv
b5g:_PKCS12_Encrypt_m2154408631
wOb:__ZN19RenderEventsContextC2Ei
EB:__Z6simd4fRKf
Hk:_emscripten_glEnable
zXh:__ZN6il2cpp2gc16GarbageCollector29RegisterFinalizerForNewObjectEP12Il2CppObject
B$a:__ZN10TagManager23VirtualRedirectTransferER14SafeBinaryRead
Fod:__ZNK5physx2Sc15ClothFabricCore9getNbSetsEv
E1f:_MarshalAsAttribute__ctor_m1892084128
I_g:__Z53RuntimeInvoker_Void_t1841601450_Vector3U26_t425862308PK10MethodInfoPvPS2_
tKa:__Z15InitLightMeshesv
Bmg:__ZL97WaitHandle_t677569169_CustomAttributesCacheGenerator_WaitHandle_t677569169____Handle_PropertyInfoP21CustomAttributesCache
KYc:__ZNK5physx7NpScene26getNbContactDataBlocksUsedEv
dXh:__ZNK10KeyWrapperIP12Il2CppObjectEeqERKS2_
rcc:__ZN5physx2Gu29computeCapsule_HeightFieldMTDERKNS_21PxHeightFieldGeometryERKNS_11PxTransformERNS0_8CapsuleVEffbjRNS_10PxSweepHitE
hUc:__ZNK5physx2Cm12DelegateTaskINS_7NpSceneEXadL_ZNS2_14executeCollideEPNS_10PxBaseTaskEEEE7getNameEv
Ypd:__ZN5physx2Gu11HeightField15exportExtraDataERNS_22PxSerializationContextE
Tbb:__ZN15QualitySettings8TransferI19StreamedBinaryWriteILb0EEEEvRT_
A9g:_List_1_System_Collections_Generic_IEnumerableU3CTU3E_GetEnumerator_m1503548298_gshared
exb:__Z18Transfer_BlittableI19StreamedBinaryWriteILb0EELb1E8Vector2fEvRK29SerializationCommandArgumentsR31RuntimeSerializationCommandInfo
srh:__ZN30dense_hashtable_const_iteratorINSt3__24pairIK10KeyWrapperIPK22Il2CppGenericParameterEP11Il2CppClassEES6_N6il2cpp5utils11PointerHashIS4_EEN14dense_hash_mapIS6_S9_SE_NS0_8equal_toIS6_EENS0_9allocatorISA_EEE9SelectKeyESH_SJ_EppEv
ugg:__ZL65ClassInterfaceAttribute_t910653559_CustomAttributesCacheGeneratorP21CustomAttributesCache
vH:__Z15CleanLogHandler7LogTypePKcz
VGb:__ZN9ShaderLab19SerializedSubShader8TransferI19StreamedBinaryWriteILb0EEEEvRT_
PEc:__ZN5physx10NpMaterialC2ERKNS_2Sc12MaterialCoreE
oz:__ZN14AudioBehaviour15ThreadedCleanupEv
pgd:__ZN5physx9PxTaskMgr10resolveRowEjb
Xob:__ZN6Camera17RemoveImageFilterERK11ImageFilter
Hma:__ZNSt3__218__insertion_sort_3IR25ValueParameterArraySorterPN20GpuProgramParameters14ValueParameterEEEvT0_S6_T_
a7d:_CaseInsensitiveHashCodeProvider_AreEqual_m2456617355
Rhf:_WebHeaderCollection__ctor_m4088938710
Mud:__ZN8Collider12GetIsTriggerEv
nji:__ZNKSt3__210moneypunctIwLb1EE14do_curr_symbolEv
E8e:_Context_set_WriteSequenceNumber_m3356252710
$se:_Guid_Equals_m2389236871
I9b:__ZN5physx2Gu16_gjkLocalRayCastINS0_9TriangleVENS0_11ConvexHullVEEEbRT_RT0_RKNS_6shdfnd3aos6FloatVERKNS9_5Vec3VESF_RSA_RSD_SH_f
Sq:__ZNK8Playable11GetDurationEv
lji:__ZNKSt3__210moneypunctIwLb1EE16do_thousands_sepEv
_nc:__ZN5physx6shdfnd8PoolBaseINS_2Cm5BlockIPvLj32EEENS0_19ReflectionAllocatorIS5_EEE17releaseEmptySlabsEv
_Vf:_DefaultComparer__ctor_m2859550749_gshared
C9c:__ZN5physx23PxsBroadPhaseContextSap21batchUpdateFewUpdatesEjRPNS_17PxcBroadPhasePairERjS4_
Ycc:__ZN5physx3Cct17getSceneTimestampEPKNS0_30InternalCBData_FindTouchedGeomE
Ztc:__ZN5physx14NpArticulation12applyImpulseEPNS_18PxArticulationLinkERKNS_24PxArticulationDriveCacheERKNS_6PxVec3ES8_
pWb:__Z41Register_UnityEngine_Input_GetMouseButtonv
Wlh:_Physics_Raycast_m2874007225
iFd:__ZN18UnityConnectClient33OnPlayerSessionStateChangedStaticEPS_jyy
Ccg:__ZL74CaseInsensitiveHashCodeProvider_t2307530285_CustomAttributesCacheGeneratorP21CustomAttributesCache
MKg:_UIntPtr__ctor_m3900568171_AdjustorThunk
sOf:_InternalEnumerator_1_get_Current_m1943362081_gshared
uia:__ZN7ApiGLES4LoadE16GfxDeviceLevelGL
M9a:__ZN18StreamedBinaryReadILb0EE21TransferSTLStyleArrayI13dynamic_arrayI31EnlightenSystemAtlasInformationLj8EEEEvRT_17TransferMetaFlags
YDc:__ZN5physx9NpPhysics15createAggregateEjb
Jka:__ZN4crnd12crn_unpacker22decode_color_endpointsEv
Ddh:_ReadOnlyCollection_1_System_Collections_IList_Clear_m3006875897_gshared
dmh:_Physics_Raycast_m2994111303
YJe:_PreviousInfo_t581002487_marshal_pinvoke_cleanup
kgi:__ZNKSt3__27num_getIwNS_19istreambuf_iteratorIwNS_11char_traitsIwEEEEE6do_getES4_S4_RNS_8ios_baseERjS8_
XX:__ZN8Material11SetPassFastEPN9ShaderLab4PassER17ShaderPassContextP6Shaderib
dRa:__ZNK13ScreenManager13GetLockCursorEv
qFd:__ZN11UnityEngine7Connect20BasePersistentValues10SaveValuesER9JSONWrite
ggd:__ZN5physx9PxTaskMgr12addReferenceEj
Glf:_X509CertificateEnumerator_System_Collections_IEnumerator_MoveNext_m3708362145
TFa:__Z12SetupLODFadeR9GfxDeviceR17ShaderPassContextf
gKa:__ZL24CollectForwardObjectsJobP27CollectForwardObjectsHeader
Vjg:__ZL53HMACSHA256_t2622794722_CustomAttributesCacheGeneratorP21CustomAttributesCache
rBa:__Z13IsNodeVisibleRK9SceneNodeRK4AABBRK22SceneCullingParameters
Kli:__ZNSt3__27codecvtIDic11__mbstate_tED0Ev
IC:__ZN11UnityEngine15CloudWebService16SessionContainer7RestoreERK8UnityStrPvy
jHf:_EventInfo__ctor_m1190141300
Ysf:_DelayedFixupRecord_FixupImpl_m4249966635
Ryi:_emscripten_glStencilMask__wrapper
IKe:_BigInteger_op_Implicit_m4032862257
QQ:__ZN11TypeManager19ClassNameToTypeInfoEPKcb
uKe:_BigInteger_ToString_m3837784224
pDa:__ZN15RenderNodeQueue7CleanupEv
Dva:__ZNK17ArchiveFileSystem8PositionERK13FileEntryData
Zhc:__ZN16NovodexAllocator8allocateEjPKcS1_i
kle:_DllNotFoundException__ctor_m267198482
Sei:__ZNSt3__215basic_streambufIcNS_11char_traitsIcEEEC2Ev
hDg:_NativeEventCalls_CreateEvent_internal_m1605829321
Hyh:__ZL24UnresolvedVirtualCall_13P12Il2CppObjectaPK10MethodInfo
xSf:_InternalEnumerator_1_System_Collections_IEnumerator_get_Current_m3239681450_AdjustorThunk
lEb:__ZNSt3__26vectorIN9ShaderLab20SerializedSubProgram15VectorParameterENS_9allocatorIS3_EEEC2ERKS6_
cKa:__ZN9ShaderLab10GrabPassesD2Ev
glh:_MonoBehaviour_set_useGUILayout_m2666356651
ieb:__ZN14Texture2DArray13UploadTextureEv
jRd:_SecurityFrame_t1002202659_marshal_pinvoke
O7:__ZN18AwakeFromLoadQueue25RegisterObjectInstanceIDsEv
Cud:__ZN5physx21PxProfileNameProviderD2Ev
D1d:_Buffer_BlockCopy_m1586717258
yvh:__ZN15dense_hashtableI10KeyWrapperIPK17Il2CppGenericInstES4_N6il2cpp8metadata21Il2CppGenericInstHashEN14dense_hash_setIS4_S7_NS6_24Il2CppGenericInstCompareENSt3__29allocatorIS4_EEE8IdentityES9_SC_E12maybe_shrinkEv
tjg:__ZL93X509Certificate_t283079845_CustomAttributesCacheGenerator_X509Certificate_GetName_m2354987368P21CustomAttributesCache
qag:__ZL65Il2CppArray_CustomAttributesCacheGenerator_Array_Copy_m1969461849P21CustomAttributesCache
vZc:__ZN5physx2Sc5Scene22removeBroadPhaseRegionEj
BQf:_InternalEnumerator_1__ctor_m3589241961_AdjustorThunk
Zgc:__ZN5physx2Cm12RenderBuffer5clearEv
Hoe:_CompareInfo_GetSortKey_m3691382873
hLc:__ZNK5physx2Sc9ClothCore21getStiffnessFrequencyEv
Aie:_DBNull_ToString_m3228904745
Csa:__ZN14GfxDeviceStats15SetScreenParamsEiiiiii
$wh:__ZN15dense_hashtableINSt3__24pairIK10KeyWrapperINS0_12basic_stringIcNS0_11char_traitsIcEENS0_9allocatorIcEEEEEP11Il2CppClassEES9_N6il2cpp5utils11StringUtils12StringHasherIS8_EEN14dense_hash_mapIS9_SC_SI_NS0_8equal_toIS9_EENS6_ISD_EEE9SelectKeyESL_SM_E12maybe_shrinkEv
KLd:_SHA1Managed_HashCore_m2658295635
TXg:__Z80RuntimeInvoker_Void_t1841601450_Int32_t2071877448_Int32_t2071877448_Il2CppObjectPK10MethodInfoPvPS2_
N5c:__ZN5physx13PxsCCDContext14postCCDAdvanceEPNS_10PxBaseTaskE
FXh:__ZNK15dense_hashtableINSt3__24pairIK10KeyWrapperIP12Il2CppObjectEN6il2cpp2gc9CachedCCWEEES5_NS7_5utils11PointerHashIS3_EEN14dense_hash_mapIS5_S9_SD_NS0_8equal_toIS5_EENS0_9allocatorISA_EEE9SelectKeyESG_SI_E13find_positionERS6_
u4e:_RC4_get_IV_m506011366
w6g:_X509Crl__ctor_m2469408229
Owb:__Z18Transfer_BlittableI19StreamedBinaryWriteILb0EELb0EyEvRK29SerializationCommandArgumentsR31RuntimeSerializationCommandInfo
Igg:__ZL82SafeHandle_t2733794115_CustomAttributesCacheGenerator_SafeHandle_Close_m1146946803P21CustomAttributesCache
Mmf:_X509SubjectKeyIdentifierExtension_CopyFrom_m136762226
zM:__Z12MurmurHash2APKvij
U7g:_Enumerator_System_Collections_IEnumerator_Reset_m610822832_AdjustorThunk
x2e:_ASN1_get_Length_m778823697
qTh:__ZN6il2cpp6icalls8mscorlib6System2IO6MonoIO20GetFileSystemEntriesEP12Il2CppStringS6_iiPi
hXb:__Z41MonoBehaviour_Set_Custom_PropUseGUILayoutP12Il2CppObjecth
Qui:_glGenRenderbuffers__wrapper
qLe:_BigInteger_op_Division_m1581119694
x_h:__ZNK15dense_hashtableINSt3__24pairIK10KeyWrapperIP14Il2CppIUnknownEjEES5_N6il2cpp5utils11PointerHashIS3_EEN14dense_hash_mapIS5_jSB_NS0_8equal_toIS5_EENS0_9allocatorIS7_EEE9SelectKeyESE_SG_E12test_deletedERK24dense_hashtable_iteratorIS7_S5_SB_SI_SE_SG_E
zuf:_CallbackHandler_Invoke_m1498072969
yyf:_DSACryptoServiceProvider__ctor_m701823690
bcd:__ZNK5physx10BPWorkTask7getNameEv
GBf:_CustomAttributeData_GetCustomAttributes_m2421330738
hAc:__ZN5physx2Sc8ShapeSim16onResetFilteringEv
KGg:_Type_get_IsEnum_m313908919
vVb:__Z44Register_UnityEngine_Component_get_transformv
zp:__ZN4PPtrI9TransformE8TransferI18StreamedBinaryReadILb1EEEEvRT_
Knc:__ZN5physx2Sc16ActorInteractionD2Ev
Lsa:__ZN17ArchiveFileSystem12MountArchiveEPKcS1_
Tke:_StackFrame_GetMethod_m72881026
dWh:__ZN15dense_hashtableI10KeyWrapperIP18Il2CppGenericClassES3_N6il2cpp8metadata22Il2CppGenericClassHashEN14dense_hash_setIS3_S6_NS5_25Il2CppGenericClassCompareENSt3__29allocatorIS3_EEE8IdentityES8_SB_E15set_deleted_keyERKS3_
q1b:__Z18Transfer_BlittableI9JSONWriteLb1E8Vector4fEvRK29SerializationCommandArgumentsR31RuntimeSerializationCommandInfo
iO:__Z11RequireTypePKcS0_S0_
Fei:__ZThn8_NSt3__214basic_iostreamIcNS_11char_traitsIcEEED0Ev
MWf:_Enumerator_System_Collections_IEnumerator_Reset_m70453843_gshared
PAc:__ZN5physx2Sc16ArticulationCore26setExternalDriveIterationsEj
u1a:__ZN4PPtrI13RenderTextureE8TransferI19StreamedBinaryWriteILb0EEEEvRT_
Sfa:__ZN9GfxDevice15ImmediateVertexEfff
TJb:__Z13RegisterClassI8MaterialEvv
Lkg:__ZL51Evidence_t1407710183_CustomAttributesCacheGeneratorP21CustomAttributesCache
gRc:__ZN5physx14NpRigidDynamic10clearForceENS_11PxForceMode4EnumE
l2a:__ZN16GraphicsSettings13AwakeFromLoadE17AwakeFromLoadMode
Mne:_FieldAccessException__ctor_m3893881490
jp:__ZN6Object13AwakeFromLoadE17AwakeFromLoadMode
Gda:__ZN13GfxDeviceGLES15SetStencilStateEPK18DeviceStencilStatei
Mrg:__ZL72PKCS12_t1362584795_CustomAttributesCacheGenerator_U3CU3Ef__switchU24map5P21CustomAttributesCache
xd:_emscripten_glUniform1iv
ASd:_String_System_IConvertible_ToDouble_m3860911722
STa:__ZN16MemoryFileSystemD2Ev
gZf:_Dictionary_2_System_Collections_Generic_ICollectionU3CSystem_Collections_Generic_KeyValuePairU3CTKeyU2CTValueU3EU3E_Contains_m842343255_gshared
BFb:__ZN9ShaderLab18SerializedPropertyD2Ev
tOf:_InternalEnumerator_1_System_Collections_IEnumerator_get_Current_m1931522460_AdjustorThunk
Koa:__ZN14DrawBufferGLESI12VertexBuffer27VertexBufferUsageMapperGLESE12EnsureBufferEj
COd:_SecurityPermission_IsEmpty_m1869313067
OT:__ZN13RuntimeStaticI23MeshVertexFormatManagerE13StaticDestroyEPv
joa:__ZN7ApiGLES15TextureSubImageEj16TextureDimensionN2gl9TexFormatEiiiiiiiiPKv
PWc:__ZN5physx7NpSceneD2Ev
HOe:_EncryptedPrivateKeyInfo_get_Salt_m2734354394
Acb:__ZN12ImmediatePtrI9TransformE8TransferI18StreamedBinaryReadILb1EEEEvRT_
GNb:__ZN12MeshRenderer7PRODUCEE18MemLabelIdentifier18ObjectCreationMode
aZh:__ZN6il2cpp2os5posix15PosixWaitObject4WaitEjb
ibd:__ZNK5physx16PxsBroadPhaseMBP18getNumDeletedPairsEv
gyd:__ZN5physx7profile8ZoneImplINS_28PxProfileNameProviderForwardEE10startEventEty
RV:__ZN15dense_hashtableINSt3__24pairIKPKcPK4RTTIEES3_N11TypeManager23ConstCharPtrHashFunctorEN14dense_hash_mapIS3_S7_SA_NS9_19ConstCharPtrEqualToE13stl_allocatorIS8_L18MemLabelIdentifier6ELi16EEE9SelectKeyESC_SF_E12resize_deltaEjj
f6c:__ZN5physx10PxsCCDPair17sweepAdvanceToToiEfb
pJb:__ZN15ApplicationInfo16GetInstallerNameEv
vTa:__Z23ConvertIntegerToTypePtrItEbPvR14SafeBinaryRead
kZf:_Dictionary_2_System_Collections_IEnumerable_GetEnumerator_m1615804423_gshared
Od:_emscripten_glStencilFunc
qTg:__Z101RuntimeInvoker_Void_t1841601450_Il2CppObject_Il2CppObject_Il2CppObject_Il2CppObject_Int32_t2071877448PK10MethodInfoPvPS2_
jzc:__ZN5physx6shdfnd8PoolBaseINS_2Cm5BlockIhLj384EEENS0_19ReflectionAllocatorIS4_EEE17releaseEmptySlabsEv
gmd:__ZN5physx16PxsIslandManager11freeBuffersEv
Ayh:__ZL23UnresolvedVirtualCall_6P12Il2CppObjectiPK10MethodInfo
ZO:__ZN18AwakeFromLoadQueueD2Ev
aKf:_MonoMethod_MakeGenericMethod_impl_m2063853616
Urc:__ZN5physx2Cm12DelegateTaskINS_2Sc17ParticleSystemSimEXadL_ZNS3_21prepareCollisionInputEPNS_10PxBaseTaskEEEE11runInternalEv
kRd:__Z46il2cpp_codegen_get_marshal_directive_exceptionPKc
YHb:__ZN9ShaderLab20SerializedSubProgram14AddMatrixParamEPKcii15ShaderParamTypei
Ud:_glGetActiveUniformBlockName
muf:__ZN16VirtFuncInvoker0I18Decimal_t724701077E6InvokeEjPv
Kag:__ZL65Il2CppArray_CustomAttributesCacheGenerator_Array_Sort_m2090966156P21CustomAttributesCache
hte:_Guid_AppendByte_m2890893073
Hid:__ZL28removeBrokenEdgesFromIslandsPKjjS0_jS0_RKN5physx11NodeManagerERNS1_11EdgeManagerERNS1_13IslandManagerERNS1_2Cm10BitMapBaseINS1_6shdfnd9AllocatorEEEPSD_
P2d:_Char_System_IConvertible_ToType_m3106771703_AdjustorThunk
Kof:_Interval_Intersects_m3480157390_AdjustorThunk
Wxh:__ZN6il2cpp2vm13MetadataCache28GetGenericContainerFromIndexEi
o1f:_GCHandle_Alloc_m1063472408
av:__ZN4FMOD7Channel20set3DConeOrientationEP11FMOD_VECTOR
en:FUNCTION_TABLE_iiifii
wcg:__ZL52ArrayList_t4252133567_CustomAttributesCacheGeneratorP21CustomAttributesCache
Gxf:_CryptoConfig_CreateFromName_m391442950
NVh:__ZN6il2cpp2vm12GenericClass11SetupEventsEP11Il2CppClass
Mgh:_Collision_get_contacts_m266635379
H9d:_SortedList__ctor_m3698381356
U2g:__Z31RuntimeInvoker_Slot_t2022531261PK10MethodInfoPvPS2_
peh:_Predicate_1_EndInvoke_m3656575065_gshared
vCe:_StreamWriter_LowLevelWrite_m4205372900
Kqh:__ZN6il2cpp6icalls8mscorlib6System7Decimal14decimalCompareEP19il2cpp_decimal_reprS5_
ruc:__ZN5physx26PxcFsComputeJointLoadsSimdERKNS_9PxcFsDataEPKNS_12PxcFsInertiaEPNS_6shdfnd3aos6Mat33VEPKfjjNS_21PxcFsScratchAllocatorE
kIf:_Module__ctor_m3853650010
p7d:_CollectionBase_System_Collections_IList_get_Item_m2370387510
Tgi:__ZNSt3__29__num_putIcE23__widen_and_group_floatEPcS2_S2_S2_RS2_S3_RKNS_6localeE
_Tc:__ZN5physx6shdfnd8SyncImpl7getSizeEv
Iig:__ZL59RemotingException_t109604560_CustomAttributesCacheGeneratorP21CustomAttributesCache
rJ:__Z15CreateDirectoryRKNSt3__212basic_stringIcNS_11char_traitsIcEENS_9allocatorIcEEEE
g3:__ZNSt3__26__treeINS_12__value_typeIN9ShaderLab16FastPropertyNameE10ColorRGBAfEENS_19__map_value_compareIS3_S5_NS_4lessIS3_EELb1EEENS_9allocatorIS5_EEE12__find_equalIS3_EERPNS_16__tree_node_baseIPvEENS_21__tree_const_iteratorIS5_PNS_11__tree_nodeIS5_SF_EEiEESI_RKT_
Tvi:_glCopyTexImage2D__wrapper
Olg:__ZL88UTF7Encoding_t741406939_CustomAttributesCacheGenerator_UTF7Encoding_GetBytes_m3015176946P21CustomAttributesCache
pgh:_Camera_FireOnPreCull_m1679634170
Zfg:__ZL68TargetInvocationException_t4098620458_CustomAttributesCacheGeneratorP21CustomAttributesCache
Ipg:__ZL56RankException_t1539875949_CustomAttributesCacheGeneratorP21CustomAttributesCache
Iec:__ZN5physx11PxHitBufferINS_12PxRaycastHitEED0Ev
Dqe:_NumberFormatter_CountTrailingZeros_m2398864634
RRe:___Il2CppComDelegate_t3311706788_create_ccw
i5:__ZN6prcoreL17RemapGenericFloatI14TexFormatRHalf15TexFormatRFloatEEvPKNS_9InnerInfoE
eKa:__Z16ShouldUseShadowsb
qn:FUNCTION_TABLE_iifff
$Jh:__ZN15dense_hashtableINSt3__24pairIK10KeyWrapperINS1_IPK9EventInfoP11Il2CppClassEEEjEES9_17ReflectionMapHashIS8_EN14dense_hash_mapIS9_jSD_19ReflectionMapEqualsIS8_ENS0_9allocatorISB_EEE9SelectKeyESG_SI_E4swapERSL_
X7b:__ZN5physx2Gu24contactSphereHeightFieldERKNS0_13GeometryUnionES3_RKNS_11PxTransformES6_RKfRNS0_5CacheERNS0_13ContactBufferE
Cla:__ZN7ApiGLES10DrawArraysE16GfxPrimitiveTypejjj
f4b:__ZN5physx3Cct13BoxController15getPxControllerEv
Ms:__ZN10SampleClip13LoadBaseSoundEv
qac:__ZN5physx2Gu22gjkRelativePenetrationINS0_17ShrunkConvexHullVES2_EEjRKT_RKT0_RKNS_6shdfnd3aos15PsMatTransformVERKNSA_6FloatVERNSA_5Vec3VESI_SI_RSE_PhSK_Rh
QRg:__Z62RuntimeInvoker_Il2CppObject_Int32_t2071877448_SByte_t454417549PK10MethodInfoPvPS2_
end:__ZN5physx2Sc19ParticlePacketShapeC2ERNS0_17ParticleSystemSimEjPNS_16PxvParticleShapeE
o3:__ZN22DeviceMVPMatricesStateC2ER9GfxDevice
qzg:_Regex_IsMatch_m1286520424
_Dc:__ZN5physx9NpPhysics18createTriangleMeshERNS_13PxInputStreamE
sn:FUNCTION_TABLE_iiiiifiiiif
lWg:__Z48RuntimeInvoker_Int64_t909078037_Int64_t909078037PK10MethodInfoPvPS2_
sSd:_String__ctor_m372528291
KV:__ZN6Object16StaticInitializeEv
fca:__ZN18BackgroundJobQueue10InitializeEv
Nwd:__ZN14SphereCollider23VirtualRedirectTransferER18StreamedBinaryReadILb1EE
v7:__ZNSt3__26__treeIiNS_4lessIiEE13stl_allocatorIiL18MemLabelIdentifier1ELi16EEE7destroyEPNS_11__tree_nodeIiPvEE
$b:invoke_viiifi
Uug:__ZL79Physics_t634932869_CustomAttributesCacheGenerator_Physics_RaycastAll_m233036521P21CustomAttributesCache
rFe:_LongComparer_Compare_m3981323622
KPg:__Z64RuntimeInvoker_UInt64_t2909196914_Il2CppObject_Int32_t2071877448PK10MethodInfoPvPS2_
srd:__ZN5physx6shdfnd5ArrayIPNS_7PxActorENS0_19ReflectionAllocatorIS3_EEE8recreateEj
zba:__ZNK11AssetBundle14GetPreloadDataEiR13dynamic_arrayIiLj4EE
QPe:_EncryptedData_get_EncryptedContent_m2732115576
bf:_JS_Sound_SetPosition
Nyg:_Assertion_set_FalseExpression_m1781616372
Imf:_X509SubjectKeyIdentifierExtension_FromHexChars_m2515150420
p9:__ZNK9Texture3D26CanReuploadDataToGfxDeviceEv
Exh:__ZL13GetSharedInstPK17Il2CppGenericInst
rbg:__ZL51IReflect_t3412036974_CustomAttributesCacheGeneratorP21CustomAttributesCache
i2f:_AppDomainLevelActivator__ctor_m230071814
lhh:_Component_GetComponentsInChildren_m908027537
CDd:__ZN22BaseUnityConnectClient17SaveSessionValuesEv
O5f:_CallContextRemotingData_Clone_m2226242476
$O:__Z63ThreadAndSerializationSafeCheckSetMonoBehaviourBeingTransferredP13MonoBehaviour
wHc:__ZNK5physx7NpCloth14getNbParticlesEv
Vjc:__ZN5physx2Sc10NPhaseCore24releaseShapeInstancePairEPNS0_19ShapeInstancePairLLEjj
jKa:__Z24SetupActiveLightsContextR21ActiveLightingContextRK12ActiveLightsRK11CullResultsP14ShadowMapCacheRK10MinMaxAABB
UZf:_Dictionary_2_System_Collections_Generic_ICollectionU3CSystem_Collections_Generic_KeyValuePairU3CTKeyU2CTValueU3EU3E_Contains_m3400497673_gshared
zed:__ZN5physx2GuL34fullContactsGenerationConvexConvexERKNS0_11ConvexHullVERS1_RKNS_6shdfnd3aos12PsTransformVES9_bbPNS0_17PersistentContactERjRNS0_13ContactBufferERNS0_25PersistentContactManifoldERNS6_5Vec3VERKNS6_6FloatVEb
wie:_DBNull_System_IConvertible_ToUInt32_m2681284284
h1a:__ZN6Camera8TransferI24GenerateTypeTreeTransferEEvRT_
Fa:invoke_iiiiiiif
Aa:invoke_iiiiiiii
snb:__ZN24RingBufferMemoryFileData16ConsumeReadBytesEy
F9c:__ZN5physx21SapPostUpdateWorkTaskD0Ev
Sta:__ZN15dense_hashtableINSt3__24pairIKNS0_12basic_stringIcNS0_11char_traitsIcEE13stl_allocatorIcL18MemLabelIdentifier54ELi16EEEEP20ArchiveStorageReaderEES8_11djb2_hash_tIS8_EN14dense_hash_mapIS8_SB_SE_NS0_8equal_toIS8_EES5_ISC_LS6_54ELi16EEE9SelectKeyESH_SI_E12maybe_shrinkEv
blf:_X509ChainElementCollection_Contains_m3599995067
Tzi:b120
Szc:__ZN5physx7NpActor18releaseConstraintsERNS_12PxRigidActorE
dhc:__ZN5physx6shdfnd5ArrayINS_11PxDebugLineENS0_19ReflectionAllocatorIS2_EEE8recreateEj
dAi:b125
cAi:b124
pMg:__Z53RuntimeInvoker_Il2CppObject_Il2CppObject_Il2CppObjectPK10MethodInfoPvPS2_
TPc:__ZNK5physx22NpParticleBaseTemplateINS_16PxParticleSystemENS_16NpParticleSystemEE20getMaxMotionDistanceEv
Ocf:_SslClientStream_OnLocalPrivateKeySelection_m3649986106
wY:__ZN19RenderBufferManager13GetTempBufferEii17DepthBufferFormat19RenderTextureFormatj22RenderTextureReadWrite14VRTextureUsagei
skb:__ZN18StreamedBinaryReadILb0EE21TransferSTLStyleArrayI13dynamic_arrayI16SplashScreenLogoLj4EEEEvRT_17TransferMetaFlags
iHh:__ZNK15dense_hashtableINSt3__24pairIK10KeyWrapperINS1_IPK9FieldInfoP11Il2CppClassEEEjEES9_17ReflectionMapHashIS8_EN14dense_hash_mapIS9_jSD_19ReflectionMapEqualsIS8_ENS0_9allocatorISB_EEE9SelectKeyESG_SI_E12test_deletedERK24dense_hashtable_iteratorISB_S9_SD_SK_SG_SI_E
LRc:__ZNK5physx14NpRigidDynamic25getContactReportThresholdEv
XRd:_Single_CompareTo_m2081476257
_Ue:_Array_InternalArray__ICollection_Remove_TisX509ChainStatus_t4278378721_m4127982424_gshared
iVb:__Z47Register_UnityEngine_Camera_get_allCamerasCountv
cMc:__ZN5physx22NpParticleBaseTemplateINS_15PxParticleFluidENS_15NpParticleFluidEE16releaseParticlesEv
FDd:__ZN22BaseUnityConnectClient20StartEventDispatcherEv
YXa:__ZN5Cache17ReadCacheInfoFileERKNSt3__212basic_stringIcNS0_11char_traitsIcEENS0_9allocatorIcEEEEPlS9_
m2e:_PrimalityTest_EndInvoke_m380367609
OSa:__Z29StdTemplateConversionFunctionIsiEbPvR14SafeBinaryRead
Iid:__Z22updateIslandsToProcessRKN5physx2Cm10BitMapBaseINS_6shdfnd9AllocatorEEEPKjRKNS_11NodeManagerERS4_
d0f:_EqualityComparer_1_System_Collections_IEqualityComparer_Equals_m3376587337_gshared
iya:__ZN12InputManager13InputEndFrameEv
n9d:_SyncHashtable__ctor_m2029869827
fDh:__ZNSt3__26__treeIP11Il2CppClassNS_4lessIS2_EENS_9allocatorIS2_EEE25__emplace_unique_key_argsIS2_JRKS2_EEENS_4pairINS_15__tree_iteratorIS2_PNS_11__tree_nodeIS2_PvEEiEEbEERKT_DpOT0_
JLh:__ZN15dense_hashtableINSt3__24pairIK10KeyWrapperINS1_IPK9FieldInfoP11Il2CppClassEEEjEES9_17ReflectionMapHashIS8_EN14dense_hash_mapIS9_jSD_19ReflectionMapEqualsIS8_ENS0_9allocatorISB_EEE9SelectKeyESG_SI_EC2EjRKSD_RKSG_RKSK_
aNh:__ZN6il2cpp2vm6Thread5SetupEP12Il2CppThread
Sud:__ZN8Collider30GetRelativePositionAndRotationERK9TransformR10Matrix4x4f
l6c:__ZN5physx35PxcSweepEstimateAnyShapeHeightfieldERKNS_11PxsCCDShapeES2_PKNS_12PxsRigidBodyES5_RKNS_11PxTransformES8_f
yhc:__ZN5physx3Cct13BoxControllerC2ERKNS_16PxControllerDescERNS_9PxPhysicsEPNS_7PxSceneE
Ibh:_Collection_1_CheckWritable_m2756357359_gshared
Yci:___munmap
iee:_Convert_ToInt64_m1722087499
OIa:__ZN22RenderingCommandBuffer24PostExecuteCommandBufferER17ShaderPassContextP13RenderTexture
Wf:_localtime_r
tTd:__ZN16VirtFuncInvoker3IbP8String_tS1_iE6InvokeEjPvS1_S1_i
Jmg:__ZL81AppDomain_t2719102437_CustomAttributesCacheGenerator_assembly_resolve_in_progressP21CustomAttributesCache
Dgg:__ZL65InterfaceTypeAttribute_t4113096249_CustomAttributesCacheGeneratorP21CustomAttributesCache
Zf:_strftime
HY:__ZN7Texture33SetStoredColorSpaceNoDirtyNoApplyE17TextureColorSpace
RJ:__ZN12FileAccessorD2Ev
j2:__ZN10ColorRGBAf8TransferI18StreamedBinaryReadILb0EEEEvRT_
afb:__ZN14VertexDataInfoC2Ev
Hne:_Exception_GetObjectData_m2653827630
_ph:_Vector3_Equals_m2692262876_AdjustorThunk
gRf:_InternalEnumerator_1_get_Current_m2415979394_gshared
K9e:_TlsClientHello_Update_m1723542631
LAb:__ZL17Transfer_GUIStyleI18StreamedBinaryReadILb1EELb1EEvRK29SerializationCommandArgumentsR31RuntimeSerializationCommandInfo
ADh:__ZN6il2cpp6icalls8mscorlib6SystemL9IsPrivateEPK12PropertyInfo
r6c:__ZNK5physx18PxcConvexTriangles16getPolygonNormalEj
IBf:_CustomAttributeData_GetCustomAttributes_m3258419955
bN:__ZN9shadertag10InitializeEv
xzd:__ZN5physx24NpPtrTableStorageManager8canReuseEjj
$Vd:_EncoderFallback__ctor_m1639180960
Qbb:__ZN15QualitySettings14QualitySetting8TransferI24GenerateTypeTreeTransferEEvRT_
JYe:_Array_InternalArray__ICollection_CopyTo_TisParameterModifier_t1820634920_m4127516211_gshared
WQd:_DecoderReplacementFallback__ctor_m2344783488
rli:__ZNKSt3__28numpunctIwE11do_groupingEv
BWc:__ZN5physx2Sc27ConstraintProjectionManager33processConstraintForGroupBuildingEPNS0_13ConstraintSimERNS0_20ScratchAllocatorListIS3_Lj64EEE
ELe:_SequentialSearchPrimeGeneratorBase_GenerateNewPrime_m545729286
x6h:__ZN6il2cpp6icalls8mscorlib6System9Threading16NativeEventCalls19ResetEvent_internalE12Il2CppIntPtr
sqd:__ZN5physx20InternalTriangleMesh17allocateTrianglesEjb
YQb:__ZN22BlockMemoryCacheWriter14LockCacheBlockEjPPhS1_
R$h:__ZN6il2cpp2os6Thread10RunWrapperEPv
ROc:__ZN5physx22NpParticleBaseTemplateINS_15PxParticleFluidENS_15NpParticleFluidEED2Ev
GUc:__ZN5physx2Cm29ConstraintImmediateVisualizer19visualizeDoubleConeERKNS_11PxTransformEfb
f_b:__Z22TransferField_NonArrayI8JSONRead27Converter_SimpleNativeClassI8GUIStyleEEvRK23StaticTransferFieldInfoR31RuntimeSerializationCommandInfoRT0_
pHh:__ZN15dense_hashtableINSt3__24pairIK10KeyWrapperIPK10Il2CppTypeEjEES6_N6il2cpp8metadata14Il2CppTypeHashEN14dense_hash_mapIS6_jSB_NSA_17Il2CppTypeCompareENS0_9allocatorIS8_EEE9SelectKeyESD_SF_E12resize_deltaEjj
S4b:__ZN5physx6shdfnd5ArrayINS_13PxExtendedBoxENS0_19ReflectionAllocatorIS2_EEE8recreateEj
Vbd:__ZN5physx20ProcessBPResultsTask11runInternalEv
doc:__ZN5physx6shdfnd5ArrayIPvNS0_19ReflectionAllocatorINS_2Cm5BlockIS2_Lj16EEEEEE4copyINS0_15InlineAllocatorILj256ES7_EEEEvRKNS1_IS2_T_EE
Eg:_llvm_eh_typeid_for
xPb:__Z13RegisterClassI10GameObjectEvv
Scg:__ZL53HashValues_t2390200547_CustomAttributesCacheGeneratorP21CustomAttributesCache
Mjf:_X509BasicConstraintsExtension_get_PathLengthConstraint_m3004531343
seg:__ZL125GenericTypeParameterBuilder_t1370236603_CustomAttributesCacheGenerator_GenericTypeParameterBuilder_GetConstructors_m103067670P21CustomAttributesCache
hXc:__ZN5physx7NpScene19getActiveTransformsERjh
Ikd:__ZN5physx6shdfnd5ArrayIPKNS_24PxsIndexedContactManagerENS0_19ReflectionAllocatorIS4_EEE8recreateEj
yEe:_MissingMemberException__ctor_m4277447068
sLf:_StrongNameKeyPair_System_Runtime_Serialization_ISerializable_GetObjectData_m1693082120
NIa:__ZNK19RenderEventsContext25PostExecuteCommandBuffersEiR17ShaderPassContextP13RenderTextureP19ProfilerInformationi
ira:__ZN9GfxDevice14EndBufferWriteEP9GfxBufferj
F_h:__ZN6il2cpp2vm6Method8GetParamEPK10MethodInfoj
$ve:_Int64_CompareTo_m1953686218
bMh:_GenericComparer_1__ctor_m221205314_gshared
lTh:__ZN6il2cpp6icalls8mscorlib6System2IO6MonoIO4ReadE12Il2CppIntPtrP11Il2CppArrayiiPi
ryi:_glBindVertexArray__wrapper
Qtd:__ZN5physx6shdfnd5ArrayINS_11RTreeNodeNQENS0_19ReflectionAllocatorIS2_EEE19resizeUninitializedEj
Rkc:__ZNK5physx2Sc16InteractionScene18getLLIslandManagerEv
uyf:_DSA_Create_m3450041777
i1:__ZN8Material8TransferI14SafeBinaryReadEEvRT_
Q5c:__ZN5physx17PxcNpMemBlockPool34acquireExceptionalConstraintMemoryEj
_6a:__ZN12CubemapArray17UploadToGfxDeviceEv
v5:__ZN6prcoreL17RemapGenericFloatI15TexFormatRGHalf17TexFormatRGBAHalfEEvPKNS_9InnerInfoE
dkg:__ZL54PaddingMode_t3032142640_CustomAttributesCacheGeneratorP21CustomAttributesCache
a7c:__ZN5physxL23PxcSweepConvexTrianglesERKNS_11PxsCCDShapeES2_RKNS_11PxTransformES5_S5_S5_fRNS_6PxVec3ES7_RNS_10PxcNpCacheERNS_18PxcNpThreadContextERKNS_2Cm23FastVertex2ShapeScalingERNS_2Gu9TriangleVEf
AFc:__ZNK5physx7NpShape16getPlaneGeometryERNS_15PxPlaneGeometryE
zkf:_X509Chain_CheckRevocationOnChain_m2441901351
UMd:_SymmetricAlgorithm_CreateDecryptor_m4240570785
_td:__ZN5physx27InternalTriangleMeshBuilder14fillRemapTableEv
bt:__ZN11AudioSource4StopEb
qsc:__ZN5physx6shdfnd8PoolBaseINS_13NpRigidStaticENS0_19ReflectionAllocatorIS2_EEE17releaseEmptySlabsEv
vsb:__ZN14SafeBinaryRead21TransferSTLStyleArrayI13dynamic_arrayI10Matrix4x4fLj4EEEEvRT_17TransferMetaFlags
Q1d:_Byte_System_IConvertible_ToDecimal_m1036493607
zmg:__ZL47Timer_t791717973_CustomAttributesCacheGeneratorP21CustomAttributesCache
CX:__Z25GetSplashScreenBackgroundRK5RectTIfE
nPf:_InternalEnumerator_1_System_Collections_IEnumerator_get_Current_m1679297177_gshared
HLf:_ResourceManager__ctor_m498829021
tqa:__ZN18GlslGpuProgramGLESD2Ev
ryd:__ZThn116_NK5physx7profile8ZoneImplINS_28PxProfileNameProviderForwardEE10hasClientsEv
jfd:__ZN5physx2Gu20pcmContactCapsuleBoxERKNS0_13GeometryUnionES3_RKNS_11PxTransformES6_RKfRNS0_5CacheERNS0_13ContactBufferE
Auf:_SerializationCallbacks__ctor_m722356782
_Zb:__ZN10Matrix4x4f8TransferI8JSONReadEEvRT_
hNb:__ZN22GenericPropertyBinding8RegisterEPKc11ClassIDTypePFfPvEPFvS3_fE
SQ:__ZN14dense_hash_mapIPKcPK4RTTIN11TypeManager23ConstCharPtrHashFunctorENS5_19ConstCharPtrEqualToE13stl_allocatorINSt3__24pairIKS1_S4_EEL18MemLabelIdentifier6ELi16EEE5beginEv
Egg:__ZL49Marshal_t785896760_CustomAttributesCacheGeneratorP21CustomAttributesCache
OO:__ZN17PersistentManager18ReadObjectThreadedEi
Aha:__ZN25TransformFeedbackSkinning31CleanupTransformFeedbackShadersEv
w5h:__ZN6il2cpp6icalls8mscorlib6System7Runtime16CompilerServices14RuntimeHelpers15InitializeArrayEP11Il2CppArray12Il2CppIntPtr
FSf:_InternalEnumerator_1_System_Collections_IEnumerator_get_Current_m2851415307_gshared
Njh:_Input_GetMouseButton_m464100923
ebf:__ZN16VirtFuncInvoker1IP28HandshakeMessage_t3938752374hE6InvokeEjPvh
dWb:__Z32Gizmos_CUSTOM_INTERNAL_set_colorRK10ColorRGBAf
Zie:_Decimal_System_IConvertible_ToInt16_m3159038792_AdjustorThunk
URb:__Z16CalculateNormals14StrideIteratorI8Vector3fEPKjiiS1_
xgb:__ZN10VertexData8TransferI18StreamedBinaryReadILb0EEEEvRT_
esc:__ZN5physx2Sc5Scene9addStaticERNS0_10StaticCoreEPKPvjj
fUb:__Z39DeleteLastPathNameComponentWithAnySlashRKNSt3__212basic_stringIcNS_11char_traitsIcEENS_9allocatorIcEEEE
tQe:_PKCS12_GetExistingParameters_m2413397265
LQa:__ZN14PreloadManager16UpdatePreloadingEv
r0a:__ZN12BaseRendererD2Ev
Rii:__ZNKSt3__210moneypunctIcLb1EE16do_thousands_sepEv
Q1c:__ZN5physx2Sc5Scene9addShapesEPKPvjjRNS0_8RigidSimEPNS_12PxsRigidBodyERPNS0_8ShapeSimEPNS_9PxBounds3E
VQg:__Z148RuntimeInvoker_Int32_t2071877448_Il2CppObject_Int32_t2071877448_Int32_t2071877448_Il2CppObject_Int32_t2071877448_Int32_t2071877448_Int32_t2071877448PK10MethodInfoPvPS2_
$dd:__ZN5physx23PxcPCMContactConvexMeshERKNS_2Gu13GeometryUnionES3_RKNS_11PxTransformES6_RKfRNS_10PxcNpCacheERNS0_13ContactBufferE
EVa:__ZNK21UnityDefaultAllocatorI17LowLevelAllocatorE8ContainsEPKv
wBh:__ZNSt3__213__vector_baseI6pollfdNS_9allocatorIS1_EEED2Ev
$7e:_ClientSessionInfo_get_Id_m3046630969
Nh:_emscripten_get_main_loop_timing
vye:_DirectoryInfo__ctor_m3750996792
Pbb:__ZN24GenerateTypeTreeTransfer21TransferSTLStyleArrayINSt3__26vectorIN15QualitySettings14QualitySettingENS1_9allocatorIS4_EEEEEEvRT_17TransferMetaFlags
unh:_ResourceRequest_t2560315377_marshal_pinvoke_cleanup
Eib:__ZNSt3__26vectorI9InputAxisNS_9allocatorIS1_EEE6resizeEj
KOd:_SecurityElement_IsValidAttributeValue_m483287146
AVd:_Decoder_set_Fallback_m1780632169
Uo:getTempRet0
jed:__ZN5physx2Gu33MultiplePersistentContactManifold24addManifoldContactPointsEPNS0_21MeshPersistentContactEjPPNS0_15PCMContactPatchEjRKNS_6shdfnd3aos6FloatVESB_h
ETg:__Z114RuntimeInvoker_Void_t1841601450_Il2CppObject_Il2CppObject_Int32_t2071877448_Il2CppObject_Il2CppObject_Il2CppObjectPK10MethodInfoPvPS2_
_Af:_AssemblyTitleAttribute__ctor_m1696431446
t_g:__Z80RuntimeInvoker_Il2CppObject_Ray_t2469606224_Single_t2076509932_Int32_t2071877448PK10MethodInfoPvPS2_
p4e:_PrivateKeyInfo_RemoveLeadingZero_m3396807048
fSe:__ZThn4_N6il2cpp2vm13ComObjectBaseI34__Il2CppComDelegate_t3311706788CCW18Il2CppIInspectableNS0_7details6ComNilES5_S5_S5_S5_S5_S5_E7ReleaseEv
B8g:_List_1_GrowIfNeeded_m185971996_gshared
JQh:__ZN6il2cpp6icalls8mscorlib6System9ThreadingL21lookup_cached_cultureEP12Il2CppThreadi
pGg:__ZN16VirtFuncInvoker1IP24DaylightTime_t3800227331iE6InvokeEjPvi
fLa:__ZN18DeferredRenderLoopD2Ev
DEf:_GenericTypeParameterBuilder_GetMethods_m1243855818
HR:__ZNK16TypeTreeIterator4NameEv
oJ:__ZN15FileSystemEntry3SetEPKc
cld:__ZN5physx6shdfnd5ArrayIPNS_13PxcNpMemBlockENS0_19ReflectionAllocatorIS3_EEE6resizeEjRKS3_
dId:_MACTripleDES__ctor_m884945242
PRc:__ZN5physx14NpRigidDynamic8requiresERNS_23PxProcessPxBaseCallbackE
Lu:__ZN20SoundChannelInstance15ParameterBuffer5ApplyEPN4FMOD7ChannelE
Uhb:__ZN23SharedMeshRenderingDataD0Ev
F9f:__ZL73Enum_t2459695545_CustomAttributesCacheGenerator_Enum_ToObject_m1688724857P21CustomAttributesCache
Zxd:__ZN5physx7profile8ZoneImplINS_28PxProfileNameProviderForwardEE21setProfileZoneManagerEPNS_20PxProfileZoneManagerE
SDd:__ZN11UnityEngine15PlatformWrapper24GetRuntimePlatformStringEv
vi:_glIsEnabled
VCb:__ZN15CacheWriterBaseD2Ev
_ec:__ZN5physx3Cct17CapsuleController15setFootPositionERKNS_14PxExtendedVec3E
wcc:__ZN5physx2Gu33PCMCapsuleVsMeshContactGeneration13generateEEMTDERKNS_6shdfnd3aos5Vec3VES6_RKNS3_6FloatVES6_jS6_S6_PNS0_21MeshPersistentContactERj
NBc:__ZN18MultiQueryCallbackIN5physx10PxSweepHitEED0Ev
qib:__ZN12InputManager23VirtualRedirectTransferER18StreamedBinaryReadILb1EE
zi:_emscripten_glDrawElementsInstanced
V3g:_GeneralNames_get_IPAddresses_m1712556836
i3e:_HMAC_Initialize_m3052649104
OPa:__ZN18JobBatchDispatcherD2Ev
bcb:__ZN9Transform17MainThreadCleanupEv
m4h:_GC_clear_hdr_marks
lzi:_emscripten_glCreateShader__wrapper
igg:__ZL73CompilationRelaxationsAttribute_t238494011_CustomAttributesCacheGeneratorP21CustomAttributesCache
L1g:__Z74RuntimeInvoker_Void_t1841601450_Int32_t2071877448_KeyValuePair_2_t38854645PK10MethodInfoPvPS2_
hvf:_CallbackHandler_EndInvoke_m2406225629
gBa:__ZL54CombineLocalShadowCasterCullignIndexListsAndDestroyJobP25LocalShadowCullingJobData
sMd:_SHA512Managed_processBlock_m3220567420
qff:_NameObjectCollectionBase_get_Keys_m446053925
Ji:_emscripten_glGetShaderiv
DYf:_Transform_1__ctor_m353209818_gshared
fxa:__ZZ23InitPlayerLoopCallbacksvEN41EarlyUpdateUpdateAllUnityWebStreamsstruct7ForwardEv
Nv:__ZN4FMOD6System10getVersionEPj
Yye:_FileLoadException_GetObjectData_m2047020314
UKh:__ZN15dense_hashtableINSt3__24pairIK10KeyWrapperIPK10Il2CppTypeEjEES6_N6il2cpp8metadata14Il2CppTypeHashEN14dense_hash_mapIS6_jSB_NSA_17Il2CppTypeCompareENS0_9allocatorIS8_EEE9SelectKeyESD_SF_E15set_deleted_keyERKS8_
pKb:__ZN5Unity9Component7PRODUCEE18MemLabelIdentifier18ObjectCreationMode
ovg:__ZL96RemoteSettings_t392466225_CustomAttributesCacheGenerator_RemoteSettings_CallOnUpdate_m1624968574P21CustomAttributesCache
bXe:_Array_InternalArray__IndexOf_TisSByte_t454417549_m1427585061_gshared
rNg:__Z75RuntimeInvoker_Byte_t3683104436_Il2CppObject_Int32_t2071877448_Il2CppObjectPK10MethodInfoPvPS2_
qbe:_Decimal_u64_m3991988111
sqh:_YieldInstruction_t3462875981_marshal_pinvoke
E4g:_X509Certificate_Parse_m1764345628
eFd:__ZThn564_N18UnityConnectClient18OnAdsIdRequestDoneERK8UnityStrbS2_
Fea:__ZN9GfxDevice21ReleaseSharedMeshDataEP14SharedMeshData
KRe:_SmallXmlParser_Peek_m2814840810
xjb:__ZNSt3__27__sort5IRNS_6__lessINS_4pairIPKN5Unity4TypeE7Hash128EES8_EEPS8_EEjT0_SC_SC_SC_SC_T_
M9d:_Enumerator_Reset_m466659019
Beh:_UnityAction_1_EndInvoke_m2822290096_gshared
oXh:__ZNK15dense_hashtableINSt3__24pairIK10KeyWrapperIP12Il2CppObjectEN6il2cpp2gc9CachedCCWEEES5_NS7_5utils11PointerHashIS3_EEN14dense_hash_mapIS5_S9_SD_NS0_8equal_toIS5_EENS0_9allocatorISA_EEE9SelectKeyESG_SI_E10test_emptyEj
t3h:_GC_unreachable_finalize_mark_proc
Uf:___syscall192
R4h:_maybe_finalize
KGd:__ZN20HardwareInfoReporter18ReportHardwareInfoEv
xea:__ZN9GfxDevice38ScheduleDynamicVBOGeometryJobsInternalEPFvP25DynamicVBOGeometryJobDatajEPFvS1_ES1_j16GfxPrimitiveTypeP21DynamicVBOChunkHandle
oHa:__Z16SyncFenceNoClearRK8JobFence
W0:__ZN8Material28UpdateHashesOnPropertyChangeEN9ShaderLab16FastPropertyNameE
Rxe:_DirectoryInfo_get_Parent_m1198766078
Z6d:_CaseInsensitiveComparer_Compare_m1192858479
brb:__Z18Transfer_BlittableI14SafeBinaryReadLb1E8Vector4fEvRK29SerializationCommandArgumentsR31RuntimeSerializationCommandInfo
KBe:_StreamAsyncResult_set_Done_m4272090534
sBf:_Default_SelectMethod_m622251293
Wx:__ZN11AudioSource12AddToManagerEv
lUh:__ZN6il2cpp2vm5Image13ClassFromNameEPK11Il2CppImagePKcS6_
Opi:dynCall_vdddddd
cGb:__ZN24GenerateTypeTreeTransfer21TransferSTLStyleArrayINSt3__26vectorIN9ShaderLab14SerializedPassENS1_9allocatorIS4_EEEEEEvRT_17TransferMetaFlags
woc:__ZN5physx6shdfnd8internal8HashBaseIPNS_2Sc13ConstraintSimES5_NS0_4HashIS5_EENS1_11HashSetBaseIS5_S7_NS0_9AllocatorELb1EE6GetKeyES9_Lb1EE6createERKS5_Rb
LN:__ZL32MarkLevelGameManagerDependenciesR27GarbageCollectorThreadState
PYg:__Z49RuntimeInvoker_Void_t1841601450_UInt16_t986882611PK10MethodInfoPvPS2_
Lga:__ZNK13GfxDeviceGLES26HasActiveRandomWriteTargetEv
Y2g:__Z37RuntimeInvoker_ILTokenInfo_t149559338PK10MethodInfoPvPS2_
lwc:__ZNK5physx15NpActorTemplateINS_18PxArticulationLinkEE7getNameEv
qui:_glGetActiveUniformsiv__wrapper
u4b:__ZNK5physx3Cct10Controller16getInternalStateERNS_17PxControllerStateE
SXg:__Z59RuntimeInvoker_Il2CppObject_Double_t4078015681_Il2CppObjectPK10MethodInfoPvPS2_
a_g:__Z83RuntimeInvoker_Void_t1841601450_Il2CppObject_Il2CppObject_Il2CppObject_Il2CppObjectPK10MethodInfoPvPS2_
AO:__ZNK15dense_hashtableINSt3__24pairIKiiEEi21InstanceIDHashFunctorN14dense_hash_mapIiiS4_NS0_8equal_toIiEE13stl_allocatorIS3_L18MemLabelIdentifier1ELi16EEE9SelectKeyES7_SA_E13find_positionERS2_
qWh:__ZN30dense_hashtable_const_iteratorI10KeyWrapperIP18Il2CppGenericClassES3_N6il2cpp8metadata22Il2CppGenericClassHashEN14dense_hash_setIS3_S6_NS5_25Il2CppGenericClassCompareENSt3__29allocatorIS3_EEE8IdentityES8_SB_E30advance_past_empty_and_deletedEv
Q0c:__ZN5physx10PxsContext15setScratchBlockEPvj
Yvg:__ZL74UnityEventBase_t828812576_CustomAttributesCacheGenerator_m_PersistentCallsP21CustomAttributesCache
s$f:_DefaultComparer__ctor_m2265472997_gshared
vSh:__ZN6il2cpp2vm13LivenessState18ShouldProcessValueEP12Il2CppObjectP11Il2CppClass
Yhb:__ZN4PPtrI6SpriteE8TransferI14SafeBinaryReadEEvRT_
tjc:__ZN5physx2Cm27getDynamicGlobalPoseAlignedERKNS_11PxTransformES3_S3_RS1_
oTg:__Z45RuntimeInvoker_Il2CppObject_IntPtr_t_IntPtr_tPK10MethodInfoPvPS2_
gFb:__ZNSt3__26vectorIN9ShaderLab14SerializedPassENS_9allocatorIS2_EEE8__appendEj
Hrd:__ZN5physx6shdfnd5ArrayIPvNS0_19ReflectionAllocatorIN17PxcPoolMallocData10PoolData32EEEE15growAndPushBackERKS2_
B8e:_Context_get_SupportedCiphers_m2172827298
cRg:__Z170RuntimeInvoker_Int32_t2071877448_Il2CppObject_Int32_t2071877448_Int32_t2071877448_Il2CppObject_Int16_t4041245914_Int32_t2071877448_SByte_t454417549_ContextU26_t3131521781PK10MethodInfoPvPS2_
v8a:__ZN9Texture2D23VirtualRedirectTransferER18StreamedBinaryReadILb0EE
JQd:__ZN16VirtFuncInvoker0IP23CompareInfo_t2310920157E6InvokeEjPv
Kle:_Double_System_IConvertible_ToUInt16_m286326038_AdjustorThunk
ssf:_TypeInfo__ctor_m1475908211
_$a:__ZNSt3__26__treeINS_12__value_typeIN4core12basic_stringIcNS2_20StringStorageDefaultIcEEEEjEENS_19__map_value_compareIS6_S7_NS_4lessIS6_EELb1EEE13stl_allocatorIS7_L18MemLabelIdentifier6ELi16EEE7destroyEPNS_11__tree_nodeIS7_PvEE
Akf:_X509Chain_WrapUp_m1072032285
_5g:_X509CertificateEnumerator_System_Collections_IEnumerator_MoveNext_m1448966539
q0e:_Object_FindObjectOfType_TisIl2CppObject_m2967490724_gshared
P7e:_TlsServerHelloDone__ctor_m2125611008
lza:_unity_z_tr_stored_block
AMg:__Z46RuntimeInvoker_Single_t2076509932_Il2CppObjectPK10MethodInfoPvPS2_
pRd:_SecuritySafeCriticalAttribute__ctor_m2508714287
pwh:__ZN13dynamic_arrayIPK10Il2CppTypeLj4EE10reallocateEPS2_j
K4a:__ZN18StreamedBinaryReadILb1EE21TransferSTLStyleArrayI13dynamic_arrayI13ProbeSetIndexLj8EEEEvRT_17TransferMetaFlags
lWe:_Array_compare_TisIl2CppObject_m1481822507_gshared
oAd:__ZN5physx2Gu20registerHeightFieldsEv
lW:__ZN15dense_hashtableINSt3__24pairIKNS0_12basic_stringIcNS0_11char_traitsIcEE13stl_allocatorIcL18MemLabelIdentifier54ELi16EEEEP11AssetBundleEES8_11djb2_hash_tIS8_EN14dense_hash_mapIS8_SB_SE_NS0_8equal_toIS8_EENS0_9allocatorISC_EEE9SelectKeyESH_SJ_E13set_empty_keyERKSC_
cyf:_DES_get_Key_m2584608215
RBa:__ZL22ScheduleSceneNodesJobsP25ScheduleSceneNodesJobDataj
aWh:__ZN15dense_hashtableI10KeyWrapperIP18Il2CppGenericClassES3_N6il2cpp8metadata22Il2CppGenericClassHashEN14dense_hash_setIS3_S6_NS5_25Il2CppGenericClassCompareENSt3__29allocatorIS3_EEE8IdentityES8_SB_ED2Ev
t9c:__ZN5physx22concludeContactCoulombERKNS_23PxcSolverConstraintDescERNS_16PxcSolverContextE
zk:_emscripten_set_canvas_size
Dag:__ZL65Il2CppArray_CustomAttributesCacheGenerator_Array_Sort_m3645766612P21CustomAttributesCache
NMc:__ZNK5physx15NpParticleFluid12getStiffnessEv
m8d:_Hashtable__ctor_m741952536
QEb:__ZNSt3__26vectorIN9ShaderLab20SerializedSubProgramENS_9allocatorIS2_EEE8__appendEj
JG:__ZN20DynamicHeapAllocatorI17LowLevelAllocatorE8AllocateEji
rGa:__ZN20DynamicPropertySheet15SetVectorQueuedERKN9ShaderLab16FastPropertyNameERK8Vector4fN19ShaderPropertySheet8SetFlagsE
YTd:_String_Format_m1263743648
Jfh:_DefaultExecutionOrder_get_order_m1561221759
u4d:_ArrayList_get_IsSynchronized_m481976864
Bth:__ZN15dense_hashtableINSt3__24pairIK10KeyWrapperIPK19Il2CppGenericMethodEPK26Il2CppGenericMethodIndicesEES6_N6il2cpp8metadata23Il2CppGenericMethodHashEN14dense_hash_mapIS6_SA_SE_NSD_26Il2CppGenericMethodCompareENS0_9allocatorISB_EEE9SelectKeyESG_SI_E14squash_deletedEv
j0b:__ZL26Transfer_SimpleNativeClassI9JSONWrite10RectOffsetLb0EEvRK29SerializationCommandArgumentsR31RuntimeSerializationCommandInfo
N3h:_GC_push_conditional
Yja:__ZN17GenericDynamicVBO10AllocateVBEjR21DynamicVBOChunkHandle
v9g:_List_1_get_Item_m1547593893_gshared
gye:_Path_GetPathRoot_m1269357080
zdd:__ZL27PxcTestFacesSepAxesBackfaceRKN5physx2Gu13PolygonalDataES3_RKNS_2Cm8Matrix34ES7_RKNS4_23FastVertex2ShapeScalingESA_S7_RKNS_6PxVec3ERfRSB_RjPjSG_fSD_
LYf:_Transform_1__ctor_m4161450529_gshared
Yk:_glMapBufferRange
j8a:__ZN9Texture2D8TransferI18StreamedBinaryReadILb0EEEEvRT_
nWb:__Z31Input_CUSTOM_GetMouseButtonDowni
Iag:__ZL65Il2CppArray_CustomAttributesCacheGenerator_Array_Sort_m1730553742P21CustomAttributesCache
_Hc:__ZNK5physx7NpCloth23getExternalAccelerationEv
rEa:__ZNK9Transform16GetLocalPositionEv
Uqb:__Z19scripting_array_newP11Il2CppClassjj
Hba:__ZN13LoadOperation19IntegrateTimeSlicedEi
ubb:__ZNK15QualitySettings26GetTypeInfoVirtualInternalEv
kof:_InterpreterFactory__ctor_m3331468903
Tad:__ZN5physx16PxsBroadPhaseMBP9updatePPUEPNS_10PxBaseTaskE
aRe:_X501__cctor_m3795360380
Yga:__ZN13GfxDeviceGLES22DispatchComputeProgramE12ObjectHandleI18ComputeProgram_TagPvE15ComputeBufferIDj
k9h:__ZN6il2cpp8metadata25Il2CppGenericClassCompare7CompareERK10KeyWrapperIP18Il2CppGenericClassES7_
CXh:__ZN24dense_hashtable_iteratorINSt3__24pairIK10KeyWrapperIP12Il2CppObjectEN6il2cpp2gc9CachedCCWEEES5_NS7_5utils11PointerHashIS3_EEN14dense_hash_mapIS5_S9_SD_NS0_8equal_toIS5_EENS0_9allocatorISA_EEE9SelectKeyESG_SI_E30advance_past_empty_and_deletedEv
bee:_Convert_ToInt32_m2297793940
uaa:__Z17TransformAABBSlowRK4AABBRK10Matrix4x4fRS_
h9a:__ZN15SerializeTraitsI13dynamic_arrayI7Hash128Lj8EEE19ResizeSTLStyleArrayERS2_i18MemLabelIdentifier
mkf:_X509Chain_Build_m1140429528
JDb:__ZN9ShaderLab21SerializedShaderState8TransferI14SafeBinaryReadEEvRT_
hD:__ZTv0_n12_NSt3__219basic_ostringstreamIcNS_11char_traitsIcEENS_9allocatorIcEEED1Ev
Ldi:_ftruncate
qLd:_RSAPKCS1SignatureFormatter_SetKey_m2365816458
gDd:__ZN13RuntimeStaticINSt3__26vectorIPN20TextRenderingPrivate17TextMeshGeneratorENS0_9allocatorIS4_EEEEE13StaticDestroyEPv
_te:_Int16_GetHashCode_m304503362_AdjustorThunk
WOc:__ZN5physx6shdfnd8PoolBaseINS_16NpParticleSystemENS0_19ReflectionAllocatorIS2_EEE12allocateSlabEv
ogd:__ZN5physx9PxTaskMgr12dispatchTaskEjb
WCg:_CompressedStack__ctor_m276924800
Rxi:b89
Qxi:b88
Dwi:b81
Cwi:b80
Fwi:b83
pR:__ZN18ResourceImageGroup7CleanupEv
Lwi:b85
hmc:__ZN5physx2Gu36closestPtPointTetrahedronTesselationEPNS_6shdfnd3aos5Vec3VES4_S4_RjRS3_S6_
Nxi:b87
Mxi:b86
Fq:__ZN11Quaternionf8TransferI24GenerateTypeTreeTransferEEvRT_
Odd:__ZN5physx25PxcPCMContactSphereConvexERKNS_2Gu13GeometryUnionES3_RKNS_11PxTransformES6_RKfRNS_10PxcNpCacheERNS0_13ContactBufferE
n4e:_PrivateKeyInfo_Decode_m1053025782
emf:_X509ChainElementCollection_System_Collections_ICollection_CopyTo_m1467895312
pnd:__ZN5physx2Cm18DelegateFanoutTaskINS_2Sc5SceneEXadL_ZNS3_20particlePostShapeGenEPNS_10PxBaseTaskEEEED0Ev
bQe:_PKCS12_Decrypt_m2457743414
o6a:__ZN8Playable19SetOutputConnectionEPS_i
Ll:_glDeleteShader
Ane:_Exception_GetType_m3898489832
q5:__ZN6prcoreL17RemapGenericFloatI15TexFormatRGHalf16TexFormatRGFloatEEvPKNS_9InnerInfoE
Did:__ZN5physx16PxsIslandManager17cleanupEdgeEventsEv
SCc:__ZN5physx6shdfnd8PoolBaseINS_10NpMaterialENS0_19ReflectionAllocatorIS2_EEE15disposeElementsEv
axa:__ZZ23InitPlayerLoopCallbacksvEN38EarlyUpdateExecuteMainThreadJobsstruct7ForwardEv
i6:__ZN19RuntimeSceneManager9LoadSceneERK8UnityStrS2_S2_RK9UnityGUIDiNS_11LoadingModeE
aTb:__Z27scripting_add_internal_callPKcPKv
KZe:_Array_InternalArray__Insert_TisUriScheme_t1876590943_m2728325409_gshared
YWh:__GLOBAL__sub_I_GarbageCollector_cpp
wM:__Z17GetPlayerSettingsv
N5b:__ZL21ContactReductionAllInRN5physx2Gu13ContactBufferEjjRKNS_7PxMat33EPKNS_6PxVec3EPKh
l6g:_X509Store_CheckStore_m1027496478
Efg:__ZL82MethodBase_t904190842_CustomAttributesCacheGenerator_MethodBase_Invoke_m1075809207P21CustomAttributesCache
M$g:__Z133RuntimeInvoker_Boolean_t3825574718_Vector3U26_t425862308_Vector3U26_t425862308_Single_t2076509932_Int32_t2071877448_Int32_t2071877448PK10MethodInfoPvPS2_
TYb:__Z33EmitSerializationCommandsForFieldI8JSONReadEvR18TransferField_InfoR32SerializationCommandQueueBuilderRP20AllowNameConversions
f_:__ZN13RenderTexture8TransferI24GenerateTypeTreeTransferEEvRT_
_mi:__ZNSt3__212basic_stringIcNS_11char_traitsIcEENS_9allocatorIcEEEC2ERKS5_jjRKS4_
Wta:__ZN15dense_hashtableINSt3__24pairIKNS0_12basic_stringIcNS0_11char_traitsIcEE13stl_allocatorIcL18MemLabelIdentifier54ELi16EEEEP20ArchiveStorageReaderEES8_11djb2_hash_tIS8_EN14dense_hash_mapIS8_SB_SE_NS0_8equal_toIS8_EES5_ISC_LS6_54ELi16EEE9SelectKeyESH_SI_E5clearEv
VVf:_DefaultComparer_Compare_m1606207039_gshared
Wli:__ZNSt3__26locale5__imp7installINS_7codecvtIDsc11__mbstate_tEEEEvPT_
D5e:_CipherSuite_get_ExchangeAlgorithmType_m3219223789
m8h:__ZN6il2cpp2vm9Parameter30GetDefaultParameterValueObjectEPK10MethodInfoPK13ParameterInfoPb
k_e:_Array_InternalArray__set_Item_TisLabelData_t3712112744_m2253365137_gshared
EIf:_MonoCMethod_get_Attributes_m3914742834
JP:__Z26scripting_object_get_classP12Il2CppObject
Pkh:_MonoBehaviour_Invoke_m666563676
HCf:_ConstructorBuilder_get_DeclaringType_m4264602248
sq:__ZNSt3__26vectorIhNS_9allocatorIhEEE8__appendEj
lbf:_RecordProtocol_InternalReceiveRecordCallback_m2228921492
CCe:_StringReader__ctor_m643998729
Ugf:_IPv6Address_TryParse_m2220524278
Ywc:__ZN5physx19NpRigidBodyTemplateINS_18PxArticulationLinkEE16setRigidBodyFlagENS_15PxRigidBodyFlag4EnumEb
hXg:__Z75RuntimeInvoker_DateTime_t693205669_DateTime_t693205669_TimeSpan_t3430258949PK10MethodInfoPvPS2_
bGa:__ZN14qsort_internal31_FindAndMovePivotToLastPositionIP17RODataReplacementi19ROSorterReplacementEEvT_S4_T0_T1_
lei:__ZNSt3__215basic_streambufIcNS_11char_traitsIcEEE4syncEv
R3f:_Context_get_DefaultContext_m2211922324
G1f:_MarshalDirectiveException__ctor_m1606841389
jqa:__Z4TrimRKNSt3__212basic_stringIcNS_11char_traitsIcEENS_9allocatorIcEEEES7_
E4e:_RSAManaged_GetPaddedValue_m2972141669
Y9e:_TlsServerCertificate_ProcessAsSsl3_m277089231
UVe:_Array_InternalArray__IEnumerable_GetEnumerator_TisUInt16_t986882611_m3665860884_gshared
SW:__Z19scripting_gc_enablev
gzd:__ZN5physx7profile11EventBufferINS_24PxDefaultContextProviderENS_6shdfnd6MutexTINS0_26WrapperReflectionAllocatorIhEEEENS0_14ScopedLockImplIS7_EENS_24PxProfileNullEventFilterEE9stopEventEty
rSa:__Z29StdTemplateConversionFunctionIihEbPvR14SafeBinaryRead
Oof:_Interval_CompareTo_m2909556284_AdjustorThunk
Xeb:__ZN14SafeBinaryRead21TransferSTLStyleArrayI13dynamic_arrayI11ColorRGBA32Lj4EEEEvRT_17TransferMetaFlags
Xii:__ZNKSt3__210moneypunctIcLb1EE13do_pos_formatEv
Inf:_Interpreter_GetLastDefined_m2450713313
Zii:__ZNSt3__210moneypunctIwLb0EED2Ev
Yyg:_Parser_ParseAssertionType_m3316669790
J9f:__ZL73Enum_t2459695545_CustomAttributesCacheGenerator_Enum_ToObject_m2460371738P21CustomAttributesCache
LO:__Z20GetPersistentManagerv
Q3f:_Context_Finalize_m1386439645
vW:__ZN21SystemInfoStringCache16StaticInitializeEPv
$5e:_TlsStream__ctor_m4117943603
KUc:__ZN5physx2Cm20visualizeLinearLimitERNS0_12RenderOutputEfRKNS_11PxTransformES5_fb
Okc:__ZN5physx2Sc7BodySim18internalWakeUpBaseEf
__h:__ZN6il2cpp2gc16GarbageCollector23MakeDescriptorForObjectEPji
ZQ:__ZNSt3__212basic_stringIcNS_11char_traitsIcEE13stl_allocatorIcL18MemLabelIdentifier1ELi16EEE21__grow_by_and_replaceEjjjjjjPKc
gLf:_ParameterModifier_t1820634920_marshal_pinvoke
Dob:__ZNK13MonoBehaviour7GetNameEv
xSh:__ZN13dynamic_arrayIP12Il2CppObjectLj4EE9push_backEv
c7:__ZN19ScriptingInvocation28AdjustArgumentsToMatchMethodEv
Nmg:__ZL56AppDomainSetup_t611332832_CustomAttributesCacheGeneratorP21CustomAttributesCache
B$g:__Z76RuntimeInvoker_Boolean_t3825574718_Ray_t2469606224_RaycastHitU26_t1969197280PK10MethodInfoPvPS2_
uOh:__ZN6il2cpp2vm4Type19GetGenericParameterEPK10Il2CppType
FPf:_InternalEnumerator_1__ctor_m439810834_AdjustorThunk
EVf:_InternalEnumerator_1_get_Current_m2826780083_gshared
jTc:__ZN5physx20NpRigidActorTemplateINS_13PxRigidStaticEE15exportExtraDataERNS_22PxSerializationContextE
l_h:__ZNK15dense_hashtableINSt3__24pairIK10KeyWrapperIP14Il2CppIUnknownEjEES5_N6il2cpp5utils11PointerHashIS3_EEN14dense_hash_mapIS5_jSB_NS0_8equal_toIS5_EENS0_9allocatorIS7_EEE9SelectKeyESE_SG_E12test_deletedEj
dW:__ZN14dense_hash_mapINSt3__212basic_stringIcNS0_11char_traitsIcEE13stl_allocatorIcL18MemLabelIdentifier54ELi16EEEEP11AssetBundle11djb2_hash_tIS7_ENS0_8equal_toIS7_EENS0_9allocatorINS0_4pairIKS7_S9_EEEEE13set_empty_keyERSG_
Yod:__ZN5physx13BigConvexData5VLoadERNS_13PxInputStreamE
LVf:_InternalEnumerator_1__ctor_m2782443954_AdjustorThunk
ld:_glBeginQuery
eAf:_Assembly_GetCustomAttributes_m95309865
$1h:__ZN6il2cpp2vmL9ends_withEPKcS2_
_2c:__ZN5physx11NodeManager6resizeEj
O2e:_RC4__ctor_m1585026462
yI:__ZN20LocalFileSystemPosix10ToAbsoluteEPKc
nTf:_InternalEnumerator_1_get_Current_m2286118957_AdjustorThunk
o1c:__ZN5physx2Sc5Scene24setContactModifyCallbackEPNS_23PxContactModifyCallbackE
fbe:_Convert_ToBoolean_m48997236
xYc:__ZNK5physx7NpScene28getSceneQueryStaticTimestampEv
Vo:__ZN6Object17MainThreadCleanupEv
g5d:_ArrayListWrapper_set_Capacity_m2792463350
uci:_getcwd
GXd:_StringBuilder_Append_m1128243247
Jzg:_AnchorInfo_get_Offset_m142119297
nVa:__ZN25ThreadsafeLinearAllocatorD2Ev
bAe:_FileStream_Seek_m950719389
z4c:__ZN5physx2Sq10AABBPruner11preallocateEj
$T:__ZN21BillboardBatchManager16StaticInitializeEPv
ulh:_Object_get_name_m2079638459
Pzi:b117
aL:__ZN12_GLOBAL__N_138ArchiveRedirectFileSystemStaticDestroyEPv
rne:_EventHandler_Invoke_m1137722757
YVc:__ZN5physx2Sc19ShapeInstancePairLLC2ERNS0_8ShapeSimES3_RNS0_9ActorPairENS_7PxFlagsINS_10PxPairFlag4EnumEtEE
_Fe:_MonoType_IsSubclassOf_m2211166238
zRh:__ZN6il2cpp6icalls8mscorlib6System5Array9GetLengthEP11Il2CppArrayi
ALf:_TypeFilter_EndInvoke_m997625354
KN:__ZN19RuntimeSceneManagerC2Ev
oWf:_Comparer_1__ctor_m2876014041_gshared
axe:_InvalidCastException__ctor_m2730571470
fmf:_X509ChainElementCollection_System_Collections_IEnumerable_GetEnumerator_m2559704689
Grg:__ZL86BigInteger_t925946153_CustomAttributesCacheGenerator_BigInteger_op_Implicit_m622924526P21CustomAttributesCache
oof:_InterpreterFactory_set_Gap_m2761943153
ujf:_PublicKey_get_Key_m126090744
m1:__ZNSt3__26vectorINS_4pairIiiEENS_9allocatorIS2_EEE6insertENS_11__wrap_iterIPKS2_EERS7_
CDe:_UnexceptionalStreamReader_Peek_m1725179274
Eta:__ZN17ArchiveFileSystem10AddStorageEP20ArchiveStorageReader
cxc:__ZN5physx19NpRigidBodyTemplateINS_18PxArticulationLinkEE27setMaxDepenetrationVelocityEf
JKc:__ZN5physx2Sc9ClothCore16setStretchConfigENS_22PxClothFabricPhaseType4EnumERKNS_20PxClothStretchConfigE
$gh:_Color_Equals_m661618137
aZc:__ZN5physx15PxsParticleData13onOriginShiftERKNS_6PxVec3E
toa:__ZN12_GLOBAL__N_112UploadFormatE13TextureFormat
U$f:_EqualityComparer_1_System_Collections_IEqualityComparer_GetHashCode_m1203798961_gshared
Urh:__ZN6il2cpp2vm5Class15GetEnumBaseTypeEP11Il2CppClass
sye:_DirectoryNotFoundException__ctor_m3713860966
lmh:_Physics_Raycast_m2009151399
mQh:__ZN15dense_hashtableINSt3__24pairIK10KeyWrapperINS1_IP11Il2CppClassjEEES4_EES6_N6il2cpp8metadata14ArrayClassHashEN14dense_hash_mapIS6_S4_SB_NSA_17ArrayClassCompareENS0_9allocatorIS8_EEE9SelectKeyESD_SF_E12resize_deltaEjj
B7a:__ZNK9Texture2D16GetNpotTexelSizeEv
gQf:_InternalEnumerator_1__ctor_m245588437_gshared
Vmf:_Capture_get_Text_m3472127896
zuh:__ZNK10KeyWrapperINSt3__212basic_stringIcNS0_11char_traitsIcEENS0_9allocatorIcEEEEEeqERKS7_
zBd:__ZN13dynamic_arrayItLj2EE6insertEPtPKtS3_
nZg:__Z35RuntimeInvoker_Category_t1984577050PK10MethodInfoPvPS2_
q$f:_DefaultComparer_GetHashCode_m4073394827_gshared
bka:__ZN9GfxDevice22GetDefaultVertexBufferE26GfxDefaultVertexBufferTypej
Mci:___fseeko_unlocked
jWh:__ZN15dense_hashtableI10KeyWrapperIP18Il2CppGenericClassES3_N6il2cpp8metadata22Il2CppGenericClassHashEN14dense_hash_setIS3_S6_NS5_25Il2CppGenericClassCompareENSt3__29allocatorIS3_EEE8IdentityES8_SB_E5clearEv
ikb:__ZN18StreamedBinaryReadILb1EE21TransferSTLStyleArrayI13dynamic_arrayI16SplashScreenLogoLj4EEEEvRT_17TransferMetaFlags
hhc:__ZN5physx3Cct17CapsuleControllerC2ERKNS_16PxControllerDescERNS_9PxPhysicsEPNS_7PxSceneE
yfb:__ZN14SafeBinaryRead21TransferSTLStyleArrayINSt3__26vectorI17BlendShapeChannelNS1_9allocatorIS3_EEEEEEvRT_17TransferMetaFlags
wX:__Z17BeginSplashScreenv
Whh:_ControllerColliderHit_get_moveDirection_m3053186297
Iji:__ZNSt3__212basic_stringIwNS_11char_traitsIwEENS_9allocatorIwEEE6appendIPwEENS_9enable_ifIXaasr21__is_forward_iteratorIT_EE5valuesr38__libcpp_string_gets_noexcept_iteratorIS9_EE5valueERS5_E4typeES9_S9_
TGb:__ZN9ShaderLab16SerializedShader8TransferI19StreamedBinaryWriteILb0EEEEvRT_
KIg:_UInt32_Parse_m2400360707
Dae:_Stack_Pop_m3788808882
Ehe:_DateTime_op_Equality_m1867073872
Hwb:__Z18Transfer_BlittableI19StreamedBinaryWriteILb0EELb0EaEvRK29SerializationCommandArgumentsR31RuntimeSerializationCommandInfo
Kja:__ZN18GfxFramebufferGLES18GetFramebufferNameERK20GfxRenderTargetSetup
PNh:__ZN6il2cpp2vm14TypeNameParser12ParseVersionERKNSt3__212basic_stringIcNS2_11char_traitsIcEENS2_9allocatorIcEEEERtSB_SB_SB_
Voi:_saveSetjmp
hTh:__ZN6il2cpp6icalls8mscorlib6System2IO6MonoIO11GetFileTypeE12Il2CppIntPtrPi
sdc:__ZN5physx6shdfnd5ArrayINS_12PxDebugPointENS0_19ReflectionAllocatorIS2_EEE15growAndPushBackERKS2_
sti:_glGetFramebufferAttachmentParameteriv__wrapper
FOd:_SecurityElement_GetAttribute_m4288291176
yvd:__ZN8Collider13AwakeFromLoadE17AwakeFromLoadMode
baa:__ZN14SafeBinaryRead20TransferTypelessDataEjPvi
lgg:__ZL66StringFreezingAttribute_t2691375565_CustomAttributesCacheGeneratorP21CustomAttributesCache
K2b:__ZN9rapidjson13GenericReaderINS_4UTF8IcEES2_13JSONAllocatorE10ParseFalseILj1ENS_25GenericInsituStringStreamIS2_EENS_15GenericDocumentIS2_S3_S3_EEEEvRT0_RT1_
eXa:__ZN33AssetBundleLoadFromAsyncOperation7PerformEv
uM:__Z19GetActiveColorSpacev
g0f:_EqualityComparer_1__cctor_m1672307556_gshared
sqf:_SoapTypeAttribute_get_IsInteropXmlElement_m2941294827
t3d:_Char_System_IConvertible_ToUInt32_m1557991717_AdjustorThunk
pUd:_Encoding_get_UTF8Unmarked_m628720656
zqe:_NumberFormatter_RoundBits_m1545255255
eN:__Z6StrCmpPKcS0_
d0a:__ZN18StreamedBinaryReadILb1EE21TransferSTLStyleArrayINSt3__26vectorI17SortingLayerEntryNS2_9allocatorIS4_EEEEEEvRT_17TransferMetaFlags
mIb:__Z21CheckGpuProgramUsable20ShaderGpuProgramType
Jrh:__ZNK15dense_hashtableINSt3__24pairIK10KeyWrapperIPK22Il2CppGenericParameterEP11Il2CppClassEES6_N6il2cpp5utils11PointerHashIS4_EEN14dense_hash_mapIS6_S9_SE_NS0_8equal_toIS6_EENS0_9allocatorISA_EEE9SelectKeyESH_SJ_E13find_positionERS7_
G0g:__Z55RuntimeInvoker_Boolean_t3825574718_Keyframe_t1449471340PK10MethodInfoPvPS2_
aBf:_Binder__cctor_m3736115807
lGa:__ZN13BatchRenderer5FlushEv
zoi:__ZNKSt8bad_cast4whatEv
qzc:__ZN5physx6shdfnd5ArrayIPvNS0_19ReflectionAllocatorINS_2Cm5BlockIhLj128EEEEEE4copyINS0_15InlineAllocatorILj256ES7_EEEEvRKNS1_IS2_T_EE
N$d:_Attribute_GetHashCode_m2653962112
F5f:_AsyncResult_GetReplyMessage_m262842621
uJa:__ZNK15SharedLightData24GetFinalShadowResolutionEv
R7g:_Enumerator__ctor_m3021143890_AdjustorThunk
YCc:__ZN5physx6shdfnd8PoolBaseINS_16NpConnectorArrayENS0_19ReflectionAllocatorIS2_EEE15disposeElementsEv
rkb:__ZN12AspectRatios8TransferI18StreamedBinaryReadILb0EEEEvRT_
NBd:__ZN14PhysicsManager19CreatePvdConnectionEv
kcg:__ZL66X509ExtensionCollection_t1640144839_CustomAttributesCacheGeneratorP21CustomAttributesCache
EPb:__ZN10GameObject14CopyPropertiesERS_
HKd:_RSACryptoServiceProvider_Common_m2581564813
vZh:__ZNSt3__214__split_bufferIN6il2cpp2os10ThreadImpl10APCRequestERNS_9allocatorIS4_EEEC2EjjS7_
tP:__ZN14SafeBinaryRead4InitERK16TypeTreeIteratorii24TransferInstructionFlags18MemLabelIdentifier
ANf:_ArrayReadOnlyList_1_GetEnumerator_m634288642_gshared
gRa:__ZNK13ScreenManager12IsFullScreenEv
kdi:_rand
Wti:_emscripten_glFramebufferRenderbuffer__wrapper
Jud:__ZNK8Collider16SupportsMaterialEv
fCc:__ZNK5physx12NpConstraint9getActorsERPNS_12PxRigidActorES3_
pli:__ZNKSt3__28numpunctIwE16do_decimal_pointEv
gsb:__ZN14SafeBinaryRead21TransferSTLStyleArrayINSt3__26vectorI17AnimationCurveTplIfE13stl_allocatorIS4_L18MemLabelIdentifier1ELi16EEEEEEvRT_17TransferMetaFlags
GUb:__Z60Register_UnityEngine_AsyncOperation_set_allowSceneActivationv
Brd:__ZN5physx6shdfnd8PoolBaseIN17PxcPoolMallocData10PoolData16ENS0_19ReflectionAllocatorIS3_EEE15disposeElementsEv
hvd:__ZN9Rigidbody23UpdateInterpolationNodeEv
Dfi:__ZNSt3__26locale2id5__getEv
wBa:__Z22PrepareOptimizedPlanesPK5PlaneiPKN4math7_float4E
WEd:__ZN11UnityEngine7Connect13ConfigHandler13ConfigChangedERK8UnityStr
ZT:__ZN17UniqueIDGenerator15CreatePureIndexEv
br:__ZN11UnityEngine9Animation28GenericAnimationBindingCache15DidReloadDomainEv
_Se:_AppDomain_InternalGetProcessGuid_m1278588156
$Jf:_MonoMethod_MakeGenericMethod_m3628255919
Iyb:__ZN6HelperI18StreamedBinaryReadILb0EE23TransferArrayField_InfoE24SerializationFunctionForERKS2_R23StaticTransferFieldInfoPb
e9d:_HashValues_get_Count_m234926373
PUe:_Array_InternalArray__ICollection_Remove_TisIl2CppObject_m2425110446_gshared
yxe:_BinaryReader_ReadBoolean_m2892291883
hNf:_ArrayReadOnlyList_1_Clear_m2539474626_gshared
Pjg:__ZL66DSASignatureDeformatter_t2187578719_CustomAttributesCacheGeneratorP21CustomAttributesCache
HRb:__ZN4Mesh24UpdateSubMeshVertexRangeEi
lYg:__Z91RuntimeInvoker_Boolean_t3825574718_Il2CppObject_Il2CppObject_Il2CppObject_Int32_t2071877448PK10MethodInfoPvPS2_
f$g:__Z67RuntimeInvoker_Void_t1841601450_GenericMixerPlayableU26_t1620735334PK10MethodInfoPvPS2_
rma:__ZNSt3__26vectorI27ComputeShaderBuiltinSamplerNS_9allocatorIS1_EEE21__push_back_slow_pathIKS1_EEvRT_
c0g:__Z95RuntimeInvoker_Void_t1841601450_ObjectU5BU5DU26_t3223402458_Int32_t2071877448_Int32_t2071877448PK10MethodInfoPvPS2_
tVd:_ASCIIEncoding_GetString_m3931709239
TVg:__Z52RuntimeInvoker_DateTime_t693205669_Int16_t4041245914PK10MethodInfoPvPS2_
ABg:_Uri__ctor_m3927533881
Cbg:__ZL61DllImportAttribute_t3000813225_CustomAttributesCacheGeneratorP21CustomAttributesCache
KM:__ZNK9Transform18TransformDirectionERK8Vector3f
und:__ZN5physx21PxsBodyTransformVault6updateEv
bwa:__ZNK17ArchiveFileSystem12GetAssetGUIDERK13FileEntryData
eIb:__ZNSt3__26vectorIN9ShaderLab20SerializedSubProgram15MatrixParameterENS_9allocatorIS3_EEE21__push_back_slow_pathIKS3_EEvRT_
sT:__ZN13RuntimeStaticINSt3__23setIPFvP11Il2CppClassR23CachedSerializationDataRbENS0_4lessIS8_EENS0_9allocatorIS8_EEEEE16StaticInitializeEPv
m5b:__ZL29GeomMTDCallback_CapsuleConvexRN5physx6PxVec3ERfRKNS_10PxGeometryERKNS_11PxTransformES5_S8_
Bii:__ZNKSt3__210__time_put8__do_putEPwRS1_PK2tmcc
C0f:_EqualityComparer_1_get_Default_m1852501307_gshared
JD:__ZNKSt3__23mapINS_12basic_stringIcNS_11char_traitsIcEENS_9allocatorIcEEEES6_NS_4lessIS6_EENS4_INS_4pairIKS6_S6_EEEEE16__find_equal_keyERPNS_16__tree_node_baseIPvEERSA_
SZg:__Z94RuntimeInvoker_Void_t1841601450_Il2CppObject_ByteU5BU5DU26_t790777611_ByteU5BU5DU26_t790777611PK10MethodInfoPvPS2_
doi:__ZNK10__cxxabiv120__si_class_type_info27has_unambiguous_public_baseEPNS_19__dynamic_cast_infoEPvi
jse:_NumberFormatInfo_get_PercentNegativePattern_m1162448153
Tcg:__ZL56SyncHashtable_t1343674558_CustomAttributesCacheGeneratorP21CustomAttributesCache
Gnb:__ZN24RingBufferMemoryFileData9SetLengthEy
Lri:_glTexSubImage3D__wrapper
enf:_FactoryCache_Add_m2602974721
zya:__Z21WriteImageAsyncThreadPv
qT:__ZL16GetInterfaceImpl18UnityInterfaceGUID
lsh:__ZN6il2cpp2vmL17SetupFieldOffsetsENS0_15FieldLayoutKindEP11Il2CppClassjRKNSt3__26vectorIjNS4_9allocatorIjEEEE
y8g:_List_1_System_Collections_IList_get_Item_m936612973_gshared
lr:__ZNSt3__26vectorI8UnityStrNS_9allocatorIS1_EEE26__swap_out_circular_bufferERNS_14__split_bufferIS1_RS3_EE
VF:__ZN13EmscriptenWWW7GetSizeEv
s1h:__ZN6il2cpp6icalls8mscorlib6System15MonoCustomAttrs27GetCustomAttributesInternalEP12Il2CppObjectP20Il2CppReflectionTypeb
J$b:__ZN8JSONRead21TransferSTLStyleArrayI13dynamic_arrayI8Vector3fLj4EEEEvRT_18MemLabelIdentifier17TransferMetaFlags
$ha:__Z24PluginsSetGraphicsDevicePvi18GfxDeviceEventType
Stf:_ObjectReader_ReadAssembly_m869834280
C3b:__ZNK5physx3Cct13BoxController11getPositionEv
I3a:__ZN22RenderingCommandBufferD0Ev
qQc:__ZN5physx14NpRigidDynamicC2ERKNS_11PxTransformE
UDf:_EnumBuilder_GetPropertyImpl_m2717304076
$8b:__Z27sweepCCTBox_HeightFieldGeomRKN5physx10PxGeometryERKNS_11PxTransformERKNS_2Gu3BoxERKNS_6PxVec3EfRNS_10PxSweepHitENS_7PxFlagsINS_9PxHitFlag4EnumEtEEf
gu:__ZL31InitializeAudioScriptingClassesv
mEa:__Z14SortGUIByDepthP10GUIElementS0_
xue:_NumberFormatter_NumberToString_m126384393
Lh:_glBindSampler
w6f:_LogicalCallContext__ctor_m3173272863
W4b:__ZN5physx3Cct9SweepTest18updateTouchedGeomsEPKNS0_30InternalCBData_FindTouchedGeomERKNS0_13UserObstaclesERKNS_17PxExtendedBounds3ERKNS_19PxControllerFiltersERKNS_6PxVec3E
HEe:_MonoCustomAttrs__cctor_m2608447972
kue:_Int32_FindSign_m3803672540
OWf:_Enumerator_System_Collections_IEnumerator_Reset_m70453843_AdjustorThunk
nzd:_PxCloseExtensions
gJ:__ZNK20LocalFileSystemPosix21GetAvailableDiskSpaceEPKcRy
eq:__ZNSt3__26__treeIiNS_4lessIiEENS_9allocatorIiEEE7destroyEPNS_11__tree_nodeIiPvEE
R5e:_CipherSuite_InitializeCipher_m229247572
Uda:__ZNK9GfxDevice14GetWorldMatrixEv
wKf:_MonoProperty_GetGetMethod_m1100580870
KZf:_Dictionary_2__ctor_m1950568359_gshared
TWf:_Enumerator_System_Collections_IDictionaryEnumerator_get_Key_m1214978221_AdjustorThunk
ny:__ZN11SoundHandle13CreateChannelEb
W8a:__ZN14SafeBinaryRead21TransferSTLStyleArrayI13dynamic_arrayI12LightmapDataLj4EEEEvRT_17TransferMetaFlags
sTe:_ArgumentException__ctor_m3312963299
jZa:__ZN21AssetBundleFileSystem11CreateAsDirER13FileEntryData
WEb:__ZNSt3__26vectorIN9ShaderLab20SerializedSubProgram16TextureParameterENS_9allocatorIS3_EEE6assignIPS3_EENS_9enable_ifIXaasr21__is_forward_iteratorIT_EE5valuesr16is_constructibleIS3_NS_15iterator_traitsISA_E9referenceEEE5valueEvE4typeESA_SA_
wZh:__ZNSt3__26vectorIN6il2cpp2os10ThreadImpl10APCRequestENS_9allocatorIS4_EEE26__swap_out_circular_bufferERNS_14__split_bufferIS4_RS6_EE
WQf:_InternalEnumerator_1_System_Collections_IEnumerator_Reset_m2726857860_AdjustorThunk
Wsb:__ZN9Scripting36IsSystemCollectionsGenericDictionaryEP11Il2CppClass
W$a:__Z14resize_trimmedINSt3__26vectorIN4core12basic_stringIcNS2_20StringStorageDefaultIcEEEENS0_9allocatorIS6_EEEEEvRT_j
L7g:_Enumerator_System_Collections_IEnumerator_get_Current_m2853089017_AdjustorThunk
vKc:__ZNK5physx2Sc9ClothCore20getNbCollisionPlanesEv
Bg:_emscripten_exit_fullscreen
kad:__ZNK5physx23PxsBroadPhaseContextSap7getTypeEv
Apd:__ZNK5physx13GuMeshFactory17getNbHeightFieldsEv
r1f:_GCHandle_Free_m1639542352_AdjustorThunk
I8e:_Context_set_ClientRandom_m631392719
r$h:__ZN6il2cpp6icalls8mscorlib6System6String19InternalAllocateStrEi
A$b:__Z29Transfer_Blittable_ArrayFieldI8JSONRead11QuaternionfEvRT_R9ArrayInfoRK23StaticTransferFieldInfo
nig:__ZL65SoapParameterAttribute_t2780084514_CustomAttributesCacheGeneratorP21CustomAttributesCache
N4c:__ZNK5physx2Gu12OBBAABBTestsILb1EEclENS_6shdfnd3aos5Vec3VES5_
n1a:__ZN9Behaviour8TransferI18StreamedBinaryReadILb0EEEEvRT_
$wg:_Enumerator_System_Collections_IEnumerator_get_Current_m1429268283
Thh:_ControllerColliderHit_get_transform_m3183428555
Ddc:__ZN26IntersectAnyVsMeshCallbackILi0ELb0EED2Ev
Wai:___toread
$E:__ZN19CloudServiceHandler10QueueEventEPN11UnityEngine15CloudWebService14CloudEventInfoE
Ooi:___cxa_is_pointer_type
tna:__ZN4gles20DestroyRenderSurfaceEP7ApiGLESP17RenderSurfaceGLES
K7g:_Enumerator_System_Collections_IEnumerator_get_Current_m2853089017_gshared
DUh:__ZN15dense_hashtableINSt3__24pairIK10KeyWrapperINS1_IPKcS4_EEEiEES6_24NamespaceAndNamePairHashN14dense_hash_mapIS6_iS9_26NamespaceAndNamePairEqualsNS0_9allocatorIS8_EEE9SelectKeyESB_SD_E8min_sizeEjj
BV:__ZN17MessageIdentifier13StaticDestroyEPv
cmi:__ZNSt3__26locale5__imp7installINS_7num_putIcNS_19ostreambuf_iteratorIcNS_11char_traitsIcEEEEEEEEvPT_
h8b:__ZN12_GLOBAL__N_141SphereMeshContactGenerationCallback_ScaleD0Ev
gfc:__ZN5physx3Cct17CapsuleController16setContactOffsetEf
xZg:__Z52RuntimeInvoker_Void_t1841601450_StringU26_t638738783PK10MethodInfoPvPS2_
R2:__ZN17PersistentManager40GlobalToLocalSerializedFileIndexInternalERK26SerializedObjectIdentifier
mJe:_SimpleCollator_CompareOrdinal_m2176988387
Gvg:__ZL47Rect_t3681755626_CustomAttributesCacheGeneratorP21CustomAttributesCache
hoe:_CCGregorianCalendar_GetYear_m1289900195
HBc:__ZN12GeomQueryAnyIN5physx10PxSweepHitEE7geomHitERKNS0_2Sq17SceneQueryManagerERKNS0_15MultiQueryInputERKNS3_9ShapeDataERKNS0_10PxGeometryERKNS0_11PxTransformENS0_7PxFlagsINS0_9PxHitFlag4EnumEtEEjPS1_fbPNS0_9PxBounds3E
vue:_Int16_ToString_m2592645088
wia:__ZN13TranslateGLES4InitERK12GraphicsCaps16GfxDeviceLevelGL
Izb:__Z29Transfer_Blittable_ArrayFieldI18StreamedBinaryReadILb0EE10ColorRGBAfEvRT_R9ArrayInfoRK23StaticTransferFieldInfo
r7b:__ZN43CapsuleHeightfieldContactGenerationCallback7onEventEjPj
hxd:__ZThn4_N12MemoryStream4readEPvj
Gvf:_SerializationInfoEnumerator_Reset_m2206466680
q1g:__Z48RuntimeInvoker_Void_t1841601450_Slot_t2267560602PK10MethodInfoPvPS2_
mHb:__ZNSt3__26__treeINS_12__value_typeI8UnityStriEENS_19__map_value_compareIS2_S3_NS_4lessIS2_EELb1EEENS_9allocatorIS3_EEE4findIS2_EENS_15__tree_iteratorIS3_PNS_11__tree_nodeIS3_PvEEiEERKT_
tQh:__ZNK15dense_hashtableINSt3__24pairIK10KeyWrapperIP11Il2CppClassES4_EES5_N6il2cpp8metadata16SZArrayClassHashEN14dense_hash_mapIS5_S4_SA_NS9_19SZArrayClassCompareENS0_9allocatorIS7_EEE9SelectKeyESC_SE_E10test_emptyERK24dense_hashtable_iteratorIS7_S5_SA_SG_SC_SE_E
Cxa:__ZZ23InitPlayerLoopCallbacksvEN33PostLateUpdateInputEndFramestruct7ForwardEv
cdg:__ZL57DebuggingModes_t2073970606_CustomAttributesCacheGeneratorP21CustomAttributesCache
SEe:__ZN16VirtFuncInvoker0IP12MethodInfo_tE6InvokeEjPv
Bnb:__ZN24RingBufferMemoryFileDataD0Ev
Nlb:__ZNSt3__26vectorIN30RuntimeInitializeOnLoadManager15ClassMethodInfoE13stl_allocatorIS2_L18MemLabelIdentifier12ELi16EEE8__appendEj
ZTc:__ZN5physx6shdfnd8internal8HashBaseIPNS_13NpVolumeCacheES4_NS0_4HashIS4_EENS1_11HashSetBaseIS4_S6_NS0_9AllocatorELb0EE6GetKeyES8_Lb0EE15reserveInternalEj
UZg:__Z84RuntimeInvoker_Il2CppObject_Il2CppObject_Il2CppObject_Il2CppObject_Int32_t2071877448PK10MethodInfoPvPS2_
JEc:__ZN5physx6shdfnd8internal8HashBaseIPKNS_6PxBaseES5_NS0_4HashIS5_EENS1_11HashSetBaseIS5_S7_NS0_9AllocatorELb0EE6GetKeyES9_Lb0EE6createERKS5_Rb
R8c:__ZN5physx28solveFrictionCoulombPreBlockEPKNS_23PxcSolverConstraintDescEjRNS_16PxcSolverContextE
stb:__Z18Transfer_BlittableI17RemapPPtrTransferLb0E11ColorRGBA32EvRK29SerializationCommandArgumentsR31RuntimeSerializationCommandInfo
zCf:_TypeBuilder_get_is_created_m736553860
w4e:_RSAManaged__ctor_m1370411656
Vyb:__Z18Transfer_BlittableI18StreamedBinaryReadILb0EELb1E10ColorRGBAfEvRK29SerializationCommandArgumentsR31RuntimeSerializationCommandInfo
Q6a:__ZN12CubemapArray23VirtualRedirectTransferER17RemapPPtrTransfer
tTb:__ZL27GetComponentsImplementationILb0ELi0EEbR10GameObjectbRK17CompareParametersRK39GetComponentsImplementation_ReturnValue
jwi:_emscripten_glGetActiveAttrib__wrapper
nQ:__Z18BuildScriptClassIdP11Il2CppClass
dAg:_BalancingGroup__ctor_m2474435406
qAc:__ZN5physx12NpConstraint12actorDeletedEPNS_12PxRigidActorE
MR:__ZL16ReadTypeTreeImplILb0EEbR8TypeTreeRK16TypeTreeIteratorRPKhS6_i
$1d:_Byte_System_IConvertible_ToInt32_m1032609763_AdjustorThunk
pIb:__ZN9ShaderLab7ProgramD0Ev
ajc:__ZN5physx2Sc8ShapeSim18reinsertBroadPhaseEv
t4g:_PKCS12_GetSymmetricAlgorithm_m3196291685
p5d:_ArrayListWrapper_IndexOf_m3574835167
Hyc:__ZN5physx2Sc5Scene11removeShapeERNS0_8ShapeSimEb
LLa:__ZN28LightProbeProxyVolumeContext8CopyFromERKS_
LS:__ZN23TransformChangeDispatch32QueueTransformChangeIfHasChangedER18TransformHierarchy
KMd:_SymmetricAlgorithm_get_FeedbackSize_m544664262
zJh:__ZNK15dense_hashtableINSt3__24pairIK10KeyWrapperINS1_IPK12PropertyInfoP11Il2CppClassEEEjEES9_17ReflectionMapHashIS8_EN14dense_hash_mapIS9_jSD_19ReflectionMapEqualsIS8_ENS0_9allocatorISB_EEE9SelectKeyESG_SI_E5beginEv
qKa:__ZN18DeferredRenderLoop15RenderFinalPassEP13RenderTextureS1_
Vei:__ZNSt3__213basic_ostreamIcNS_11char_traitsIcEEE6sentryD2Ev
una:__ZN7ApiGLES18DeleteRenderbufferERj
Mmc:__ZN5physx6shdfnd5ArrayIPvNS0_15InlineAllocatorILj256ENS0_19ReflectionAllocatorINS_16NpConnectorArrayEEEEEE15growAndPushBackERKS2_
mma:__ZL23ProgramUniformMatrix4fvPK7ApiGLESjiihPKv
wmg:__ZL67ThreadInterruptedException_t63303933_CustomAttributesCacheGeneratorP21CustomAttributesCache
ycd:__ZN5physx14SingleAABBTaskC2Ev
VUf:_InternalEnumerator_1_MoveNext_m3629145604_gshared
DEb:__ZN9ShaderLab20SerializedSubProgram15MatrixParameter8TransferI14SafeBinaryReadEEvRT_
a0d:_BitConverter_AmILittleEndian_m2716658112
vTb:__ZL27GetComponentsImplementationILb0ELi1EEbR10GameObjectbRK17CompareParametersRK39GetComponentsImplementation_ReturnValue
gTa:__Z29StdTemplateConversionFunctionIatEbPvR14SafeBinaryRead
TCg:_UTF8Decoder__ctor_m1460357288
S_:__ZN13RenderTexture7ReleaseEv
rhb:__ZN10MeshFilter23VirtualRedirectTransferER14SafeBinaryRead
Uxg:_PatternCompiler_EmitBranchEnd_m3390109636
wbe:_Convert_ToByte_m1201588964
Bhb:__ZN12MeshRenderer17MainThreadCleanupEv
uUb:__Z36AsyncOperation_Get_Custom_PropIsDoneP12Il2CppObject
gqa:__ZN22CreateGpuProgramOutput12CreateParamsEv
hwf:_RuntimeMethodHandle_GetHashCode_m2682236001_AdjustorThunk
hxc:__ZNK5physx18NpArticulationLink11getChildrenEPPNS_18PxArticulationLinkEj
n2f:_ActivationServices_AllocateUninitializedClassInstance_m3410698501
lia:__ZNK14GfxContextGLES13GetDefaultFBOEv
u2h:_GC_promote_black_lists
ZUe:_Array_InternalArray__ICollection_Remove_TisSByte_t454417549_m2474211570_gshared
Tkd:__Z15atomIntegrationfPKPN5physx11PxsBodyCoreEPKPNS_12PxsRigidBodyEjPKNS_2Cm13SpatialVectorEPNS_13PxcSolverBodyEPNS_17PxcSolverBodyDataEPS9_RjSH_
cTc:__ZN5physx13NpRigidStatic11createShapeERKNS_10PxGeometryEPKPNS_10PxMaterialEtNS_7PxFlagsINS_11PxShapeFlag4EnumEhEE
zdb:__ZN18StreamedBinaryReadILb1EE21TransferSTLStyleArrayI13dynamic_arrayI12SpriteVertexLj4EEEEvRT_17TransferMetaFlags
GEh:_il2cpp_class_is_enum
pef:_AuthorityKeyIdentifierExtension_get_Identifier_m3535568551
S0:__ZNSt3__23mapIN9ShaderLab16FastPropertyNameEN18UnityPropertySheet11UnityTexEnvENS_4lessIS2_EENS_9allocatorINS_4pairIKS2_S4_EEEEEixERS9_
Twe:_IntPtr_ToString_m428195821_AdjustorThunk
Oqc:__ZN5physx11NpAggregate22removeActorAndReinsertERNS_7PxActorEb
tsd:__ZZL19ExtractHullPolygonsRjRN5physx2Gu9ContainerERKNS0_17ConvexHullBuilderEPS2_S3_EN5Local9FloodFillES3_PKNS0_11AdjTriangleEjPb
iEf:_FieldBuilder_get_FieldType_m2267463269
u$d:_SimpleEnumerator_Clone_m3032847657
Oxg:_PatternCompiler_EmitInfo_m597931026
Uwh:__ZN6il2cpp2vm13MetadataCache34GetTypeInfoFromTypeDefinitionIndexEi
I1e:_ModulusRing_Multiply_m3113924743
v8e:_Context_get_ServerSettings_m225713600
Ai:_emscripten_glVertexAttrib4f
trg:__ZL66Uri_t19570940_CustomAttributesCacheGenerator_Uri__ctor_m3854873816P21CustomAttributesCache
NCd:__ZL28RegisterModuleICalls_Physicsv
Kgb:__ZN10Matrix4x4f8TransferI19StreamedBinaryWriteILb0EEEEvRT_
Gkb:__ZN15ResourceManager23VirtualRedirectTransferER18StreamedBinaryReadILb1EE
eo:FUNCTION_TABLE_vf
yGe:_MonoType_GetGenericArguments_m2708198481
uFa:__ZN11HaloManager21ReleaseGeometryJobMemEP25DynamicVBOGeometryJobData
wtc:__ZN5physx14NpArticulation26setMaxProjectionIterationsEj
ygc:__ZN5physx3Cct15ObstacleContext14removeObstacleEj
eMh:_GenericEqualityComparer_1_GetHashCode_m3450627064_gshared
gDg:_WaitHandle__ctor_m1256161634
lga:__ZN9GfxDevice18SetGlobalDepthBiasEff
ACh:__ZN6il2cpp6icalls8mscorlib6System8MonoType12get_AssemblyEP20Il2CppReflectionType
AQd:_SecurityException_get_PermissionType_m3543350822
Ni:_emscripten_glGetPointerv
pjh:_GenericMixerPlayable_Destroy_m3608330239_AdjustorThunk
DQc:__ZNK5physx15NpActorTemplateINS_14PxRigidDynamicEE13getActorFlagsEv
Uxd:__ZN5physx7profile8ZoneImplINS_28PxProfileNameProviderForwardEE17handleBufferFlushEPKhj
ohi:__ZNKSt3__28time_getIcNS_19istreambuf_iteratorIcNS_11char_traitsIcEEEEE11do_get_yearES4_S4_RNS_8ios_baseERjP2tm
Lqc:__ZN5physx2Sc5ActorC2ERNS0_16InteractionSceneEhNS0_14IslandNodeInfo4TypeE
puc:__ZN5physx21PxcArticulationHelper16prepareDataBlockERNS_9PxcFsDataEPKNS_19PxsArticulationLinkEtPNS_11PxTransformEPNS_12PxcFsInertiaEPNS_30PxcArticulationJointTransformsEj
uLc:__ZN5physx15NpActorTemplateINS_7PxClothEED2Ev
eeg:__ZL55StreamReader_t2360341767_CustomAttributesCacheGeneratorP21CustomAttributesCache
LSg:__Z135RuntimeInvoker_IntPtr_t_Il2CppObject_Int32_t2071877448_Int32_t2071877448_Int32_t2071877448_Int32_t2071877448_MonoIOErrorU26_t1029615899PK10MethodInfoPvPS2_
ZJc:__ZN5physx2Sc9ClothCore16setRestPositionsEPKNS_6PxVec4E
gsh:__ZN6il2cpp2vmL15GetBitmapNoInitEP11Il2CppClassPjRjj
SVa:__ZL13MotionHandleriPK27EmscriptenDeviceMotionEventPv
olf:_X509Certificate2Collection__ctor_m819526826
$ab:__ZN8Renderer10SetVisibleEb
Ht:__ZN12AudioManager5ResetEv
Krh:__ZNK15dense_hashtableINSt3__24pairIK10KeyWrapperIPK22Il2CppGenericParameterEP11Il2CppClassEES6_N6il2cpp5utils11PointerHashIS4_EEN14dense_hash_mapIS6_S9_SE_NS0_8equal_toIS6_EENS0_9allocatorISA_EEE9SelectKeyESH_SJ_E12test_deletedEj
Z2e:_KeyBuilder_Key_m3814433741
tTe:_ArgumentException__ctor_m158205422
C5:__ZN6prcoreL17RemapGenericFloatI17TexFormatRGBAHalf15TexFormatRGHalfEEvPKNS_9InnerInfoE
w$h:__ZN6il2cpp6icalls8mscorlib6System11Environment20GetWindowsFolderPathEi
ZHb:__ZN9ShaderLab20SerializedSubProgram15AddTextureParamEPKcii16TextureDimension
$B:__ZN23CloudWebServicesManager23VirtualRedirectTransferER17RemapPPtrTransfer
i9b:__ZNK5physx2Gu15HeightFieldUtil12traceSegmentI24ConvexVsHeightfieldSweepLb0ELb0ELb1EEEvRKNS_6PxVec3ES6_PT_PS5_
dnb:__Z23AppendPathNameExtensionRKNSt3__212basic_stringIcNS_11char_traitsIcEENS_9allocatorIcEEEES7_
cpd:__ZNK5physx12PxConvexMesh19getConcreteTypeNameEv
J9b:__ZN5physx2Gu19gjkLocalPenetrationINS0_9TriangleVENS0_17ShrunkConvexHullVEEEjRKT_RKT0_RKNS_6shdfnd3aos6FloatVERNSB_5Vec3VESG_SG_RSC_PhSI_Rhb
jFe:_MonoEnumInfo_get_enum_info_m1382505982
pbc:__ZN5physx2Gu15GJKLocalRayCastERNS0_9TriangleVERNS0_4BoxVERKNS_6shdfnd3aos6FloatVERKNS6_5Vec3VESC_RS7_RSA_SE_fb
Gsd:__ZN5physx18AdjacenciesBuilderC2Ev
_ic:__ZN5physx2Sc13ShapeIterator4initERKNS0_8ActorSimE
pOb:__ZNK20LightPropertyBinding9BindValueER6ObjectRKN11UnityEngine9Animation14GenericBindingERNS3_10BoundCurveE
U3f:_Context_get_IsDefaultContext_m3300558634
D0h:__ZNSt3__218uninitialized_copyIPNS_4pairIK10KeyWrapperIPK19Il2CppGenericMethodEP10MethodInfoEESB_EET0_T_SD_SC_
Vxb:__Z19TransferField_ArrayI19StreamedBinaryWriteILb0EE27Converter_SimpleNativeClassI8GUIStyleEEvRK23StaticTransferFieldInfoR31RuntimeSerializationCommandInfoRT0_
hId:__ZN18VirtActionInvoker1IP22ByteU5BU5D_t3397334013E6InvokeEjPvS1_
ZEc:__ZN5physx14NpArticulationC2Ev
Xvi:_emscripten_glCopyTexSubImage2D__wrapper
VH:__ZNK13ScreenManager12GetIsFocusedEv
bsf:_RemotingServices_RegisterInternalChannels_m1827304423
jBh:__ZNSt3__213__vector_baseIN6il2cpp2os19SocketHandleWrapperENS_9allocatorIS3_EEED2Ev
WLe:_ASN1_get_Length_m3359111015
ZDg:_Thread_GetCachedCurrentUICulture_m5590127
N6a:__ZNK12CubemapArray20GetRuntimeMemorySizeEv
Dra:__ZN9GfxDevice5FlushEv
vFb:__Z14resize_trimmedINSt3__26vectorIN9ShaderLab18SerializedPropertyENS0_9allocatorIS3_EEEEEvRT_j
QJe:_Context_t2636657155_marshal_pinvoke_back
BUg:__Z89RuntimeInvoker_Boolean_t3825574718_Il2CppObject_Il2CppObject_StreamingContext_t1417235061PK10MethodInfoPvPS2_
O1d:_Byte_System_IConvertible_ToDateTime_m1583041031
vX:__ZNSt3__26__treeINS_12__value_typeINS_12basic_stringIcNS_11char_traitsIcEENS_9allocatorIcEEEEiEENS_19__map_value_compareIS7_S8_NS_4lessIS7_EELb1EEENS5_IS8_EEE4findIS7_EENS_15__tree_iteratorIS8_PNS_11__tree_nodeIS8_PvEEiEERKT_
Izh:__ZL24UnresolvedVirtualCall_68P12Il2CppObjectS0_iS0_S0_S0_S0_S0_S0_PK10MethodInfo
kgb:__ZN10VertexData8TransferI24GenerateTypeTreeTransferEEvRT_
i0h:__ZN13Il2CppHashMapIPK19Il2CppGenericMethodP10MethodInfoN6il2cpp8metadata23Il2CppGenericMethodHashENS6_26Il2CppGenericMethodCompareENSt3__29allocatorINS9_4pairIK10KeyWrapperIS2_ES4_EEEEEC2EjRKS7_RKS8_
PPe:_EncryptedData_get_EncryptionAlgorithm_m1301274243
RAa:__ZL10CullLightsRK22SceneCullingParametersR11CullResults
N_d:_Array_IndexOf_m2819632474
oXc:__ZN5physx7NpScene21setDominanceGroupPairEhhRKNS_20PxDominanceGroupPairE
aQb:__Z40GetTemporaryCachePathApplicationSpecificv
Aea:__ZN9GfxDevice16EndAsyncJobFrameEv
vki:__ZNKSt3__27codecvtIcc11__mbstate_tE11do_encodingEv
xnb:__ZN24RingBufferMemoryFileData11SetGrowableEb
Qih:_PersistentCall__ctor_m2079279187
Wae:_Convert_ToBase64String_m1936815455
Ik:___syscall3
ePc:__ZNK5physx15NpActorTemplateINS_16PxParticleSystemEE7getNameEv
Lk:___syscall6
Nfa:__ZN9GfxDevice15GetNextCPUFenceEv
Nk:___syscall4
Pje:_Decimal_ToString_m759431975
tBd:__ZN8Collider7PRODUCEE18MemLabelIdentifier18ObjectCreationMode
FAh:__ZL25UnresolvedVirtualCall_119P12Il2CppObjectiaPK10MethodInfo
JXh:__ZN6il2cpp2vm3RCW14QueryInterfaceILb1EEEP14Il2CppIUnknownP15Il2CppComObjectRK10Il2CppGuid
JNg:__Z59RuntimeInvoker_UnicodeCategory_t682236799_Int16_t4041245914PK10MethodInfoPvPS2_
tig:__ZL59ITrackingHandler_t2759960940_CustomAttributesCacheGeneratorP21CustomAttributesCache
bl:_emscripten_glShaderBinary
wEg:_DelegatePInvokeWrapper_ThreadStart_t3437517264
yGf:_OpCode_Equals_m3738130494
PZd:_Array_InternalArray__RemoveAt_m1126483634
xcf:_SslStreamBase_Dispose_m747909841
WRf:_InternalEnumerator_1_Dispose_m4038440306_AdjustorThunk
hff:_DictionaryNodeEnumerator_get_DictionaryNode_m3521889822
Akd:__ZNK5physx18PxsSolverStartTask7getNameEv
xod:__ZNK5physx2Sc15ClothFabricCore16getTetherLengthsEPfj
wq:__ZN17AnimationCurveTplIfE8TransferI18StreamedBinaryReadILb1EEEEvRT_
Zhe:_DateTimeOffset_GetHashCode_m3312197462_AdjustorThunk
aFd:__ZN18UnityConnectClientD2Ev
Hhf:_ServicePoint_set_UseNagleAlgorithm_m2618011464
_Dh:_il2cpp_set_data_dir
e0c:__ZN5physx2Sc13ConstraintSim8getForceERNS_6PxVec3ES3_
QBg:_Uri_get_IsUnc_m2111738174
E_a:__ZN16LevelGameManager23VirtualRedirectTransferER19StreamedBinaryWriteILb0EE
Kfb:__Z32TransferEnumWithNameForceIntSizeI14SafeBinaryRead16GfxPrimitiveTypeEvRT_RT0_PKc17TransferMetaFlags
HGf:_ParameterBuilder_get_Attributes_m2421099277
e8a:__ZN18StreamedBinaryReadILb1EE21TransferResourceImageE19ActiveResourceImagePKcR13StreamingInfoPvj
Y4b:__ZN5physx15PxGeometryQuery18computePenetrationERNS_6PxVec3ERfRKNS_10PxGeometryERKNS_11PxTransformES6_S9_
nEd:__ZN11UnityEngine15PlatformWrapper30GetGraphicsDriverLibraryStringEv
ZXf:_Enumerator_VerifyState_m262343092_AdjustorThunk
dCd:__ZN5Unity12PhysicsQueryC2Ev
gzh:__ZL24UnresolvedVirtualCall_40P12Il2CppObjectS0_PK10MethodInfo
g4e:_EncryptedPrivateKeyInfo_Decode_m1706190306
iyb:__Z18Transfer_BlittableI18StreamedBinaryReadILb0EELb0E4AABBEvRK29SerializationCommandArgumentsR31RuntimeSerializationCommandInfo
Bid:__ZN5physx10PxsContext13updateIslandsEfPNS_10PxBaseTaskE
_hh:_ControllerColliderHit_t4070855101_marshal_pinvoke
bfe:_Convert_ToUInt16_m1665900934
GWg:__Z52RuntimeInvoker_UInt32_t2149682021_Double_t4078015681PK10MethodInfoPvPS2_
nMa:__Z14DrawGUITextureRK5RectTIfEP7Texture11ColorRGBA32P8Materiali
F1e:_Kernel_DwordMod_m978954867
k_:__ZN15TextureSettings8TransferI24GenerateTypeTreeTransferEEvRT_
mPg:__Z52RuntimeInvoker_Decimal_t724701077_Double_t4078015681PK10MethodInfoPvPS2_
Ywg:_MatchCollection_GetEnumerator_m3516985966
R0b:__ZN9JSONWrite8TransferI4AABBEEvRT_PKc17TransferMetaFlags
GUd:_UTF7Encoding__ctor_m2365939916
Pua:__ZN25MultiBlocksMemoryFileData9SetLengthEy
cz:__Z30GetAudioSpatializerDefinitionsR13dynamic_arrayIP29AudioEffectInternalDefinitionLj4EE
Eld:__ZNK18ScBeforeSolverTask7getNameEv
q7a:__ZNK9Texture2D20GetRuntimeMemorySizeEv
UHg:_TypeInitializationException__ctor_m2993591639
O8c:__ZN5physx14solve1D4_BlockEPKNS_23PxcSolverConstraintDescEjRNS_16PxcSolverContextE
jm:_emscripten_glUniform2iv
Jjg:__ZL46DES_t1353513560_CustomAttributesCacheGeneratorP21CustomAttributesCache
v5b:__ZL33GeomMTDCallback_ConvexHeightFieldRN5physx6PxVec3ERfRKNS_10PxGeometryERKNS_11PxTransformES5_S8_
Yng:__ZL79Convert_t2607082565_CustomAttributesCacheGenerator_Convert_ToSingle_m2156102599P21CustomAttributesCache
Bsh:__ZN6il2cpp2vm5Class10GetMethodsEP11Il2CppClassPPv
iMf:_ResourceEnumerator_MoveNext_m2405062020
Fag:__ZL65Il2CppArray_CustomAttributesCacheGenerator_Array_Sort_m3500510484P21CustomAttributesCache
CPd:_Hash_GetObjectData_m315532943
Jia:__ZN7ApiGLES17DeleteFramebufferERN2gl6HandleILNS0_10ObjectTypeE9EEES3_
osh:__ZN13dynamic_arrayIP11Il2CppClassLj4EE7reserveEj
gpa:__ZN15UniformTFMethod13MapBoneBufferEj
r7e:_RecordProtocol_SendAlert_m2816808523
wSf:_InternalEnumerator_1_get_Current_m3296972783_gshared
Vdd:__ZN5physx26PxcPCMContactCapsuleConvexERKNS_2Gu13GeometryUnionES3_RKNS_11PxTransformES6_RKfRNS_10PxcNpCacheERNS0_13ContactBufferE
Fje:_Decimal_CompareTo_m2454501434
PCe:_SynchronizedReader_Read_m1399666181
YIf:_MonoEvent_get_Name_m2796714646
DW:__Z9SetupArgviPPKc
$Ve:_Array_InternalArray__IEnumerable_GetEnumerator_TisHitInfo_t1761367055_m2486283755_gshared
z2b:__ZN9rapidjson13GenericReaderINS_4UTF8IcEES2_13JSONAllocatorE11ParseObjectILj0ENS_19GenericStringStreamIS2_EENS_15GenericDocumentIS2_S3_S3_EEEEvRT0_RT1_
I1d:_Convert_ToBoolean_m2032547942
N$h:__ZN6il2cpp2os6Thread2IdEv
z8e:_Context_get_SentConnectionEnd_m3114190867
Prc:__ZN5physx10PxsContext17addParticleSystemEPNS_15PxsParticleDataERKNS_26PxvParticleSystemParameterEb
Lpc:__ZN5physx3Scb5Scene13addRigidNoSimINS0_4BodyELb1ELb1EEEvRT_RNS0_13ObjectTrackerE
q$a:__ZN12ImmediatePtrI10GameObjectE8TransferI19StreamedBinaryWriteILb0EEEEvRT_
R6a:__ZN12CubemapArray23VirtualRedirectTransferER24GenerateTypeTreeTransfer
Qyh:__ZL24UnresolvedVirtualCall_22P12Il2CppObjectS0_iS0_S0_S0_PK10MethodInfo
oS:__ZN12FileAccessor4OpenER15FileSystemEntry14FilePermission16FileAutoBehavior
x1h:__ZN6il2cpp2os9Directory6CreateERKNSt3__212basic_stringIcNS2_11char_traitsIcEENS2_9allocatorIcEEEEPi
d2:__ZN4PPtrI6ShaderE8TransferI18StreamedBinaryReadILb0EEEEvRT_
Hac:__ZL19sweepBoxVsTrianglesjPKN5physx10PxTriangleERKNS_2Gu3BoxERKNS_6PxVec3EfRNS_10PxSweepHitENS_7PxFlagsINS_9PxHitFlag4EnumEtEEbPKj
rqe:_NumberFormatter_AppendNonNegativeNumber_m629862866
V2:__ZNSt3__26vectorINS_4pairIN9ShaderLab16FastPropertyNameEN18UnityPropertySheet11UnityTexEnvEEENS_9allocatorIS6_EEE21__push_back_slow_pathIKS6_EEvRT_
qwa:__ZN15ArchiveReadFile5WriteEyPKvPy
kMf:_ResourceInfo__ctor_m2401359321_AdjustorThunk
f8d:_Hashtable__ctor_m392789568
IDg:_Mutex_CreateMutex_internal_m2352956576
yYd:_UTF7Encoding__cctor_m4192443836
qW:__ZN13RuntimeStaticI15ApplicationInfoE13StaticDestroyEPv
A:tempValue
eTa:__Z29StdTemplateConversionFunctionIaiEbPvR14SafeBinaryRead
Mbb:__ZN15QualitySettings8TransferI18StreamedBinaryReadILb1EEEEvRT_
Mte:_Int16_System_IConvertible_ToSingle_m3277935657
pO:__Z29scripting_class_from_fullnamePKcS0_S0_
mtg:__ZL97GameObject_t1756533147_CustomAttributesCacheGenerator_GameObject_GetComponentInParent_m1235194528P21CustomAttributesCache
E5b:__ZN5physx2Gu29ConvexVsMeshContactGeneration20generateLastContactsEv
xmc:__ZNK5physx2Gu22SupportMapRelativeImplINS0_4BoxVEE14doSupportSweepERKNS_6shdfnd3aos5Vec3VE
Nhi:__ZNSt3__220__get_up_to_n_digitsIcNS_19istreambuf_iteratorIcNS_11char_traitsIcEEEEEEiRT0_S5_RjRKNS_5ctypeIT_EEi
gz:__ZN11AudioSource19CreateOpenALRolloffEfff
Xtg:__ZL111Object_t1021602117_CustomAttributesCacheGenerator_Object_DestroyImmediate_m3563317232____allowDestroyingAssets1P21CustomAttributesCache
_Mc:__ZN5physx2Sc17ParticleSystemSim16getParticleStateEv
Kkd:__ZN5physx6shdfnd5ArrayINS_25PxsCompoundContactManagerENS0_19ReflectionAllocatorIS2_EEE8recreateEj
l$e:_Component_GetComponents_TisIl2CppObject_m3784130262_gshared
Hi:_glReadBuffer
ZHg:_UInt16_System_IConvertible_ToBoolean_m887616848
zpa:__Z26TransformVerticesInnerLoopILb1ELb1ELb1EEvPhRK10Matrix4x4fRK10Matrix3x3fjPKhiiiS8_ii25GfxTransformVerticesFlags
Gbd:__ZN5physx14PxsAABBManagerC2ERNS_2Cm13EventProfilerERNS_19PxcScratchAllocatorE
zsg:__ZL120ScriptableObject_t1975622470_CustomAttributesCacheGenerator_ScriptableObject_Internal_CreateScriptableObject_m1778903390P21CustomAttributesCache
EA:__ZN11AudioModule22CreateAudioClipFromWWWEP10IWWWStreamPKcbbi
AXd:_StringBuilder_set_Length_m3039225444
Ofe:_CultureAwareComparer_GetHashCode_m3681260951
dLa:__ZNK26RenderDeferredObjectSorterclERK16RenderObjectDataS2_
oIa:__ZN15SHConstantCacheC2ER13BatchRendererR15RenderLoopStats
sva:__ZN14dense_hash_mapINSt3__212basic_stringIcNS0_11char_traitsIcEE13stl_allocatorIcL18MemLabelIdentifier54ELi16EEEEP20ArchiveStorageReader11djb2_hash_tIS7_ENS0_8equal_toIS7_EES4_INS0_4pairIKS7_S9_EELS5_54ELi16EEE15set_deleted_keyERSF_
gOd:__ZNSt3__218basic_stringstreamIcNS_11char_traitsIcEENS_9allocatorIcEEED1Ev
nag:__ZL65Il2CppArray_CustomAttributesCacheGenerator_Array_Clear_m782967417P21CustomAttributesCache
Koi:___cxa_guard_abort
cCf:_CustomAttributeTypedArgument_t1498197914_marshal_pinvoke_back
DQ:__ZN14MessageHandler28MessageIDToMessageIdentifierEi
wgf:_HttpRequestCreator_Create_m3607509610
kAh:__ZL24UnresolvedVirtualCall_98P12Il2CppObject8IntPtr_tPK10MethodInfo
Qsf:_ArrayFixupRecord__ctor_m3659990982
L8e:_Context_get_RandomCS_m3946020109
j9f:__ZL72IntPtr_t_CustomAttributesCacheGenerator_IntPtr_op_Inequality_m3044532593P21CustomAttributesCache
o6h:__ZN6il2cpp2vm10WaitHandle19NewManualResetEventEb
rBf:_Default_ReorderArgumentArray_m3980835731
JHh:__ZNK15dense_hashtableINSt3__24pairIK10KeyWrapperIPK10Il2CppTypeEjEES6_N6il2cpp8metadata14Il2CppTypeHashEN14dense_hash_mapIS6_jSB_NSA_17Il2CppTypeCompareENS0_9allocatorIS8_EEE9SelectKeyESD_SF_E10test_emptyERK30dense_hashtable_const_iteratorIS8_S6_SB_SH_SD_SF_E
WLg:_Version_GetHashCode_m880841176
leh:_Nullable_1_ToString_m1238126148_AdjustorThunk
yd:emscriptenWebGLGetUniform
jDe:_NullTextReader_ReadLine_m3363797886
Lcc:__ZN5physx2Gu19sweepCapsuleCapsuleERKNS0_7CapsuleES3_RKNS_6PxVec3EfRfRS4_S8_jRt
g7c:__ZN5physx2Gu29EPASupportMapPairRelativeImplINS0_9TriangleVENS0_11ConvexHullVEED0Ev
_9:__Z32TransferEnumWithNameForceIntSizeI14SafeBinaryRead13TextureFormatEvRT_RT0_PKc17TransferMetaFlags
QCa:__ZL10CleanUpJobP20CullingGroupsJobData
y3d:_Char_CompareTo_m3044885427_AdjustorThunk
Lye:_FileStream_GetSecureFileName_m508045384
DB:__ZN13Simd4fFactoryIN6detail9FourTupleEEC2Effff
XTf:_InternalEnumerator_1_System_Collections_IEnumerator_get_Current_m2035754659_AdjustorThunk
phb:__ZN10MeshFilter23VirtualRedirectTransferER24GenerateTypeTreeTransfer
Xod:__ZN5physx13BigConvexData4LoadERNS_13PxInputStreamE
gMa:__ZN13RenderManager15BatchModeUpdateEv
RIh:__ZN15dense_hashtableINSt3__24pairIK10KeyWrapperINS1_IPK11Il2CppImageP11Il2CppClassEEEjEES9_17ReflectionMapHashIS8_EN14dense_hash_mapIS9_jSD_19ReflectionMapEqualsIS8_ENS0_9allocatorISB_EEE9SelectKeyESG_SI_E5clearEv
seb:__ZN14SafeBinaryRead21TransferSTLStyleArrayI13dynamic_arrayI8Vector2fLj4EEEEvRT_17TransferMetaFlags
Q2:__ZN17PersistentManager51InstanceIDToLocalSerializedObjectIdentifierInternalEiR31LocalSerializedObjectIdentifier
tLf:_StrongNameKeyPair_System_Runtime_Serialization_IDeserializationCallback_OnDeserialization_m2330221363
Uyc:__ZN5physx2Sc8ActorSim24postDominanceGroupChangeEv
bXg:__Z116RuntimeInvoker_Boolean_t3825574718_Il2CppObject_Int32_t2071877448_Int32_t2071877448_Il2CppObject_Int32U26_t455636984PK10MethodInfoPvPS2_
ad:_glVertexAttribIPointer
oLg:_UnhandledExceptionEventHandler_EndInvoke_m2207457167
UGh:__ZN15dense_hashtableINSt3__24pairIK10KeyWrapperINS1_IPK9FieldInfoP11Il2CppClassEEEjEES9_17ReflectionMapHashIS8_EN14dense_hash_mapIS9_jSD_19ReflectionMapEqualsIS8_ENS0_9allocatorISB_EEE9SelectKeyESG_SI_EC2ERKSL_j
Mzc:__ZN5physx2Cm8PtrTable5clearERNS0_22PtrTableStorageManagerE
aD:__ZNSt3__215basic_stringbufIcNS_11char_traitsIcEENS_9allocatorIcEEE7seekoffExNS_8ios_base7seekdirEj
HTe:_Array_InternalArray__ICollection_Contains_TisTableRange_t2011406615_m605506746_gshared
Lee:_Decimal_op_Explicit_m729046406
vgc:__ZN5physx3Cct15ObstacleContext7releaseEv
s8c:__ZN5physx27solveFrictionBlockWriteBackEPKNS_23PxcSolverConstraintDescEjRNS_16PxcSolverContextEPNS_25PxcThresholdStreamElementEjPi
Kxf:_CryptographicUnexpectedOperationException__ctor_m3552441227
l5d:_ArrayListWrapper_Clear_m321161741
ZJg:_UInt64_System_IConvertible_ToDouble_m2828923873
mSg:__Z45RuntimeInvoker_Il2CppObject_Int16_t4041245914PK10MethodInfoPvPS2_
xud:__ZN5physx6shdfnd10Foundation19AlignCheckAllocator8allocateEjPKcS4_i
xOf:_InternalEnumerator_1_get_Current_m1943362081_AdjustorThunk
Vmi:__ZNKSt3__221__basic_string_commonILb1EE20__throw_length_errorEv
MXd:_StringBuilder_Insert_m1733097906
WZg:__Z88RuntimeInvoker_Void_t1841601450_Il2CppObject_Int32_t2071877448_Il2CppObject_Il2CppObjectPK10MethodInfoPvPS2_
Yi:_JS_SystemInfo_GetMemory
ROh:__ZN14dense_hash_mapI10KeyWrapperINSt3__24pairIP11Il2CppClassjEEES4_N6il2cpp8metadata14ArrayClassHashENS8_17ArrayClassCompareENS1_9allocatorINS2_IKS6_S4_EEEEEC2EjRKS9_RKSA_
Hc:_emscripten_glUniform1i
Tna:__ZN18GfxFramebufferGLES13ReadbackImageER14ImageReferenceiiiiii
HHh:__ZN30dense_hashtable_const_iteratorINSt3__24pairIK10KeyWrapperIPK10Il2CppTypeEjEES6_N6il2cpp8metadata14Il2CppTypeHashEN14dense_hash_mapIS6_jSB_NSA_17Il2CppTypeCompareENS0_9allocatorIS8_EEE9SelectKeyESD_SF_EppEv
kM:__ZN13RuntimeStaticI11WindManagerE13StaticDestroyEPv
Hae:_Enumerator_MoveNext_m1419609883
Yu:__ZN4FMOD7Channel19setReverbPropertiesEPK29FMOD_REVERB_CHANNELPROPERTIES
cQ:__ZN13MonoBehaviour22GetScriptFullClassNameEv
kFh:_il2cpp_object_get_class
Rkd:__ZN5physx6shdfnd4sortIPNS_15PxsContactPatchENS_27SortBoundsPredicateManifoldENS0_19ReflectionAllocatorIS3_EEEEvPT_jRKT0_RKT1_j
v1f:_GuidAttribute__ctor_m1099153635
$Fa:__ZN13BatchRendererC2ER15RenderLoopStatsRK15RenderNodeQueuebb
Ggf:_ServicePointManager_FindServicePoint_m3137356168
bj:_emscripten_glGetVertexAttribfv
U8:__ZN20SphericalHarmonicsL211AddWeightedERKS_f
qWc:__ZN5physx2Sc24ElementInteractionMarker12onDeactivateEj
xub:__Z19TransferField_ArrayI17RemapPPtrTransfer27Converter_SimpleNativeClassI8GUIStyleEEvRK23StaticTransferFieldInfoR31RuntimeSerializationCommandInfoRT0_
jea:__ZN19GfxThreadableDevice20SetShadersMainThreadERK11SubProgramsPK19ShaderPropertySheetS5_
Hfe:_Convert_ToUInt64_m345450801
y_h:__ZN6il2cpp2vm3RCW7CleanupEP15Il2CppComObject
Q0b:__ZN9JSONWrite8TransferI10ColorRGBAfEEvRT_PKc17TransferMetaFlags
E1g:__Z52RuntimeInvoker_Void_t1841601450_Keyframe_t1449471340PK10MethodInfoPvPS2_
Vvd:__ZN14PhysicsManager23VirtualRedirectTransferER19StreamedBinaryWriteILb0EE
Umi:__ZNSt13runtime_errorC2EPKc
FXb:__Z35Register_UnityEngine_Resources_Loadv
Mrb:__Z19TransferField_ArrayI14SafeBinaryRead16Converter_StringEvRK23StaticTransferFieldInfoR31RuntimeSerializationCommandInfoRT0_
Adi:_rename
I4h:_GC_exit_check
RGe:_NotSupportedException__ctor_m3232764727
Vff:_TypeConverterAttribute_Equals_m2330345916
x6b:__ZNK5physx2Gu15OBBTriangleTest10obbTriTestERKNS_6PxVec3ES4_S4_
UO:__Z20UnlockObjectCreationv
yhe:_DateTime_ToString_m1117481977
kZg:__Z55RuntimeInvoker_Il2CppObject_RegexOptionsU26_t3063574985PK10MethodInfoPvPS2_
lye:_MonoIO_CreateDirectory_m379525469
Tqb:__Z34scripting_class_array_element_sizeP11Il2CppClass
cFf:_GenericTypeParameterBuilder_GetGenericArguments_m277381309
lcf:_SslClientStream_remove_PrivateKeySelection_m427666577
WSd:_String_Concat_m2000667605
j1h:__ZN6il2cpp2vm6String8NewUtf16EPKDsi
tZh:__ZN6il2cpp2os10ThreadImpl12QueueUserAPCEPFvPvES2_
Kmi:__ZNSt3__211__call_onceERVmPvPFvS2_E
Yr:__Z32TransferEnumWithNameForceIntSizeI14SafeBinaryReadN10SampleClip17CompressionFormatEEvRT_RT0_PKc17TransferMetaFlags
vDd:__ZN22BaseUnityConnectClient10QueueEventERN11UnityEngine15CloudWebService17CloudServiceEventEPKcjb
whc:__ZN5physx12PxControllerD2Ev
qcc:__ZNK5physx2Gu15HeightFieldUtil12traceSegmentI25CapsuleTraceSegmentReportLb0ELb0ELb1EEEvRKNS_6PxVec3ES6_PT_PS5_
bfc:__ZN5physx3Cct17CapsuleController13setStepOffsetEf
Ucd:__ZN5physx10PxsContext23prepareCMDiscreteUpdateEPNS_10PxBaseTaskE
d0d:_BitConverter_ToInt64_m1329623425
xLb:__ZN8RendererC2E12RendererType18MemLabelIdentifier18ObjectCreationMode
w7h:__ZN6il2cpp2vm13ComObjectBaseINS0_13ManagedObjectE18Il2CppIInspectableNS0_7details6ComNilES5_S5_S5_S5_S5_S5_E6AddRefEv
nlg:__ZL95ASCIIEncoding_t3022927988_CustomAttributesCacheGenerator_ASCIIEncoding_GetByteCount_m1396020051P21CustomAttributesCache
nzc:__ZN5physx6shdfnd5ArrayIPvNS0_19ReflectionAllocatorINS_2Cm5BlockIhLj256EEEEEE4copyINS0_15InlineAllocatorILj256ES7_EEEEvRKNS1_IS2_T_EE
hhi:__ZNSt3__28time_getIcNS_19istreambuf_iteratorIcNS_11char_traitsIcEEEEED2Ev
sf:_emscripten_glGetError
Lv:__Z14FMOD_FILE_SeekPvjS_
e6f:_MethodCall_get_Properties_m1893707917
G9f:__ZL72Enum_t2459695545_CustomAttributesCacheGenerator_Enum_ToObject_m604645223P21CustomAttributesCache
UCc:__ZN5physx6shdfnd8PoolBaseINS_11NpAggregateENS0_19ReflectionAllocatorIS2_EEE15disposeElementsEv
Ebc:__ZThn4_N16RayRTreeCallbackILi1ELb1EE14processResultsEjPj
XMa:__ZNK13RenderTexture32CalculateNeedsInvertedProjectionEv
jgc:__ZN5physx2Gu17RadixSortBuffered4SortEPKfj
Af:emscriptenWebGLGet
_mh:_Rect_GetHashCode_m559954498_AdjustorThunk
EMb:__ZN12CubemapArray11InitTextureEiii13TextureFormatb
x4:__ZN6prcoreL18BlitIntegerToFloatERK14ImageReferenceRS0_
Yug:__ZL93Physics_t634932869_CustomAttributesCacheGenerator_Physics_RaycastAll_m410413656____layerMask2P21CustomAttributesCache
aif:__ZN16VirtFuncInvoker1IP8String_tiE6InvokeEjPvi
Lta:__ZNK15Lz4Decompressor20DecompressStreamInitEPPv
mch:_Collection_1_set_Item_m3803272710_gshared
jKf:_MonoMethodInfo_t3646562144_marshal_pinvoke_cleanup
Zjf:_X509Certificate2_get_SignatureAlgorithm_m3069898012
vgf:_HttpRequestCreator__ctor_m2513916021
Rve:_Int64_System_IConvertible_ToSingle_m1678482180
_Ug:__Z54RuntimeInvoker_Il2CppObject_IntPtr_t_Int32_t2071877448PK10MethodInfoPvPS2_
Uc:_emscripten_glAttachShader
pFg:_TimeSpan_get_Hours_m3804628138
fyg:_Regex__ctor_m3250610064
WHb:__ZN9ShaderLab20SerializedSubProgram14SetConstBufferEPKci
xTe:_ArgumentNullException__ctor_m911049464
AIf:_TargetParameterCountException__ctor_m2760108938
Wpf:_SoapAttribute_SetReflectionObject_m2774156012
HXg:__Z66RuntimeInvoker_Void_t1841601450_Int32_t2071877448_Int64_t909078037PK10MethodInfoPvPS2_
sne:_EventHandler_BeginInvoke_m3027583606
tH:__Z40DebugStringToFilePostprocessedStacktraceRK21DebugStringToFileData
W3c:__ZN5physx2Sq12BucketPruner11shiftOriginERKNS_6PxVec3E
Y_b:__Z29Transfer_Blittable_ArrayFieldI8JSONReadjEvRT_R9ArrayInfoRK23StaticTransferFieldInfo
BVf:_InternalEnumerator_1__ctor_m3220229132_AdjustorThunk
mpc:__ZN5physx6shdfnd5ArrayIPNS_2Sc16ArticulationCoreENS0_19ReflectionAllocatorIS4_EEE15growAndPushBackERKS4_
cph:_StateMachineBehaviour_OnStateEnter_m1095276890
Flh:_Object_GetInstanceID_m1920497914
J4f:_ContextAttribute__ctor_m4006843177
xTf:_InternalEnumerator_1_get_Current_m314017974_AdjustorThunk
gg:__setLetterbox
f3:__ZNSt3__26__treeINS_12__value_typeIN9ShaderLab16FastPropertyNameEfEENS_19__map_value_compareIS3_S4_NS_4lessIS3_EELb1EEENS_9allocatorIS4_EEE12__find_equalIS3_EERPNS_16__tree_node_baseIPvEENS_21__tree_const_iteratorIS4_PNS_11__tree_nodeIS4_SE_EEiEESH_RKT_
qjd:__ZN5physx19normalizePartitionsERNS_6shdfnd5ArrayIjNS0_19ReflectionAllocatorIjEEEEPNS_23PxcSolverConstraintDescEPKNS_13PxcSolverBodyEjjS5_
Dcg:__ZL57CollectionBase_t1101587467_CustomAttributesCacheGeneratorP21CustomAttributesCache
s7b:__ZN18ContactCapsuleMesh20processTriangleCacheILj16EEEbRN5physx2Gu13TriangleCacheIXT_EEE
Cfb:__ZNSt3__26vectorI17BlendShapeChannelNS_9allocatorIS1_EEE6assignINS_11__wrap_iterIPS1_EEEENS_9enable_ifIXaasr21__is_forward_iteratorIT_EE5valuesr16is_constructibleIS1_NS_15iterator_traitsISA_E9referenceEEE5valueEvE4typeESA_SA_
Jif:_AsnEncodedData_ToString_m724151831
xMa:__ZN11TimeManager11GetRealtimeEv
pZd:_UTF8Encoding_GetByteCount_m1469571127
Vkc:__ZN5physx2Sc16InteractionScene25removeFromActiveActorListERNS0_5ActorE
ASb:__Z15WeldVertexArrayR13dynamic_arrayI8Vector3fLj4EERS_I13BoneInfluenceLj16EERS_ItLj2EES7_
KIf:_MonoMethodInfo_GetDeclaringType_m4186531677
uqf:_SoapTypeAttribute_SetReflectionObject_m1566293812
shc:__ZN5physx3Ext21InertiaTensorComputer6rotateERKNS_7PxMat33E
ksf:_RemotingServices_CreateClientProxy_m1631035355
DKg:_UInt64_ToString_m2892887310
vid:__ZN5physx22PxcDiscreteNarrowPhaseERNS_18PxcNpThreadContextERNS_13PxcNpWorkUnitE
E9:_stbir_resize
vhb:__ZN4PPtrI4MeshE8TransferI14SafeBinaryReadEEvRT_
Udd:__ZN5physx23PxcPCMContactCapsuleBoxERKNS_2Gu13GeometryUnionES3_RKNS_11PxTransformES6_RKfRNS_10PxcNpCacheERNS0_13ContactBufferE
mua:__Z37ReadDirectoryInfo_UnityWebAndUnityRawR12FileAccessorRKN20ArchiveStorageHeader6HeaderERNS1_13DirectoryInfoE
DVe:_Array_InternalArray__IEnumerable_GetEnumerator_TisInt64_t909078037_m1219751804_gshared
$M:__ZNSt3__26__treeINS_12__value_typeIPKciEENS_19__map_value_compareIS3_S4_15compare_tstringIS3_ELb1EEENS_9allocatorIS4_EEE7destroyEPNS_11__tree_nodeIS4_PvEE
ybg:__ZL96RuntimeTypeHandle_t2330101084_CustomAttributesCacheGenerator_RuntimeTypeHandle_Equals_m452760426P21CustomAttributesCache
c$f:_Dictionary_2_ToTValue_m1381983709_gshared
IGe:_MulticastDelegate_KPM_m1592985119
Rli:__ZNSt3__26locale5__imp7installINS_5ctypeIcEEEEvPT_
DQg:__Z119RuntimeInvoker_Void_t1841601450_SByte_t454417549_SByte_t454417549_Int32_t2071877448_Int32_t2071877448_Int32_t2071877448PK10MethodInfoPvPS2_
HRa:__ZN25PathNamePersistentManagerD2Ev
NO:__ZN17PersistentManager48IntegrateObjectAndUnlockIntegrationMutexInternalEi
Qeg:__ZL112TypeBuilder_t3308873219_CustomAttributesCacheGenerator_TypeBuilder_MakeGenericType_m4282022646____typeArguments0P21CustomAttributesCache
I3g:__Z89RuntimeInvoker_Il2CppObject_Scene_t1684909666_Scene_t1684909666_Il2CppObject_Il2CppObjectPK10MethodInfoPvPS2_
Xti:_emscripten_glGetFramebufferAttachmentParameteriv__wrapper
xAa:__ZN13RendererScene15InitializeUmbraEv
F8:__Z28CalculateGlobalMatrixInverse23TransformAccessReadOnly
_0b:__ZN4PPtrI6ObjectE8TransferI9JSONWriteEEvRT_
Sji:__ZNSt3__29money_putIwNS_19ostreambuf_iteratorIwNS_11char_traitsIwEEEEED0Ev
Ebi:___ctype_toupper_loc
V2d:_Char_System_IConvertible_ToChar_m1489061093_AdjustorThunk
GYd:_UTF7Encoding_GetCharCount_m2589913583
mNc:__ZNK5physx15PxsParticleData15getWorldBoundsVEv
Wza:_UNITY_png_write_sCAL_s
wpf:__ZN21InterfaceFuncInvoker0IP8String_tE6InvokeEjP11Il2CppClassPv
QAe:_MemoryStream_CalculateNewCapacity_m3533542025
hwg:__ZL66ExcludeFromDocsAttribute_t665825653_CustomAttributesCacheGeneratorP21CustomAttributesCache
odc:__ZN12_GLOBAL__N_124HfTrianglesEntityReport27onEventEjPj
s9h:__ZN6il2cpp6icalls8mscorlib6System6Object7GetTypeEP12Il2CppObject
MPc:__ZN5physx22NpParticleBaseTemplateINS_16PxParticleSystemENS_16NpParticleSystemEE17setStaticFrictionEf
TBg:_Uri_Reduce_m2577728307
QFg:_TimeSpan_Equals_m4102942751_AdjustorThunk
fli:__ZNSt3__25ctypeIcE13classic_tableEv
js:__ZN4FMOD6SoundI7releaseEv
jSc:__ZN5physx20NpRigidActorTemplateINS_14PxRigidDynamicEE15setActorSimFlagEb
iki:__ZNKSt3__27codecvtIDic11__mbstate_tE5do_inERS1_PKcS5_RS5_PDiS7_RS7_
bva:__ZN10MemoryFile9SetLengthEy
PIg:_UInt16_ToString_m2038947049_AdjustorThunk
Ofc:__ZNK5physx3Cct26CharacterControllerManager16getNbControllersEv
cF:__ZN11UnityEngine15CloudWebService19SessionEventManager20ProcessEventQueueJobEPNS0_14CloudEventInfoE
xh:_glTexStorage2D
JHb:__ZNK9ShaderLab10SubProgram14EnsureCompiledEv
_uf:_ObjectManager_RecordFixup_m3572285566
udg:__ZL55DaylightTime_t3800227331_CustomAttributesCacheGeneratorP21CustomAttributesCache
kzd:__ZN5physx7profile10DataBufferINS_6shdfnd6MutexTINS0_26WrapperReflectionAllocatorIhEEEENS0_14ScopedLockImplIS6_EEE17handleBufferFlushEPKhj
G9d:_SortedList_InitTable_m460350503
pQf:_InternalEnumerator_1_get_Current_m4279678504_AdjustorThunk
cq:__ZNK16LevelGameManager7GetNameEv
mbh:_Collection_1_System_Collections_IList_get_Item_m2415649949_gshared
vFf:_ILTokenInfo_t149559338_marshal_pinvoke_cleanup
EJb:__Z13RegisterClassI18DelayedCallManagerEvv
cFd:__ZN18UnityConnectClient15GetCloudServiceEv
Zub:__Z18Transfer_BlittableI24GenerateTypeTreeTransferLb0EiEvRK29SerializationCommandArgumentsR31RuntimeSerializationCommandInfo
bmd:__ZN5physx20PxsConstraintProjectEPKNS_13PxsConstraintEbf
UFc:__ZN5physx7NpShape7setFlagENS_11PxShapeFlag4EnumEb
Kti:_emscripten_glBufferData__wrapper
D$a:__ZN10TagManager32RegisterDefaultTagsAndLayerMasksEv
qvg:__ZL118AttributeHelperEngine_t958797062_CustomAttributesCacheGenerator_AttributeHelperEngine_GetRequiredComponents_m120894667P21CustomAttributesCache
_hd:__ZN5physx2Sc35ParticleElementRbElementInteraction12onDeactivateEj
MDg:_SynchronizationLockException__ctor_m549086841
H4d:_ArrayList_InsertRange_m1478230997
via:__ZN4gles8InitCapsEP7ApiGLESP12GraphicsCapsR16GfxDeviceLevelGL
y0d:__ZN21InterfaceFuncInvoker1IP8String_tP12Il2CppObjectE6InvokeEjP11Il2CppClassPvS3_
C3:__ZN6prcore14BlitImageFloatERK14ImageReferenceRS0_NS0_8BlitModeE
x$d:_Swapper_EndInvoke_m677693941
_3a:__Z24CalculateVertexLightDataRK15SharedLightDataR14GfxVertexLight
ei:_glEnable
QZa:__ZNK13Lz4Compressor29CalculateCompressedBufferSizeEj
XBh:__ZN6il2cpp2vm19SocketPollingThreadC2Ev
p4c:__ZN5physx2Sq10AABBPrunerC2Eb
bwf:_RuntimeMethodHandle__ctor_m2437574937_AdjustorThunk
G$c:__ZN5physx2Sq8AABBTreeC2Ev
oIg:_UInt16_System_IConvertible_ToInt64_m2835280558_AdjustorThunk
oPe:__ZN18VirtActionInvoker2IP22ByteU5BU5D_t3397334013S1_E6InvokeEjPvS1_S1_
nsg:__ZL53g_UnityEngine_Assembly_CustomAttributesCacheGeneratorP21CustomAttributesCache
WWb:__ZN13MonoBehaviour22StartCoroutineManaged2EP12Il2CppObject
LAf:_AssemblyName_get_Name_m1815759940
UMf:_U3CGetEnumeratorU3Ec__Iterator0_Dispose_m2403602883_gshared
R_f:_Dictionary_2_InitArrays_m2270022740_gshared
hbe:_Convert_ToBoolean_m2188088811
RDd:__ZN11UnityEngine7Connect15DeviceInfoEvent16CollectExtraInfoEv
dXg:__Z115RuntimeInvoker_Boolean_t3825574718_Il2CppObject_Int32_t2071877448_Il2CppObject_SByte_t454417549_Int32U26_t455636984PK10MethodInfoPvPS2_
S1h:__ZN6il2cpp2os11Environment22SetEnvironmentVariableERKNSt3__212basic_stringIcNS2_11char_traitsIcEENS2_9allocatorIcEEEESA_
dpd:__ZN5physx2Gu10ConvexMeshD2Ev
XXd:_UnicodeEncoding_GetChars_m3765282346
Fwe:_IntPtr__ctor_m4104029105
Tig:__ZL114BinaryFormatter_t1866979105_CustomAttributesCacheGenerator_BinaryFormatter_get_DefaultSurrogateSelector_m219714691P21CustomAttributesCache
zFe:_MonoType_get_attributes_m1493788675
Ddi:_atol
r6h:__ZN6il2cpp6icalls8mscorlib6System10Reflection9FieldInfo25internal_from_handle_typeE12Il2CppIntPtrS5_
Ede:_Convert_ToDouble_m4236754739
ucf:_SslClientStream_get_PrivateKeyCertSelectionDelegate_m3715949545
dui:_emscripten_glScissor__wrapper
HX:__ZNK6Sprite24GetRenderDataForPlayModeEv
_cg:__ZL48Stack_t1043988394_CustomAttributesCacheGeneratorP21CustomAttributesCache
jo:FUNCTION_TABLE_viifi
mo:FUNCTION_TABLE_viiff
ejc:__ZNK5physx2Sc8ShapeSim10getBodySimEv
VIf:_MonoEvent_GetAddMethod_m4289563120
hbg:__ZL37Type_t_CustomAttributesCacheGeneratorP21CustomAttributesCache
yNh:__ZN6il2cpp2vm14TypeNameParser5ParseEb
O4h:_GC_check_finalizer_nested
fWg:__Z51RuntimeInvoker_Int16_t4041245914_Single_t2076509932PK10MethodInfoPvPS2_
ycg:__ZL71SynchronizedArrayListWrapper_t3317806524_CustomAttributesCacheGeneratorP21CustomAttributesCache
rzc:__ZN5physx6shdfnd5ArrayIPvNS0_19ReflectionAllocatorINS_2Cm5BlockIhLj128EEEEEE15growAndPushBackERKS2_
jHd:__ZN23UnityPurchasingSettingsC2Ev
Zle:_Double_ToString_m1864290157
vQa:__ZNK9Transform13GetWorldScaleEv
dTf:_InternalEnumerator_1_get_Current_m4154059426_AdjustorThunk
toc:__ZN5physx2Sc11Interaction10onActivateEj
Zbc:__ZNK5physx2Gu29EPASupportMapPairRelativeImplINS0_4BoxVENS0_11ConvexHullVEE6getDirEv
AGc:__ZN5physx14NpShapeManager15setupSceneQueryERNS_2Sq17SceneQueryManagerERKNS_12PxRigidActorERKNS_7NpShapeE
gU:__ZNSt3__26__treeINS_12__value_typeI18VertexChannelsInfo16MeshVertexFormatEENS_19__map_value_compareIS2_S4_NS_4lessIS2_EELb1EEE13stl_allocatorIS4_L18MemLabelIdentifier16ELi16EEE12__find_equalIS2_EERPNS_16__tree_node_baseIPvEENS_21__tree_const_iteratorIS4_PNS_11__tree_nodeIS4_SF_EEiEESI_RKT_
K9:__ZL37stbir__resample_horizontal_downsampleP11stbir__infoiPf
fTg:__Z78RuntimeInvoker_IntPtr_t_Il2CppObject_Int32U26_t455636984_ModuleU26_t4102634234PK10MethodInfoPvPS2_
h7:__ZNK5Unity9Component38MarkGameObjectAndComponentDependenciesER27GarbageCollectorThreadState
Yld:__ZN22ScAfterIntegrationTask11runInternalEv
crc:__ZNK5physx2Sc9ClothCore23getExternalAccelerationEv
s7e:_RecordProtocol_SendRecord_m132002114
yz:__ZNK7Texture21GetShadowSamplingModeEv
bbc:__ZN5physx2Gu13coarseCullingERKNS_6PxVec3ES3_ffRKNS_10PxTriangleE
iI:__ZN13ScreenManager21OnWindowRegainedFocusEv
jzb:__Z18Transfer_BlittableI18StreamedBinaryReadILb0EELb1EdEvRK29SerializationCommandArgumentsR31RuntimeSerializationCommandInfo
vvi:_emscripten_glVertexAttrib2fv__wrapper
lze:_FileStream_get_CanRead_m4148920720
cJh:__ZN6il2cpp2gc19AppendOnlyGCHashMapINSt3__24pairIPK12PropertyInfoP11Il2CppClassEEP24Il2CppReflectionProperty17ReflectionMapHashIS9_E19ReflectionMapEqualsIS9_EE11TryGetValueERKS9_PSB_
Aid:__ZN5physx2Sc5Scene29processNarrowPhaseTouchEventsEv
Nka:__ZN4crnd12symbol_codec32decode_receive_static_data_modelERNS_25static_huffman_data_modelE
u6a:__ZN18ScriptingArguments8AddFloatEf
Gre:_GregorianCalendar_set_CalendarType_m2438362222
fjh:_AnimatorControllerPlayable_get_node_m127621219_AdjustorThunk
d2g:__Z71RuntimeInvoker_Void_t1841601450_Int32_t2071877448_UriScheme_t1876590943PK10MethodInfoPvPS2_
ftc:__ZN5physx6shdfnd5ArrayIPvNS0_15InlineAllocatorILj256ENS0_19ReflectionAllocatorINS_18NpArticulationLinkEEEEEE15growAndPushBackERKS2_
l0b:__Z18Transfer_BlittableI9JSONWriteLb0EaEvRK29SerializationCommandArgumentsR31RuntimeSerializationCommandInfo
oC:__ZN11UnityEngine15CloudWebService14DataDispatcher34OnSessionContainerArchivedAndReadyERNS0_16SessionContainerE
Rmb:__ZN13EmscriptenWWW10OnResponseEPviS0_jPc
toi:__ZNSt13runtime_errorD0Ev
Bgc:__ZNK5physx3Cct15ObstacleContext11getObstacleEj
twb:__Z18Transfer_BlittableI19StreamedBinaryWriteILb0EELb0E8Vector3fEvRK29SerializationCommandArgumentsR31RuntimeSerializationCommandInfo
WGh:__ZN15dense_hashtableINSt3__24pairIK10KeyWrapperINS1_IPK9FieldInfoP11Il2CppClassEEEjEES9_17ReflectionMapHashIS8_EN14dense_hash_mapIS9_jSD_19ReflectionMapEqualsIS8_ENS0_9allocatorISB_EEE9SelectKeyESG_SI_ED2Ev
kJa:__Z34GetNonInterpolatedLightAttenuationRK17LightProbeContextjPK15SharedLightData
JJh:__ZN6il2cpp2vm10Reflection14GetEventObjectEP11Il2CppClassPK9EventInfo
B7e:_TlsStream_Write_m2271546135
fK:__ZN20LocalFileSystemPosixD0Ev
hUb:__Z23GetGlobalBoolPreferencePKcb
Zoe:_CultureInfo_ConstructInternalLocaleFromCurrentLocale_m1342751405
zWg:__Z50RuntimeInvoker_UInt16_t986882611_Int16_t4041245914PK10MethodInfoPvPS2_
QYa:__ZN21AssetBundleFileSystem5WriteER13FileEntryDatayPvPy
sXd:_Latin1Encoding_GetString_m3553289597
e3c:__ZN5physx13IslandManager6resizeEj
ib:invoke_viidi
ZWf:_Enumerator_get_Current_m1020413567_AdjustorThunk
vKb:__ZN9TextAssetC2E18MemLabelIdentifier18ObjectCreationMode
Znc:__ZN5physx6shdfnd8PoolBaseINS_2Cm5BlockIPvLj16EEENS0_19ReflectionAllocatorIS5_EEE17releaseEmptySlabsEv
p8g:_List_1_System_Collections_ICollection_CopyTo_m2020941110_gshared
Cih:_Display_RecreateDisplayList_m3412638488
Gog:__ZL79Convert_t2607082565_CustomAttributesCacheGenerator_Convert_ToUInt64_m2215781574P21CustomAttributesCache
s3g:__Z52RuntimeInvoker_KeyValuePair_2_t38854645_Il2CppObjectPK10MethodInfoPvPS2_
Mxb:__ZN19StreamedBinaryWriteILb0EE21TransferSTLStyleArrayINSt3__26vectorINS2_12basic_stringIcNS2_11char_traitsIcEE13stl_allocatorIcL18MemLabelIdentifier1ELi16EEEES7_ISA_LS8_1ELi16EEEEEEvRT_17TransferMetaFlags
lhc:__ZL20updateMassAndInertiabRN5physx11PxRigidBodyEPKfjPKNS_6PxVec3Eb
AZb:__Z18Transfer_BlittableI8JSONReadLb0EdEvRK29SerializationCommandArgumentsR31RuntimeSerializationCommandInfo
uzd:__ZN5physx24NpPtrTableStorageManagerC2Ev
Yyi:_glCreateShader__wrapper
Txg:_PatternLinkStack_GetOffset_m2889934101
AJe:_SimpleCollator_LastIndexOfOrdinalIgnoreCase_m550798345
fGh:__ZN15dense_hashtableINSt3__24pairIK10KeyWrapperINS1_IPK14Il2CppAssemblyP11Il2CppClassEEEjEES9_17ReflectionMapHashIS8_EN14dense_hash_mapIS9_jSD_19ReflectionMapEqualsIS8_ENS0_9allocatorISB_EEE9SelectKeyESG_SI_E13clear_deletedER30dense_hashtable_const_iteratorISB_S9_SD_SK_SG_SI_E
Mm:FUNCTION_TABLE_viiiiiifiii
Vda:__ZNK9GfxDevice13GetViewMatrixEv
WXc:__ZN5physx7NpScene15flushSimulationEb
OEc:__ZN5physx6shdfnd8PoolBaseINS_10NpMaterialENS0_19ReflectionAllocatorIS2_EEE12allocateSlabEv
KR:__ZN8TypeTree8BlobReadERPKhS1_ib
oUb:__Z36CreateScriptingArrayFromUnityObjectsI13dynamic_arrayIP6ObjectLj4EEEP11Il2CppArrayRKT_i
Jsd:__ZN5physx18ReducedVertexCloudC2EPKNS_6PxVec3Ej
E7:__ZN18LoadSceneOperation23GetAllowSceneActivationEv
O_:__ZN15SerializeTraitsI14ConstantStringE8TransferI19StreamedBinaryWriteILb0EEEEvRS0_RT_
D5:__ZN11prophecysdk4half7convertEi
I0a:__ZN6CameraD0Ev
$Ke:_ModulusRing_Multiply_m386339435
xV:__ZN31CanvasBatchIntermediateRenderer16StaticInitializeEPv
kde:_Decimal_op_Implicit_m4246329390
zTe:_ArgumentNullException__ctor_m2252076819
FOa:__ZN10GameObjectC2E18MemLabelIdentifier18ObjectCreationMode
CFe:_MonoType_GetAttributeFlagsImpl_m250699879
iDf:_TypeBuilder_get_FullName_m1626507516
vuf:_SerializationInfo__ctor_m4016423422
Ula:__ZL18ProgramUniform1uivPK7ApiGLESjiihPKv
PMb:__ZN14Texture2DArray13RebuildMipMapEv
uth:__ZN13Il2CppHashSetIPK17Il2CppGenericInstN6il2cpp8metadata21Il2CppGenericInstHashENS4_24Il2CppGenericInstCompareENSt3__29allocatorI10KeyWrapperIS2_EEEEC2EjRKS5_RKS6_
nrb:__Z18Transfer_BlittableI14SafeBinaryReadLb1EaEvRK29SerializationCommandArgumentsR31RuntimeSerializationCommandInfo
XHb:__ZN9ShaderLab20SerializedSubProgram14AddVectorParamEPKcii15ShaderParamTypei
bxc:__ZNK5physx19NpRigidBodyTemplateINS_18PxArticulationLinkEE27getMinCCDAdvanceCoefficientEv
ozi:_emscripten_glIsFramebuffer__wrapper
wQd:_SystemException__ctor_m2688248668
zMf:_ResourceSet_ReadResources_m1669023823
YQe:_PKCS12_RemoveCertificate_m1590055870
vNh:__ZN6il2cpp2vm6Thread7SetNameEP12Il2CppThreadP12Il2CppString
teg:__ZL117GenericTypeParameterBuilder_t1370236603_CustomAttributesCacheGenerator_GenericTypeParameterBuilder_Equals_m2498927509P21CustomAttributesCache
uug:__ZL107Collision_t2876846408_CustomAttributesCacheGenerator_Collision_t2876846408____frictionForceSum_PropertyInfoP21CustomAttributesCache
_o:__ZN6Object23VirtualRedirectTransferER19StreamedBinaryWriteILb1EE
lX:__ZN13ScreenManager18SetAllowCursorLockEb
Klb:__ZN30RuntimeInitializeOnLoadManager15ClassMethodInfo8TransferI14SafeBinaryReadEEvRT_
uUh:__ZNK15dense_hashtableINSt3__24pairIK10KeyWrapperINS1_IPKcS4_EEEiEES6_24NamespaceAndNamePairHashN14dense_hash_mapIS6_iS9_26NamespaceAndNamePairEqualsNS0_9allocatorIS8_EEE9SelectKeyESB_SD_E13find_positionERS7_
wrc:__ZNK5physx2Sc10ClothShape8isActiveEv
tob:__ZN9TextAsset8TransferI14SafeBinaryReadEEvRT_
bB:__ZL22InitializeModule_Audiov
J3c:__ZN5physx2Sq11PruningPoolD0Ev
oUa:__ZN16MemoryFileSystem8IsLockedERK13FileEntryData
Bbd:__ZN3MBP15removeBoxPrunerEj
H0f:_SatelliteContractVersionAttribute__ctor_m2605651717
Ok:_emscripten_glBindRenderbuffer
MVd:_DecoderExceptionFallbackBuffer_GetNextChar_m1727394816
D4h:_GC_dirty_init
J_d:_Array_Copy_m1969461849
Atf:_MessageFormatter_ReadMethodResponse_m4134629501
YXh:__ZN6il2cpp2vm5Field14GetValueObjectEP9FieldInfoP12Il2CppObject
dWd:_EncoderExceptionFallback_GetHashCode_m2071009120
fne:_Environment_get_OSVersion_m1247315981
xHa:__ZN23ForwardShaderRenderLoop23RenderForwardShadowMapsEPK11ActiveLightbN6Camera10RenderFlagER17ShaderPassContext
B8b:__ZL15SweepBoxCapsulePKN5physx3Cct9SweepTestEPKNS0_11SweptVolumeEPKNS0_11TouchedGeomERKNS_14PxExtendedVec3ERKNS_6PxVec3ERNS0_12SweptContactE
zU:__ZN6Object17FindObjectsOfTypeEPKN5Unity4TypeER13dynamic_arrayIPS_Lj4EEb
vQb:__ZNSt3__26vectorINS_4pairIiiEE13stl_allocatorIS2_L18MemLabelIdentifier1ELi16EEE21__push_back_slow_pathIKS2_EEvRT_
Smf:_Capture_get_Length_m1952322390
f1b:__ZN9JSONWrite8TransferI4PPtrI9Texture2DEEEvRT_PKc17TransferMetaFlags
Xhi:__ZNKSt3__220__time_get_c_storageIwE7__weeksEv
Uob:__ZN13MonoBehaviour17RemoveFromManagerEv
zX:__ZN14GraphicsHelper5ClearEjRK10ColorRGBAffjR17ShaderPassContext
fnd:__ZN5physx2Sc19ParticlePacketShapeD2Ev
_bb:__ZL11DecodeValuePPKcS0_
pYf:_ShimEnumerator_MoveNext_m2013866013_gshared
zG:__ZN13MemoryManagerC2Ev
Dwa:__ZN20ArchiveStorageReader28AcquireAndPrefillUnusedBlockEjPNS_11CacheResultE
KBf:__ZN21InterfaceFuncInvoker1I40CustomAttributeTypedArgument_t1498197914iE6InvokeEjP11Il2CppClassPvi
CXg:__Z78RuntimeInvoker_Il2CppObject_SByte_t454417549_SByte_t454417549_SByte_t454417549PK10MethodInfoPvPS2_
IMb:__Z12NHxRoughnessIA4_tEvP9Texture2DPT_iiii
a7f:_MethodDictionary_get_SyncRoot_m673971424
IQ:__ZN16ScriptingManager27NativeTypeForScriptingClassEP11Il2CppClass
XU:__ZN18AsyncUploadManagerD2Ev
Ucb:__ZN9Transform5ResetEv
dvb:__Z22TransferField_NonArrayI24GenerateTypeTreeTransfer16Converter_StringEvRK23StaticTransferFieldInfoR31RuntimeSerializationCommandInfoRT0_
_nb:__ZN9TextAsset9SetScriptERK8UnityStr
Cgf:_HttpWebRequest_System_Runtime_Serialization_ISerializable_GetObjectData_m3671622902
dX:__Z17MainLoopKeepalivePv
Qqc:__ZN5physx7NpScene16addActorInternalERNS_7PxActorE
Rwg:_MatchCollection__ctor_m1944681790
Izf:_HMACSHA512__ctor_m1667460019
HCa:__Z24ScheduleCullingAllGroupsR8JobFenceRK22SceneCullingParameters4PPtrI6CameraERK13CullingOutputRK13dynamic_arrayIP12CullingGroupLj4EERKS_
aNd:_ToBase64Transform_get_OutputBlockSize_m949275583
NBa:__Z14CalcHullBoundsPK8Vector3fPKhhRK5PlaneRK10Matrix4x4fR10MinMaxAABB
prf:_RealProxy__ctor_m2147093603
oGa:__Z19SetupLODFadeKeywordR17ShaderPassContexti
wwb:__Z18Transfer_BlittableI19StreamedBinaryWriteILb0EELb0E5RectTIfEEvRK29SerializationCommandArgumentsR31RuntimeSerializationCommandInfo
noa:__ZL25CheckCopyTextureArgumentsRK7ApiGLESP11GLESTextureS3_
SU:__ZN13dynamic_arrayI26EnlightenSystemInformationLj8EE6insertEPS0_PKS0_S4_
c5f:_SynchronizedClientContextSink__ctor_m978504596
KGe:_MulticastNotSupportedException__ctor_m2164514827
ige:_DateTime_System_IConvertible_ToChar_m2489529194_AdjustorThunk
Qvb:__Z29Transfer_Blittable_ArrayFieldI24GenerateTypeTreeTransferyEvRT_R9ArrayInfoRK23StaticTransferFieldInfo
Zvd:__ZN14PhysicsManager23VirtualRedirectTransferER18StreamedBinaryReadILb1EE
ov:__ZN4FMOD7SystemI9playSoundE17FMOD_CHANNELINDEXPNS_5SoundEbPPNS_7ChannelE
qCd:__ZN13PhysicsModule31GetColliderComponentsInChildrenERK10GameObjectbbR13dynamic_arrayIPN5Unity9ComponentELj4EE
AK:__GLOBAL__sub_I_runtime_graphics_mesh2_lump_cpp
Jvg:__ZL68PreferBinarySerialization_t2472773525_CustomAttributesCacheGeneratorP21CustomAttributesCache
mIc:__ZNK5physx7NpCloth16getStretchConfigENS_22PxClothFabricPhaseType4EnumE
PMh:__ZN6il2cpp2os4File4ReadEPNS0_10FileHandleEPciPi
Kt:__ZN12AudioManager23VirtualRedirectTransferER18StreamedBinaryReadILb0EE
Sdi:_realloc
wlb:__ZN30RuntimeInitializeOnLoadManager23VirtualRedirectTransferER17RemapPPtrTransfer
Uqi:dynCall_viif
mJf:_MonoField_get_DeclaringType_m1591666235
fOf:_InternalEnumerator_1__ctor_m2111763266_AdjustorThunk
X_g:__Z90RuntimeInvoker_Void_t1841601450_Vector3_t2243707580_Vector3_t2243707580_Single_t2076509932PK10MethodInfoPvPS2_
HGa:__ZN29MotionVectorRenderLoopScratchD2Ev
_ld:__ZN5physx2Sc24ConstraintProjectionTree11projectPoseERNS0_19ConstraintGroupNodeE
vtb:__ZL26Transfer_SimpleNativeClassI17RemapPPtrTransfer8GradientLb0EEvRK29SerializationCommandArgumentsR31RuntimeSerializationCommandInfo
$Za:__ZNSt3__26vectorIN20ArchiveStorageHeader12StorageBlockE13stl_allocatorIS2_L18MemLabelIdentifier54ELi16EEE21__push_back_slow_pathIKS2_EEvRT_
BCh:__ZN6il2cpp6icalls8mscorlib6System8MonoType14get_attributesEP20Il2CppReflectionType
CXa:__Z43DestroyWithoutLoadingButDontDestroyFromFilei
yCd:__ZN13PhysicsModule29GetColliderMaterialInstanceIDER8Collider
AFe:_MonoType_GetDefaultConstructor_m925465120
Fwc:__ZNK5physx20NpRigidActorTemplateINS_18PxArticulationLinkEE14getConstraintsEPPNS_12PxConstraintEjj
rc:_emscripten_glBlendFuncSeparate
MEf:_GenericTypeParameterBuilder_IsPrimitiveImpl_m1198748291
$N:__Z20scripting_string_newPKc
F6e:_CipherSuiteCollection_Add_m3114709461
eye:_Directory_GetCurrentDirectory_m44486537
ZSg:__Z45RuntimeInvoker_RuntimeFieldHandle_t2331729674PK10MethodInfoPvPS2_
vUh:__ZNK24NamespaceAndNamePairHashclERKNSt3__24pairIPKcS3_EE
Kuh:__ZNK15dense_hashtableINSt3__24pairIK10KeyWrapperINS0_12basic_stringIcNS0_11char_traitsIcEENS0_9allocatorIcEEEEEP11Il2CppClassEES9_N6il2cpp5utils11StringUtils12StringHasherIS8_EEN14dense_hash_mapIS9_SC_SI_NS0_8equal_toIS9_EENS6_ISD_EEE9SelectKeyESL_SM_E5beginEv
$Wa:__ZN29AssetBundleLoadAssetOperation34CollectFullPreloadDataDependenciesER13dynamic_arrayIiLj4EE
tee:_Convert_ToInt64_m4057339019
dxc:__ZNK5physx19NpRigidBodyTemplateINS_18PxArticulationLinkEE27getMaxDepenetrationVelocityEv
$pd:__ZThn8_N5physx2Gu11HeightFieldD1Ev
JPh:__ZNSt3__218uninitialized_copyIPNS_4pairIK10KeyWrapperIP11Il2CppClassES4_EES8_EET0_T_SA_S9_
xSc:__ZN5physx19NpRigidBodyTemplateINS_14PxRigidDynamicEED0Ev
Vuc:__ZNK5physx19PxArticulationJoint19getConcreteTypeNameEv
_s:__ZN17AudioCustomFilterD2Ev
qna:__ZN18GfxFramebufferGLES18ReleaseFramebufferEP17RenderSurfaceBaseP14GfxContextGLES
Y3f:_Context_GetDynamicPropertyCollection_m1987747444
akf:_X509Certificate2_get_Version_m1927399907
K_b:__Z18Transfer_BlittableI8JSONReadLb1EiEvRK29SerializationCommandArgumentsR31RuntimeSerializationCommandInfo
sF:__ZN19CloudServiceHandler34HandleSaveFileWebRequestPlayerLoopEv
Qs:__Z31GetParentSampleClipFromInstancePN11SoundHandle8InstanceE
cLb:__ZNK28RectTransformPropertyBinding13GetFloatValueERKN11UnityEngine9Animation10BoundCurveE
aec:__ZN5physx11PxHitBufferINS_12PxOverlapHitEE14processTouchesEPKS1_j
DTc:__ZL22addOrRemoveRigidObjectILb0ELb0ELb0ELb1EN5physx3Scb11RigidStaticEEvRNS0_2Sc5SceneERT3_b
X9h:__ZN6il2cpp2os16ThreadLocalValue8GetValueEPPv
Dm:FUNCTION_TABLE_iiiiifiif
aMd:_SHA384Managed_Initialize_m712692291
Goe:_CompareInfo_get_LCID_m3346446356
sgg:__ZL60CallingConvention_t3354538265_CustomAttributesCacheGeneratorP21CustomAttributesCache
_Nd:__ZN21InterfaceFuncInvoker2IP8String_tS1_P12Il2CppObjectE6InvokeEjP11Il2CppClassPvS1_S3_
YXb:__Z52Object_CUSTOM_GetOffsetOfInstanceIDInCPlusPlusObjectv
joc:__ZN5physx6shdfnd4sortIPvNS0_4LessIS2_EENS0_19ReflectionAllocatorINS_2Cm5BlockIS2_Lj8EEEEEEEvPT_jRKT0_RKT1_j
Lz:__ZN9AudioClip15InitializeClassEv
vEc:__ZNK5physx9NpPhysics11getNbShapesEv
So:setThrew
uPg:__Z36RuntimeInvoker_IntPtr_t_Il2CppObjectPK10MethodInfoPvPS2_
AMb:__ZL21BuildEmptyCubeTexturePKci11ColorRGBA3217TextureColorSpace
KDb:__ZN14SafeBinaryRead21TransferSTLStyleArrayINSt3__26vectorIN9ShaderLab20SerializedSubProgramENS1_9allocatorIS4_EEEEEEvRT_17TransferMetaFlags
MGd:__ZN13RuntimeStaticI20HardwareInfoReporterE10InitializeEv
F_b:__Z15Transfer_StringI8JSONReadLb1EEvRK29SerializationCommandArgumentsR31RuntimeSerializationCommandInfo
U4:__ZN6prcoreL17RemapGenericFloatI17TexFormatRGBFloat15TexFormatRGHalfEEvPKNS_9InnerInfoE
DFa:__Z25DoForwardShaderRenderLoopR17RenderLoopContextR13dynamic_arrayI16RenderObjectDataLj4EERK11CullResultsbbbN6Camera10RenderFlagE
dQe:_PKCS12_GetSymmetricAlgorithm_m1812022677
WYd:_UTF8Encoding_GetByteCount_m2372933408
V3f:_Context_get_NeedsContextSink_m1907794755
Y2e:_ARC4Managed_GenerateKey_m716135508
cub:__Z18Transfer_BlittableI17RemapPPtrTransferLb1E11ColorRGBA32EvRK29SerializationCommandArgumentsR31RuntimeSerializationCommandInfo
t7b:__ZN5physx2Gu20intersectTriangleBoxERKNS_6PxVec3ES3_S3_S3_S3_
qDc:__ZN5physx10NpMaterial8setFlagsENS_7PxFlagsINS_14PxMaterialFlag4EnumEtEE
lVa:__ZN13BaseAllocator13TryDeallocateEPv
Cxb:__Z29Transfer_Blittable_ArrayFieldI19StreamedBinaryWriteILb0EEfEvRT_R9ArrayInfoRK23StaticTransferFieldInfo
t_d:_Array_CreateInstance_m1054139389
bPf:_InternalEnumerator_1__ctor_m967618647_AdjustorThunk
YTa:__ZN16MemoryFileSystem5WriteER13FileEntryDatayPvPy
W1a:__ZNSt3__26vectorIN12FlareManager10FlareEntryENS_9allocatorIS2_EEE21__push_back_slow_pathIKS2_EEvRT_
dbi:_sprintf
Pgh:_Collision_get_impactForceSum_m521972354
tLd:_SHA1_Create_m4086509717
rQg:__Z57RuntimeInvoker_Il2CppObject_RuntimeTypeHandle_t2330101084PK10MethodInfoPvPS2_
XJf:_MonoMethodInfo_GetMethodInfo_m3298558752
vt:__ZN13AudioListener17RemoveFromManagerEv
md:_glAttachShader
Oxd:__ZN5physx6shdfnd8internal8HashBaseINS0_4PairIKtPKcEEtNS0_4HashItEENS1_11HashMapBaseItS6_S9_NS_7profile26WrapperReflectionAllocatorIS6_EEE6GetKeyESD_Lb1EE6createERS4_Rb
sya:__ZNK6Camera19GetProjectionMatrixEv
wnd:__ZNK5physx2Cm12DelegateTaskINS_2Sc5SceneEXadL_ZNS3_18clothPreprocessingEPNS_10PxBaseTaskEEEE7getNameEv
PYc:__ZNK5physx7NpScene24getWakeCounterResetValueEv
ORc:__ZN5physx20NpRigidActorTemplateINS_14PxRigidDynamicEE17resolveReferencesERNS_24PxDeserializationContextE
nrh:__ZN15dense_hashtableINSt3__24pairIK10KeyWrapperIPK22Il2CppGenericParameterEP11Il2CppClassEES6_N6il2cpp5utils11PointerHashIS4_EEN14dense_hash_mapIS6_S9_SE_NS0_8equal_toIS6_EENS0_9allocatorISA_EEE9SelectKeyESH_SJ_E8min_sizeEjj
Xke:_StackTrace__ctor_m2404985356
ged:__ZN5physx2Gu32PCMConvexVsMeshContactGeneration20generateLastContactsEv
WP:__Z38PreallocateObjectFromPersistentManagerib
wge:_DateTime_System_IConvertible_ToSingle_m3927769066
Jji:__ZNSt3__211__money_getIwE13__gather_infoEbRKNS_6localeERNS_10money_base7patternERwS8_RNS_12basic_stringIcNS_11char_traitsIcEENS_9allocatorIcEEEERNS9_IwNSA_IwEENSC_IwEEEESJ_SJ_Ri
ADc:__ZThn12_N5physx10NpMaterialD0Ev
y7a:__ZNK9Texture2D20GetUnscaledTextureIDEv
Uz:__ZN9AudioClip7PRODUCEE18MemLabelIdentifier18ObjectCreationMode
Eee:_Convert_ToSByte_m883113940
Ktd:__ZN5physx6shdfnd4sortIjNS_19SortBoundsPredicateENS0_19ReflectionAllocatorIjEEEEvPT_jRKT0_RKT1_j
xwi:_glFenceSync__wrapper
zGe:_MonoType_get_ContainsGenericParameters_m3229732653
_Fc:__ZN5physx7NpShape14onRefCountZeroEv
kXe:_Array_InternalArray__IndexOf_TisContactPoint_t1376425630_m3651364246_gshared
s7h:__ZN6il2cpp2vm13ComObjectBaseINS0_13ManagedObjectE18Il2CppIInspectableNS0_7details6ComNilES5_S5_S5_S5_S5_S5_E16__CreateInstanceEP12Il2CppObject
htd:__ZL15TestContainmentRKN5physx6PxVec3EPKfjPKNS_2Gu15HullPolygonDataE
D7a:__ZNK9Texture2D26CanReuploadDataToGfxDeviceEv
Kzb:__ZN18StreamedBinaryReadILb0EE21TransferSTLStyleArrayI13dynamic_arrayI4AABBLj4EEEEvRT_17TransferMetaFlags
iIg:_UInt16_System_IConvertible_ToDouble_m4100549304_AdjustorThunk
GSg:__Z116RuntimeInvoker_Il2CppObject_Il2CppObject_Il2CppObject_Int32_t2071877448_Int32_t2071877448_MonoIOErrorU26_t1029615899PK10MethodInfoPvPS2_
d8:__Z29ClearRepeatingLogMessageStatev
iqd:__ZN5physx2Gu11HeightField12loadFromDescERKNS_17PxHeightFieldDescEb
FRd:_Single_System_IConvertible_ToInt16_m962677079
nU:__ZN21EnlightenSceneMappingaSERKS_
kwf:_RuntimeTypeHandle_get_Value_m2239757882
oai:__ZNK6il2cpp8metadata21Il2CppGenericInstHashclEPK17Il2CppGenericInst
TRd:_Single_System_IConvertible_ToUInt32_m2447833283
osa:__ZN7ApiGLESD2Ev
ZNa:__ZN9Transform47ClearTransformHierarchyAndApplyToSerializedDataEv
LSf:_InternalEnumerator_1_get_Current_m4083613828_AdjustorThunk
VVc:__ZN5physx6shdfnd8PoolBaseINS_2Gu30LargePersistentContactManifoldENS0_19ReflectionAllocatorIS3_EEE12allocateSlabEv
iDc:__ZNK5physx10NpMaterial17getReferenceCountEv
jJd:_RijndaelManaged_GenerateKey_m3366247933
Mxe:_BinaryReader_ReadUInt64_m1893783375
ORa:__ZN17PersistentManager9AddStreamEv
lri:dynCall_fidi
kid:__ZN5physx20getVertexEdgeIndicesERKNS_2Gu11HeightFieldEjjjPNS_8EdgeDataE
a$c:__ZN5physx6shdfnd5ArrayIPNS_2Sc8BodyCoreENS0_19ReflectionAllocatorIS4_EEE6resizeEjRKS4_
Rfc:__ZN5physx3Cct26CharacterControllerManager16createControllerERNS_9PxPhysicsEPNS_7PxSceneERKNS_16PxControllerDescE
rE:__ZN11UnityEngine15CloudWebService14RestDownloaderD2Ev
ASa:__Z29StdTemplateConversionFunctionIjhEbPvR14SafeBinaryRead
E3a:__ZN22RenderingCommandBufferC2ERKS_
nxd:__ZNK12PhysXRaycast12BatchOverlapER13dynamic_arrayI15BatchedOverlapsLj4EEPP8Colliderj
DNf:_ArrayReadOnlyList_1_Remove_m2325516426_gshared
s8d:_Hashtable_get_Count_m830088216
XTb:__ZNK13MonoBehaviour13GetScriptTypeEv
VY:__ZN13RenderTexture12SetDimensionE16TextureDimension
Enh:_ScriptableObject_CreateInstance_m3921674852
ce:_SDL_FreeRW
tOe:_PKCS1_OS2IP_m1273945439
CLd:_SHA1Internal_FillBuff_m891541953
kqg:__ZL62ResolveEventHandler_t3842432458_CustomAttributesCacheGeneratorP21CustomAttributesCache
kOc:__ZN5physx3Scb14ParticleSystem14setRestOffsetsEjRKNS_16PxStrideIteratorIKjEERKNS2_IKfEE
ty:__ZN20SoundChannelInstance8getDelayE14FMOD_DELAYTYPEPjS1_
BYa:__ZN21AssetBundleFileSystemC2EPKc
VPg:__Z61RuntimeInvoker_Void_t1841601450_Il2CppObject_Int64_t909078037PK10MethodInfoPvPS2_
Lba:__ZN10UnitySceneD0Ev
Nqe:_NumberFormatter_FormatExponential_m3975285307
u:tempBigInt
ke:_emscripten_glVertexAttrib1fv
$Db:__ZNSt3__26vectorIN9ShaderLab20SerializedSubProgram12UAVParameterENS_9allocatorIS3_EEE7reserveEj
X$e:_Array_InternalArray__get_Item_TisTypeTag_t141209596_m1747911007_gshared
Xeh:_AnimationCurve_Init_m1486386337
whh:_Component_GetComponents_m3712441745
PZc:__ZN5physx13NpVolumeCacheC2EPNS_2Sq17SceneQueryManagerEjj
fpc:__ZThn24_N5physx2Sc20ArticulationJointSimD1Ev
umg:__ZL99Thread_t241561612_CustomAttributesCacheGenerator_Thread_t241561612____ExecutionContext_PropertyInfoP21CustomAttributesCache
RVd:_DecoderReplacementFallback_get_DefaultString_m3399348550
C2g:__Z57RuntimeInvoker_ResourceInfo_t3933049236_Int32_t2071877448PK10MethodInfoPvPS2_
Sth:__ZN15dense_hashtableINSt3__24pairIK10KeyWrapperIPK19Il2CppGenericMethodEPK26Il2CppGenericMethodIndicesEES6_N6il2cpp8metadata23Il2CppGenericMethodHashEN14dense_hash_mapIS6_SA_SE_NSD_26Il2CppGenericMethodCompareENS0_9allocatorISB_EEE9SelectKeyESG_SI_E13set_empty_keyERKSB_
lOc:__ZN5physx2Sc18ParticleSystemCore14setRestOffsetsEjRKNS_16PxStrideIteratorIKjEERKNS2_IKfEE
K7b:__ZN5physx2Gu16testPolyDataAxisERKNS0_8CapsuleVERKNS0_13PolygonalDataEPNS0_12SupportLocalERKNS_6shdfnd3aos6FloatVERSB_RNSA_5Vec3VE
zMa:__ZN16ReflectionProbes16UpdateSampleDataEv
_Pg:__Z71RuntimeInvoker_Int32_t2071877448_Il2CppObject_Il2CppObject_Il2CppObjectPK10MethodInfoPvPS2_
Yrc:__ZN5physx2Sc17ParticleSystemSimD0Ev
rWh:__ZNK15dense_hashtableI10KeyWrapperIP18Il2CppGenericClassES3_N6il2cpp8metadata22Il2CppGenericClassHashEN14dense_hash_setIS3_S6_NS5_25Il2CppGenericClassCompareENSt3__29allocatorIS3_EEE8IdentityES8_SB_E10test_emptyERK30dense_hashtable_const_iteratorIS3_S3_S6_SD_S8_SB_E
xCb:__ZN14SafeBinaryRead21TransferSTLStyleArrayI10vector_setI4PPtrI10MonoScriptENSt3__24lessIS4_EE13stl_allocatorIS4_L18MemLabelIdentifier76ELi16EEEEEvRT_17TransferMetaFlags
YTg:__Z103RuntimeInvoker_Il2CppObject_Il2CppObject_StreamingContext_t1417235061_ISurrogateSelectorU26_t2635255864PK10MethodInfoPvPS2_
S1f:_SafeHandle_Finalize_m1839546519
Tdb:__ZN14Texture2DArray5ResetEv
l$b:__ZN8JSONRead21TransferSTLStyleArrayINSt3__26vectorI10RectOffset13stl_allocatorIS3_L18MemLabelIdentifier1ELi16EEEEEEvRT_S5_17TransferMetaFlags
E4f:_Context_AllocateNamedDataSlot_m3200404053
hFa:__ZN14BatchAllocator6CommitE18MemLabelIdentifier
$if:_X509EnhancedKeyUsageExtension_Decode_m3866320499
Jqe:_NumberFormatter_AppendIntegerStringWithGroupSeparator_m1401773574
RNh:__ZNK6il2cpp2vm14TypeNameParser10NextWillBeEcb
z5e:_CipherSuite_get_ServerHMAC_m3566778727
He:_JS_Sound_Play
Sgi:__ZNSt3__219__libcpp_asprintf_lEPPcP15__locale_structPKcz
mDb:__ZN9ShaderLab16SerializedShader8TransferI14SafeBinaryReadEEvRT_
Laa:__ZN5Mutex7TryLockEv
ePg:__Z51RuntimeInvoker_Int16_t4041245914_Decimal_t724701077PK10MethodInfoPvPS2_
Egh:_Collision_get_collider_m3340328360
H$a:__ZN14SafeBinaryRead21TransferSTLStyleArrayIN4core12basic_stringIcNS1_20StringStorageDefaultIcEEEEEEvRT_17TransferMetaFlags
Nrf:_RemotingConfiguration_RegisterWellKnownServiceType_m2491506630
mhg:__ZL55_TypeBuilder_t2783404358_CustomAttributesCacheGeneratorP21CustomAttributesCache
cTa:__Z29StdTemplateConversionFunctionIayEbPvR14SafeBinaryRead
iTc:__ZNK5physx20NpRigidActorTemplateINS_13PxRigidStaticEE14getConstraintsEPPNS_12PxConstraintEjj
gac:__ZN25MeshMTDGenerationCallbackD0Ev
YE:__ZN11UnityEngine15CloudWebService14DataDispatcher4StopEv
bEb:__ZNSt3__26vectorIN9ShaderLab20SerializedSubProgram12UAVParameterENS_9allocatorIS3_EEE8__appendEj
cch:_Collection_1_GetEnumerator_m434271983_gshared
mRd:_SecurityFrame_t1002202659_marshal_pinvoke_cleanup
jDd:__ZN22BaseUnityConnectClient24OnSaveFileFromServerDoneERK8UnityStrS2_bi
F3f:_LifetimeServices_set_LeaseTime_m1487876644
CCf:_ConstructorBuilder_not_supported_m3687319507
ebg:__ZL48IList_t3321498491_CustomAttributesCacheGeneratorP21CustomAttributesCache
Q$b:__Z33EmitSerializationCommandsForFieldI9JSONWriteEvR18TransferField_InfoR32SerializationCommandQueueBuilderRP20AllowNameConversions
KRd:_Single_System_IConvertible_ToInt64_m3555853323_AdjustorThunk
XBb:__Z23TransferScriptingObjectI19StreamedBinaryWriteILb0EEEvRT_P12Il2CppObjectP11Il2CppClassPK15MonoScriptCache
nXh:__ZNK15dense_hashtableINSt3__24pairIK10KeyWrapperIP12Il2CppObjectEN6il2cpp2gc9CachedCCWEEES5_NS7_5utils11PointerHashIS3_EEN14dense_hash_mapIS5_S9_SD_NS0_8equal_toIS5_EENS0_9allocatorISA_EEE9SelectKeyESG_SI_E3endEv
RTg:__Z87RuntimeInvoker_Il2CppObject_Il2CppObject_Il2CppObject_Il2CppObject_StringU26_t638738783PK10MethodInfoPvPS2_
z9:__Z21HasAlphaTextureFormat13TextureFormat
nA:__ZN12AudioManager6UpdateEv
x9:__ZN14ImageReference9BlitImageERKS_NS_8BlitModeE
MJf:_MonoMethod_get_MethodHandle_m1882915015
pfg:__ZL93ConstructorInfo_t2851816542_CustomAttributesCacheGenerator_ConstructorInfo_Invoke_m2144827141P21CustomAttributesCache
tLa:__ZNK9ShaderLab9IntShader6GetTagEib
K6b:__ZNK5physx2Gu16SupportLocalImplINS0_11ConvexHullVEE9doSupportERKNS_6shdfnd3aos5Vec3VERNS5_6FloatVESA_
ipb:__ZN23CachedSerializationDataD2Ev
F3b:__ZNK5physx3Cct13BoxController8getActorEv
C5a:__ZN14RenderSettings23VirtualRedirectTransferER14SafeBinaryRead
BZh:__ZN6il2cpp2os10ThreadImpl15CurrentThreadIdEv
S2a:__ZN17GlobalGameManager8TransferI17RemapPPtrTransferEEvRT_
$qd:__ZN5physx6shdfnd8internal8HashBaseIPNS_2Gu12TriangleMeshES5_NS0_4HashIS5_EENS1_11HashSetBaseIS5_S7_NS0_9AllocatorELb1EE6GetKeyES9_Lb1EE5eraseERKS5_
gTe:_AppDomainInitializer_EndInvoke_m4003801172
QXg:__Z72RuntimeInvoker_Il2CppObject_Il2CppObject_Decimal_t724701077_Il2CppObjectPK10MethodInfoPvPS2_
n5a:__ZN16LevelGameManager8TransferI18StreamedBinaryReadILb0EEEEvRT_
iib:__ZN12InputManagerD0Ev
Yre:_NumberFormatInfo_set_NumberNegativePattern_m1050626150
RXd:_UnicodeEncoding_GetBytes_m1337660232
Soh:_SerializePrivateVariables__ctor_m806793207
Cyc:__ZN5physx2Sc9RigidCore20removeShapeFromSceneERNS0_9ShapeCoreEb
Kxd:__ZN5physx6shdfnd8internal8HashBaseINS0_4PairIKPKcjEES5_NS0_4HashIS5_EENS1_11HashMapBaseIS5_jS9_NS_7profile26WrapperReflectionAllocatorIjEEE6GetKeyESD_Lb1EE15reserveInternalEj
Cbi:___ctype_b_loc
jM:__ZN13RuntimeStaticI11WindManagerE16StaticInitializeEPv
iDa:__ZNK19RenderEventsContext21ExecuteCommandBuffersEiR17ShaderPassContextRK15RenderNodeQueueP19ProfilerInformationi
Ftd:__ZN5physx11RTreeCooker18buildFromTrianglesERNS_2Gu5RTreeEPKNS_6PxVec3EjPKtPKjjRNS_6shdfnd5ArrayIjNSB_19ReflectionAllocatorIjEEEEPNS0_13RemapCallbackEfNS_17PxMeshCookingHint4EnumE
Nsc:__ZN5physx6shdfnd5ArrayIPvNS0_15InlineAllocatorILj256ENS0_19ReflectionAllocatorINS_14NpArticulationEEEEEE15growAndPushBackERKS2_
TVf:_InternalEnumerator_1_get_Current_m747506907_AdjustorThunk
ggh:_Camera_get_eventMask_m4241372419
nkd:__ZN29PxsCreateFinalizeContactsTaskD0Ev
scf:_SslClientStream_get_ClientCertSelectionDelegate_m2316959461
h6d:_SynchronizedArrayListWrapper_get_SyncRoot_m1466044127
ZP:__ZNK15MonoScriptCache7ReleaseEv
jsh:__ZN6il2cpp2vm5Class13HasReferencesEP11Il2CppClass
Mfd:__ZN5physx9PxTaskMgrC2EPNS_15PxCpuDispatcherEPNS_15PxGpuDispatcherEPNS_15PxSpuDispatcherE
Xf:_glBindTexture
_bh:_Collection_1_ClearItems_m3585785594_gshared
cci:_snprintf
i4a:__ZN11LightProbes23VirtualRedirectTransferER18StreamedBinaryReadILb1EE
$Af:_Binder__ctor_m1361613966
mFf:_ILGenerator__cctor_m3943061018
z5d:_ArrayListWrapper_Clone_m1506311066
hqa:__ZN16UniformCacheGLES6CreateERK20GpuProgramParameters
dZd:_UTF8Encoding_Fallback_m811555654
qKg:_UInt64_CompareTo_m3513742483
Jnh:_ScriptableObject_t1975622470_marshal_pinvoke_cleanup
UWd:_Encoding_GetString_m1894033578
Vti:_emscripten_glGetProgramInfoLog__wrapper
gYh:__ZN6il2cpp2vm5Field14IsThreadStaticEP9FieldInfo
JS:__ZN17PersistentManager23DestroyFromFileInternalEi
cug:__ZL98Object_t1021602117_CustomAttributesCacheGenerator_Object_DoesObjectWithInstanceIDExist_m2570795274P21CustomAttributesCache
Wme:_Enum_ToString_m2112979707
Mig:__ZL55SoapServices_t3397513225_CustomAttributesCacheGeneratorP21CustomAttributesCache
p7f:_MonoMethodMessage_get_MethodName_m3580519713
A7e:_RecordProtocol_encryptRecordFragment_m1241873183
U5c:__ZN5physx19PxsMaterialCombiner24combineIsotropicFrictionERKNS_15PxsMaterialDataES3_
bne:_Enum_t2459695545_marshal_pinvoke_cleanup
rPc:__ZN5physx22NpParticleBaseTemplateINS_16PxParticleSystemENS_16NpParticleSystemEE20lockParticleReadDataEv
z0:__ZN22CreateGpuProgramOutputC2Ev
chh:_Object__ctor_m197157284
CAe:_MemoryStream_InternalConstructor_m2423667240
rAg:_CapturingGroup_set_Index_m2175936006
Tmi:__ZNSt13runtime_errorC2ERKNSt3__212basic_stringIcNS0_11char_traitsIcEENS0_9allocatorIcEEEE
qMg:__Z70RuntimeInvoker_Il2CppObject_Il2CppObject_Il2CppObject_SByte_t454417549PK10MethodInfoPvPS2_
cqf:_SoapMethodAttribute_SetReflectionObject_m3431595769
Nrd:__ZN5physx7Cooking16cookTriangleMeshERKNS_18PxTriangleMeshDescERNS_14PxOutputStreamE
FOb:__ZN8GUILayer12CleanupClassEv
Zpc:__ZN5physx2Sc7ElementD0Ev
kud:__ZN5physx6shdfnd10Foundation7releaseEv
tM:__ZN19ShaderPropertySheet27AddNewPropertyUninitializedERKN9ShaderLab16FastPropertyNameENS_12PropertyTypeEijj
lc:invoke_vidi
jQe:_DeriveBytes_Adjust_m105515328
X_e:_Array_swap_TisIl2CppObject_TisIl2CppObject_m127996650_gshared
wyb:__Z18Transfer_BlittableI18StreamedBinaryReadILb0EELb0ExEvRK29SerializationCommandArgumentsR31RuntimeSerializationCommandInfo
BYh:__ZN6il2cpp5utils11StringUtils15StringDuplicateEPKc
GTh:__ZN6il2cpp2vm9Exception32GetPlatformNotSupportedExceptionEPKc
S$:__ZNK9ShaderLab21ShaderRasterStateDesc16ToGfxRasterStateEPK19ShaderPropertySheetS3_R14GfxRasterState
yIa:__Z16RenderShadowMapsPK18ShadowMapJobHeaderR17ShaderPassContext
Sxf:_CspParameters__ctor_m2480441577
lai:__ZN6il2cpp2os9EventImplC2Ebb
f4f:_DynamicPropertyCollection_NotifyMessage_m840388347
CBg:_Uri_ParseUri_m5711497
f2a:__ZN12FlareManager12RemoveCameraER6Camera
QM:__Z20IsMatrixBuiltinParamPKcPi
JXg:__Z63RuntimeInvoker_Void_t1841601450_Il2CppObject_Decimal_t724701077PK10MethodInfoPvPS2_
_Mb:__ZN8Renderer19PostInitializeClassEv
yT:__ZN13RuntimeStaticINSt3__23mapINS0_12basic_stringIcNS0_11char_traitsIcEENS0_9allocatorIcEEEES7_NS0_4lessIS7_EE13stl_allocatorINS0_4pairIKS7_S7_EEL18MemLabelIdentifier12ELi16EEEEE16StaticInitializeEPv
Cgi:__ZNKSt3__27num_getIwNS_19istreambuf_iteratorIwNS_11char_traitsIwEEEEE15__do_get_signedIxEES4_S4_S4_RNS_8ios_baseERjRT_
O5h:__ZN6il2cpp6icalls8mscorlib6System8Delegate23CreateDelegate_internalEP20Il2CppReflectionTypeP12Il2CppObjectP22Il2CppReflectionMethodb
Dei:__ZNSt3__214basic_iostreamIcNS_11char_traitsIcEEED0Ev
oBf:_Default_check_type_m2363631305
dpb:__ZN18DelayedCallManager18CancelCallDelayed2E4PPtrI6ObjectEPF15CallObjectStatePS1_PvES7_
JIf:_MonoCMethod_get_DeclaringType_m4147430117
qVa:__ZN25ThreadsafeLinearAllocator10ReallocateEPvji
drb:__Z18Transfer_BlittableI14SafeBinaryReadLb1E11QuaternionfEvRK29SerializationCommandArgumentsR31RuntimeSerializationCommandInfo
hwc:__ZNK5physx18PxArticulationLink8isKindOfEPKc
vKf:_MonoProperty_GetAccessors_m3704698731
iTg:__Z146RuntimeInvoker_Il2CppObject_Int32_t2071877448_Il2CppObject_ObjectU5BU5DU26_t3223402458_Il2CppObject_Il2CppObject_Il2CppObject_ObjectU26_t597476745PK10MethodInfoPvPS2_
HBd:__Z25CreatePxMeshFromUnityMeshP4MeshbbRK10Matrix4x4f13TransformTypef
o5h:_GC_disable
vfb:__ZN10Matrix4x4f8TransferI14SafeBinaryReadEEvRT_
Sn:FUNCTION_TABLE_vifiiiiiiiiiiiiiiiiii
VDe:_UnmanagedMemoryStream_ReadByte_m2501145010
w_f:_Dictionary_2__ctor_m406310120_gshared
Ltf:_ObjectRecord_UnchainFixup_m3025030310
Yji:__ZNSt3__28messagesIcED0Ev
u9f:__ZL60MulticastDelegate_t3201952435_CustomAttributesCacheGeneratorP21CustomAttributesCache
nCd:__ZN14PhysicsManager7PRODUCEE18MemLabelIdentifier18ObjectCreationMode
qNb:__ZN19ShaderPropertySheet16SetVectorIndexedERKN9ShaderLab16FastPropertyNameEifRK8Vector4fNS_8SetFlagsE
V6:__ZL14OnWorldStoppedv
cAb:__Z18Transfer_BlittableI18StreamedBinaryReadILb1EELb0E8Vector3fEvRK29SerializationCommandArgumentsR31RuntimeSerializationCommandInfo
d$g:__Z35RuntimeInvoker_Playable_t3667545548PK10MethodInfoPvPS2_
SXa:__ZN14CachingManager15ClearTempFolderEv
OKe:_Kernel_LeftShift_m1507484288
YUb:__Z37Camera_Get_Custom_PropAllCamerasCountv
meb:__ZN14Texture2DArray8TransferI18StreamedBinaryReadILb0EEEEvRT_
Dzc:__ZN5physx15NpActorTemplateINS_18PxArticulationLinkEED2Ev
Vze:_FileStreamAsyncResult__ctor_m1096228032
Ya:invoke_fiiii
Olb:__ZNSt3__26vectorIN30RuntimeInitializeOnLoadManager15ClassMethodInfoE13stl_allocatorIS2_L18MemLabelIdentifier12ELi16EEE26__swap_out_circular_bufferERNS_14__split_bufferIS2_RS5_EE
sie:_DBNull_System_IConvertible_ToSByte_m1228193074
Jbh:_Collection_1__ctor_m2818834331_gshared
xBd:__Z19ExtractDataFromMeshR4MeshR13dynamic_arrayI8Vector3fLj4EERS1_ItLj2EES6_
rjh:_Playables_InternalDestroy_m3873600434
DZh:__ZN6il2cpp2os10ThreadImpl22CreateForCurrentThreadEv
pWf:_Comparer_1__cctor_m3801958574_gshared
cli:__ZNKSt3__25ctypeIcE9do_narrowEPKcS3_cPc
VAc:__ZN5physx2Sc16ArticulationCore26setMaxProjectionIterationsEj
UPd:_SecurityElement__ctor_m1988489885
sze:_FileStream_FlushBuffer_m2594140542
Mdc:__ZN26IntersectAnyVsMeshCallbackILi1ELb0EED2Ev
Eqd:__ZN5physx2Gu13RTreeMidphaseC2Ev
M1h:__ZN6il2cpp2vm8Profiler12GCHeapResizeEx
qri:dynCall_viiifi
Wma:__ZN18GfxFramebufferGLES20ActiveContextChangedEPP17RenderSurfaceBaseS2_
Rpg:__ZL51TimeSpan_t3430258949_CustomAttributesCacheGeneratorP21CustomAttributesCache
Sma:__Z19PluginsRenderMarkeri
gug:__ZL80Object_t1021602117_CustomAttributesCacheGenerator_Object_Instantiate_m2439155489P21CustomAttributesCache
Fee:_Convert_ToSByte_m1570938941
XFh:__ZN6il2cpp2gc19AppendOnlyGCHashMapINSt3__24pairIPK14Il2CppAssemblyP11Il2CppClassEEP24Il2CppReflectionAssembly17ReflectionMapHashIS9_E19ReflectionMapEqualsIS9_EE11TryGetValueERKS9_PSB_
nzb:__Z29Transfer_Blittable_ArrayFieldI18StreamedBinaryReadILb0EEyEvRT_R9ArrayInfoRK23StaticTransferFieldInfo
$$f:_EqualityComparer_1_get_Default_m875724809_gshared
tGa:__ZN14qsort_internal6_QSortIP15RODataDepthPassi17ROSorterDepthPassEEvT_S4_T0_T1_
qVh:__ZNSt3__214__split_bufferIN6il2cpp2vm5Image20EmbeddedResourceDataERNS_9allocatorIS4_EEEC2EjjS7_
vAa:__ZN5Image13ReformatImageERK14ImageReferenceii13TextureFormatNS0_8BlitModeE
ygg:__ZL57DispIdAttribute_t607560947_CustomAttributesCacheGeneratorP21CustomAttributesCache
gt:__ZN12AudioManager17RemoveAudioSourceEP11AudioSource
hih:_CullingGroup_Finalize_m3172731580
lpd:__ZNK5physx2Gu10ConvexMesh17getReferenceCountEv
d0e:_Array_InternalArray__get_Item_TisUInt64_t2909196914_m2580870875_gshared
lZc:__ZN5physx2Sc5Scene22setNbContactDataBlocksEj
GRe:_SecurityParser_OnEndElement_m2909940377
lB:__ZN5physx14PxLightCpuTask12addReferenceEv
mmf:_X509ChainStatus_set_StatusInformation_m2903201015_AdjustorThunk
xXh:__ZN6il2cpp2gc16GarbageCollector19InitializeFinalizerEv
vqc:__ZN5physx2Sc5Scene10removeBodyERNS0_7BodySimE
e6e:_Context_get_ClientWriteKey_m2235605337
Kjg:__ZL66DESCryptoServiceProvider_t933603253_CustomAttributesCacheGeneratorP21CustomAttributesCache
q2h:_GC_bl_init_no_interiors
F8h:__ZN6il2cpp2vm13LibraryLoader21SetFindPluginCallbackEPFPKcS3_E
LM:__Z20CalculateSqrDistanceRK8Vector3fRK4AABB
NVg:__Z48RuntimeInvoker_Byte_t3683104436_Int64_t909078037PK10MethodInfoPvPS2_
hXa:__Z20GetAssetBundlePrefixRKNSt3__212basic_stringIcNS_11char_traitsIcEENS_9allocatorIcEEEE
ZBd:__ZN14PhysicsManager15ProcessContactsEv
obc:__ZN21BoxTraceSegmentReport7onEventEjPj
Qvc:__ZN5physx2Sc21ArticulationJointCore13setSwingLimitEff
fx:__Z32AudioMixerDuckingProcessCallbackP21UnityAudioEffectStatePfS1_jii
$6b:__ZL20HullProjectionCB_BoxRKN5physx2Gu13PolygonalDataERKNS_6PxVec3ERKNS_2Cm8Matrix34ERKNS7_23FastVertex2ShapeScalingERfSE_
aCf:_CustomAttributeTypedArgument_GetHashCode_m999147081_AdjustorThunk
XMg:__Z48RuntimeInvoker_Void_t1841601450_SByte_t454417549PK10MethodInfoPvPS2_
j$c:__ZN5physx17PxcNpMemBlockPool19releaseUnusedBlocksEv
Cze:_FileStream_Read_m3880951166
Mbd:__ZN5physx14PxsAABBManager21selfCollideAggregatesEPKNS_19AggregateSortedDataE
L4a:__ZN18StreamedBinaryReadILb1EE21TransferSTLStyleArrayI10vector_mapI7Hash128iNSt3__24lessIS3_EE13stl_allocatorINS4_4pairIS3_iEEL18MemLabelIdentifier79ELi16EEEEEvRT_17TransferMetaFlags
Rt:__ZN12AudioManager8TransferI24GenerateTypeTreeTransferEEvRT_
x3:__Z25GetBytesFromTextureFormat13TextureFormat
u9:__ZN9Texture3D19UnloadFromGfxDeviceEb
Ujd:__ZN5physx12_GLOBAL__N_112innerProductERKNS_14Px1DConstraintERS1_RKNS0_9MassPropsE
Atb:__Z18Transfer_BlittableI17RemapPPtrTransferLb0EsEvRK29SerializationCommandArgumentsR31RuntimeSerializationCommandInfo
gVe:_Array_InternalArray__ICollection_Remove_TisContactPoint_t1376425630_m2242111467_gshared
iqi:dynCall_iifff
rHa:__Z26FindForwardLightsForObjectR13dynamic_arrayIhLj1EEPK11CulledLightjRK12ActiveLightsRK10RenderNodebRK23FindForwardLightsParams
Fi:_emscripten_webgl_init_context_attributes
zEd:__ZN11UnityEngine15PlatformWrapper15GetVRDeviceNameEv
aph:_StackTraceUtility__cctor_m1132099289
_7c:__ZN5physx26PxcFrictionPatchStreamPairC2ERNS_17PxcNpMemBlockPoolE
MFg:_TimeSpan_Equals_m2029123271_AdjustorThunk
Bxh:__ZN6il2cpp2vm13MetadataCache23GetInvokerMethodPointerEPK10MethodInfoPK20Il2CppGenericContext
sra:__ZN9GfxDevice21RegisterNativeTextureE9TextureIDi16TextureDimension
Voe:_CultureInfo__ctor_m456863818
_6h:__ZN6il2cpp6icalls8mscorlib6System10Reflection4Emit11TypeBuilder20create_generic_classEP27Il2CppReflectionTypeBuilder
kJh:__ZNK15dense_hashtableINSt3__24pairIK10KeyWrapperINS1_IPK12PropertyInfoP11Il2CppClassEEEjEES9_17ReflectionMapHashIS8_EN14dense_hash_mapIS9_jSD_19ReflectionMapEqualsIS8_ENS0_9allocatorISB_EEE9SelectKeyESG_SI_E13find_positionERSA_
rDh:__ZNSt3__26vectorIPK10MethodInfoNS_9allocatorIS3_EEE26__swap_out_circular_bufferERNS_14__split_bufferIS3_RS5_EE
RX:__ZN12ScriptMapper10FindShaderERKNSt3__212basic_stringIcNS0_11char_traitsIcEENS0_9allocatorIcEEEE
DH:__ZN3WWW20GetCachedErrorStringEv
vIb:__ZN12ScriptMapperD2Ev
o1:__ZNSt3__26__treeINS_12__value_typeI8UnityStrS2_EENS_19__map_value_compareIS2_S3_NS_4lessIS2_EELb1EEE13stl_allocatorIS3_L18MemLabelIdentifier1ELi16EEE7destroyEPNS_11__tree_nodeIS3_PvEE
vBc:__ZNK5physx14NpSceneQueries10multiQueryINS_12PxOverlapHitEEEbRKNS_15MultiQueryInputERNS_13PxHitCallbackIT_EENS_7PxFlagsINS_9PxHitFlag4EnumEtEEPKNS_12PxQueryCacheERKNS_17PxQueryFilterDataEPNS_21PxQueryFilterCallbackEPNS_20BatchQueryFilterDataE
D4g:_X509Certificate_PEM_m49854707
MQe:_PKCS12_get_RNG_m3620550062
cjf:_X509BasicConstraintsExtension__ctor_m3320418592
N3g:_ExtendedKeyUsageExtension_Decode_m901297139
cFb:__Z32TransferEnumWithNameForceIntSizeI14SafeBinaryRead7FogModeEvRT_RT0_PKc17TransferMetaFlags
$bg:__ZL89SafeWaitHandle_t481461830_CustomAttributesCacheGenerator_SafeWaitHandle__ctor_m1710231470P21CustomAttributesCache
_3h:_GC_check_leaked
eHb:__ZN9ShaderLab20SerializedSubProgram16TextureParameter8TransferI19StreamedBinaryWriteILb0EEEEvRT_
jb:invoke_fiiiiiiiifiiiif
RLh:__ZN15dense_hashtableINSt3__24pairIK10KeyWrapperINS1_IPK14Il2CppAssemblyP11Il2CppClassEEEjEES9_17ReflectionMapHashIS8_EN14dense_hash_mapIS9_jSD_19ReflectionMapEqualsIS8_ENS0_9allocatorISB_EEE9SelectKeyESG_SI_EC2EjRKSD_RKSG_RKSK_
bQa:__Z18SkinGenericMathLibILi4ELb0ELb0EEvR12SkinMeshInfo
Iff:_KeysCollection_System_Collections_ICollection_get_SyncRoot_m2289369147
fF:__ZN11UnityEngine15CloudWebService16SessionContainer8AddEventEPNS0_14CloudEventInfoE
Hbg:__ZL55GuidAttribute_t222072359_CustomAttributesCacheGeneratorP21CustomAttributesCache
QBf:_CustomAttributeNamedArgument_Equals_m2691468532
eWh:__ZN15dense_hashtableI10KeyWrapperIP18Il2CppGenericClassES3_N6il2cpp8metadata22Il2CppGenericClassHashEN14dense_hash_setIS3_S6_NS5_25Il2CppGenericClassCompareENSt3__29allocatorIS3_EEE8IdentityES8_SB_E14squash_deletedEv
E8f:__ZL74String_t_CustomAttributesCacheGenerator_String_Concat_m3881798623____args0P21CustomAttributesCache
Ejg:__ZL103CryptoConfig_t896479599_CustomAttributesCacheGenerator_CryptoConfig_CreateFromName_m2169102076____args1P21CustomAttributesCache
_eb:__ZN10VertexData8TransferI14SafeBinaryReadEEvRT_
Xuc:__ZN5physx19NpArticulationJointD0Ev
iv:__ZN4FMOD8ChannelI8setDelayE14FMOD_DELAYTYPEjj
sae:_Stack__ctor_m2410583781
U4h:_GC_malloc_atomic
YWa:__ZN15SerializeTraitsINSt3__24pairI8UnityStrN11AssetBundle9AssetInfoEEEE8TransferI18StreamedBinaryReadILb0EEEEvRS5_RT_
XCd:__Z59Register_UnityEngine_Physics_INTERNAL_CALL_Internal_Raycastv
aIh:__ZNK19ReflectionMapEqualsINSt3__24pairIPK10MethodInfoP11Il2CppClassEEEclERK10KeyWrapperIS7_ESC_
mBf:_Default_GetBetterMethod_m4255740863
NCf:_ConstructorBuilder_GetILGenerator_m1731893569
NXc:__ZNK5physx7NpScene17getFilterCallbackEv
sVh:__ZNSt3__214__split_bufferIN6il2cpp2vm5Image20EmbeddedResourceDataERNS_9allocatorIS4_EEED2Ev
VO:__ZL20SortItemByInstanceIDRKN18AwakeFromLoadQueue4ItemES2_
Szd:__ZN5physx6shdfnd5ArrayIPvNS0_15InlineAllocatorILj256ENS0_19ReflectionAllocatorINS_24NpPtrTableStorageManager8PtrBlockILi16EEEEEEEE15growAndPushBackERKS2_
QGf:_TypeBuilder_create_runtime_class_m2719530260
iKd:_RNGCryptoServiceProvider_RngClose_m2921734810
jQa:__Z26SkinVerticesGenericMathLibILi1ELb1ELb1EEvPKhiiiiPhiPKvS4_
dGd:__ZN20UnityConnectSettings8TransferI24GenerateTypeTreeTransferEEvRT_
H4a:__ZN20SphericalHarmonicsL28TransferI18StreamedBinaryReadILb1EEEEvRT_
X2g:__Z37RuntimeInvoker_LabelFixup_t4090909514PK10MethodInfoPvPS2_
Mch:_ReadOnlyCollection_1_Contains_m1227826160_gshared
OIe:_SimpleCollator_IsHalfKana_m4255579023
ydf:_InternalAsyncResult_get_Count_m1291942796
SFc:__ZN5physx7NpShape13setRestOffsetEf
RDe:_UnmanagedMemoryStream_get_Length_m587008850
WOe:_KeyGeneratedEventHandler_Invoke_m760006389
q2e:_ASN1__ctor_m3688855288
sGc:__ZN5physxL11getTriangleERKNS_2Gu12TriangleMeshEjPNS_6PxVec3EPKS4_PKvRKNS_2Cm8Matrix34Eb
aA:__ZN13AudioListener12CleanupClassEv
iXh:__ZN15dense_hashtableINSt3__24pairIK10KeyWrapperIP12Il2CppObjectEN6il2cpp2gc9CachedCCWEEES5_NS7_5utils11PointerHashIS3_EEN14dense_hash_mapIS5_S9_SD_NS0_8equal_toIS5_EENS0_9allocatorISA_EEE9SelectKeyESG_SI_E9copy_fromERKSL_j
rwd:__ZN14SafeBinaryRead21TransferSTLStyleArrayINSt3__26vectorIjNS1_9allocatorIjEEEEEEvRT_17TransferMetaFlags
W7e:_ClientSessionInfo_Dispose_m2571428025
vU:__Z13GetIEnlightenv
obf:_RecordProtocol_decryptRecordFragment_m2510859489
yHc:__ZNK5physx7NpCloth16lockParticleDataEv
cjb:__ZN11TimeManager8TransferI19StreamedBinaryWriteILb0EEEEvRT_
mAe:_DelegatePInvokeWrapper_ReadDelegate_t3184826381
lmf:_X509ChainStatus_set_Status_m4288653744_AdjustorThunk
sEd:__ZN11UnityEngine15PlatformWrapper27GetGraphicsCapsSupportFlagsEv
W8f:__ZL80Decimal_t724701077_CustomAttributesCacheGenerator_Decimal_op_Explicit_m714968249P21CustomAttributesCache
Jje:_Decimal_Equals_m1115043331
Z0c:__ZN5physx13NpRigidStatic9visualizeERNS_2Cm12RenderOutputEPNS_7NpSceneE
Lxb:__ZN12NativeBufferI16Converter_StringE15SetupForWritingER9ArrayInfo
Xsi:___cxa_end_catch__wrapper
Eii:__ZNSt3__210moneypunctIcLb0EED0Ev
dj:_emscripten_glVertexAttrib3fv
VPc:__ZNK5physx22NpParticleBaseTemplateINS_16PxParticleSystemENS_16NpParticleSystemEE13getRestOffsetEv
t3c:__ZN5physx6shdfnd8PoolBaseINS_2Sc35ParticleElementRbElementInteractionENS0_19ReflectionAllocatorIS3_EEE15disposeElementsEv
Lxe:_BinaryReader_ReadUInt32_m1363572147
sGe:_MonoType_get_Module_m3769241394
zog:__ZL79Convert_t2607082565_CustomAttributesCacheGenerator_Convert_ToUInt32_m3391339025P21CustomAttributesCache
oOa:__ZN13MonoBehaviour22DoScriptRebuildWarningEv
uRh:__ZN6il2cpp6icalls8mscorlib6System5Array13ClearInternalEP11Il2CppArrayii
u$g:__Z155RuntimeInvoker_Boolean_t3825574718_Vector3_t2243707580_Vector3_t2243707580_RaycastHitU26_t1969197280_Single_t2076509932_Int32_t2071877448_Int32_t2071877448PK10MethodInfoPvPS2_
tbc:__ZN5physx2Gu26EPASupportMapPairLocalImplINS0_9TriangleVENS0_4BoxVEED0Ev
$oi:_llvm_cttz_i32
wjf:_PublicKey_DecodeDSA_m1169363495
pQh:__ZNK15dense_hashtableINSt3__24pairIK10KeyWrapperINS1_IP11Il2CppClassjEEES4_EES6_N6il2cpp8metadata14ArrayClassHashEN14dense_hash_mapIS6_S4_SB_NSA_17ArrayClassCompareENS0_9allocatorIS8_EEE9SelectKeyESD_SF_E12test_deletedEj
Axf:_AsymmetricKeyExchangeFormatter__ctor_m3362140205
Aff:_NameObjectCollectionBase_BaseGet_m667273025
Wbd:__ZN5physx14PxsAABBManager16processBPResultsERKNS_20PxsComputeAABBParamsE
S1b:__ZN9JSONWrite8TransferI13dynamic_arrayIiLj4EEEEvRT_PKc17TransferMetaFlags
bad:__ZN5physx23PxsBroadPhaseContextSapD2Ev
Mtd:__ZN5physx12SubSortQuickC2EPjPKNS_10PxBounds3VEjf
Qki:__ZNSt3__2L13utf8_to_utf16EPKhS1_RS1_PtS3_RS3_mNS_12codecvt_modeE
bO:__Z18ConvertUTF16toUTF8PPKtS0_PPhS2_15ConversionFlags
V0h:__ZN6il2cpp2os20PathErrnoToErrorCodeERKNSt3__212basic_stringIcNS1_11char_traitsIcEENS1_9allocatorIcEEEEi
cHg:_TypeLoadException__ctor_m1903359728
Dqh:__ZL16my_g_bit_nth_msfj
NYf:_Transform_1_BeginInvoke_m3014766640_gshared
bXh:__ZN14dense_hash_mapI10KeyWrapperIP12Il2CppObjectEN6il2cpp2gc9CachedCCWENS4_5utils11PointerHashIS1_EENSt3__28equal_toIS3_EENSA_9allocatorINSA_4pairIKS3_S6_EEEEE15set_deleted_keyERSF_
KPa:__Z20DeformSkinnedMeshJobP12SkinMeshInfo
ZHd:_KeySizes__ctor_m3526899007
Hte:_Int16_System_IConvertible_ToInt32_m191782913_AdjustorThunk
NXh:__ZN15dense_hashtableINSt3__24pairIK10KeyWrapperIP12Il2CppObjectEN6il2cpp2gc9CachedCCWEEES5_NS7_5utils11PointerHashIS3_EEN14dense_hash_mapIS5_S9_SD_NS0_8equal_toIS5_EENS0_9allocatorISA_EEE9SelectKeyESG_SI_E15insert_noresizeERKSA_
Lah:_Collection_1_CopyTo_m1578267616_gshared
mWd:_EncoderReplacementFallback__ctor_m2208438262
ysh:__ZN6il2cpp2vm5Class15GetInstanceSizeEPK11Il2CppClass
ZYf:_Dictionary_2__ctor_m871840915_gshared
qa:invoke_iiiifiiii
kRg:__Z131RuntimeInvoker_Void_t1841601450_Int32_t2071877448_Il2CppObject_Il2CppObject_Il2CppObject_Il2CppObject_Il2CppObject_SByte_t454417549PK10MethodInfoPvPS2_
U_f:_Dictionary_2_CopyTo_m1495142643_gshared
p3b:__ZN9rapidjson8internal6u64toaEyPc
hpg:__ZL67IndexOutOfRangeException_t3527622107_CustomAttributesCacheGeneratorP21CustomAttributesCache
YJc:__ZNK5physx2Sc9ClothCore16getRestPositionsEPNS_6PxVec4E
K6c:__ZN5physx20PxcSweepConvexConvexERKNS_11PxsCCDShapeES2_PKNS_12PxsRigidBodyES5_RKNS_11PxTransformES8_S8_S8_fRNS_6PxVec3ESA_RNS_10PxcNpCacheERNS_18PxcNpThreadContextEf
pye:_Directory_GetFiles_m4036267478
sme:_Enum_System_IConvertible_ToType_m2669300536
dNc:__ZN5physx15PxsParticleDataD0Ev
yna:__ZL19BlitFramebufferImplRN4gles23BlitFramebufferDrawQuadER9GfxDevice9TextureIDRK8Vector4f
ztb:__Z18Transfer_BlittableI17RemapPPtrTransferLb0EhEvRK29SerializationCommandArgumentsR31RuntimeSerializationCommandInfo
Drd:__ZN5physx6shdfnd5ArrayIPvNS0_19ReflectionAllocatorIN17PxcPoolMallocData9PoolData8EEEE15growAndPushBackERKS2_
sMg:__Z44RuntimeInvoker_Byte_t3683104436_Il2CppObjectPK10MethodInfoPvPS2_
bdh:_ReadOnlyCollection_1_System_Collections_IList_Add_m2333231354_gshared
Kng:__ZL78Convert_t2607082565_CustomAttributesCacheGenerator_Convert_ToSByte_m2470292806P21CustomAttributesCache
IL:__ZN18PlayableController12GetFrameDataEv
GGf:_OpCodes__cctor_m939885911
CMb:__ZN14Texture2DArray11InitTextureEiii13TextureFormatb
_3e:_PKCS1_RSASP1_m1748738009
Ztf:_ObjectReader_ReadPrimitiveTypeValue_m3808038676
lvd:__ZN5physx15PxGeometryQuery14getWorldBoundsERKNS_10PxGeometryERKNS_11PxTransformEf
Ubf:_RSASslSignatureDeformatter_SetHashAlgorithm_m4048969080
lLc:__ZN5physx2Sc9ClothCore18setSolverFrequencyEf
PCg:_UriParser_InitializeAndValidate_m251943319
TMd:_SymmetricAlgorithm_set_Padding_m3081984460
Lib:__ZN9InputAxis8TransferI18StreamedBinaryReadILb0EEEEvRT_
Zpd:__ZN5physx2Gu11HeightField8requiresERNS_23PxProcessPxBaseCallbackE
Nvf:_StreamingContext_t1417235061_marshal_pinvoke_back
G6b:__ZN5physx2Gu16buildPartialHullERKNS0_13PolygonalDataEPNS0_12SupportLocalERNS0_14SeparatingAxesERKNS_6shdfnd3aos5Vec3VESC_
K4d:_ArrayList_RemoveAt_m2578928333
Zpb:__Z18Transfer_BlittableI14SafeBinaryReadLb0EaEvRK29SerializationCommandArgumentsR31RuntimeSerializationCommandInfo
KNd:_X509Certificate_GetName_m2354987368
U3g:_GeneralNames_get_DNSNames_m2721668874
ime:_Enum_System_IConvertible_ToByte_m38374586
ksi:_emscripten_glFrustum__wrapper
juc:__ZNK5physx2Sc16ArticulationCore17releaseDriveCacheERNS_9PxcFsDataE
Hbf:_ReceiveRecordAsyncResult_get_CompletedWithError_m2670396551
uje:_Decimal_Equals_m1798565377
P2a:__ZN17GlobalGameManager8TransferI24GenerateTypeTreeTransferEEvRT_
vic:__ZN5physx11NpAggregate7releaseEv
rDf:_TypeBuilder_check_created_m2929267877
Xoa:__ZN15TextureTFMethod20IsBoneCountSupportedEi
vqf:_ObjRef__ctor_m1486312270
vge:_DateTime_System_IConvertible_ToSByte_m2575078084_AdjustorThunk
Ntb:__Z22TransferField_NonArrayI17RemapPPtrTransfer27Converter_SimpleNativeClassI8GUIStyleEEvRK23StaticTransferFieldInfoR31RuntimeSerializationCommandInfoRT0_
MFc:__ZN5physx7NpShape12setMaterialsEPKPNS_10PxMaterialEt
vLb:__ZNK17AnimationCurveTplIfE20EvaluateWithoutCacheEfRf
U$h:__ZN6il2cpp2os6Thread12QueueUserAPCEPFvPvES2_
cWd:_EncoderExceptionFallback_Equals_m762170768
rVe:_Array_InternalArray__IEnumerable_GetEnumerator_TisDictionaryEntry_t3048875398_m3498834924_gshared
och:_Collection_1_IsValidItem_m1304951912_gshared
nRb:__ZN4Mesh10SetNormalsEPK8Vector3fj
lKf:_PropertyInfo__ctor_m1808219471
Gce:_Convert_ToDateTime_m4161927553
lZg:__Z76RuntimeInvoker_Void_t1841601450_RegexOptionsU26_t3063574985_SByte_t454417549PK10MethodInfoPvPS2_
xDf:_TypeBuilder_GetConstructors_m774120094
jq:__ZN17AnimationCurveTplIfE8TransferI14SafeBinaryReadEEvRT_
jli:__ZNKSt3__28numpunctIcE16do_thousands_sepEv
dBg:_RegularExpression_set_GroupCount_m2991393456
lgc:__ZN5physx2Gu9RadixSortD2Ev
Tne:_Calendar_get_EraNames_m452820602
Fbb:__ZNSt3__26vectorIN15QualitySettings14QualitySettingENS_9allocatorIS2_EEE6assignIPS2_EENS_9enable_ifIXaasr21__is_forward_iteratorIT_EE5valuesr16is_constructibleIS2_NS_15iterator_traitsIS9_E9referenceEEE5valueEvE4typeES9_S9_
s3c:__ZN5physx6shdfnd8PoolBaseINS_2Sc10NPhaseCore16ClothListElementENS0_19ReflectionAllocatorIS4_EEE15disposeElementsEv
iec:__Z15raycast_capsuleRKN5physx10PxGeometryERKNS_11PxTransformERKNS_6PxVec3ES8_fNS_7PxFlagsINS_9PxHitFlag4EnumEtEEjPNS_12PxRaycastHitEbPFbRSD_PvESG_
NDa:__ZNK19ShaderPropertySheet11HasPropertyERKN9ShaderLab16FastPropertyNameE
Npa:__ZN14DrawBufferGLESI12VertexBuffer27VertexBufferUsageMapperGLESE8EndWriteEj
gge:_DateTime_System_IConvertible_ToByte_m2670443498_AdjustorThunk
WLc:__ZNK5physx15NpActorTemplateINS_15PxParticleFluidEE14getOwnerClientEv
HEh:_il2cpp_class_get_image
dS:__Z16AsyncReadRequestP16AsyncReadCommand
zrg:__ZL81BigInteger_t925946153_CustomAttributesCacheGenerator_BigInteger__ctor_m4013661868P21CustomAttributesCache
Nkd:__ZNK5physx34PxsSolverConstraintPostProcessTask7getNameEv
N1e:_BigInteger_op_Addition_m1734797151
Q7b:__ZN5physx2Gu23distancePointBoxSquaredERKNS_6PxVec3ES3_S3_RKNS_7PxMat33EPS1_
bAd:__ZN5physx9NpPhysics20MeshDeletionListener28onGuMeshFactoryBufferReleaseEPKNS_6PxBaseEtb
VDf:_EnumBuilder_CreateNotSupportedException_m62763134
Hkf:_X509Chain_CheckRevocation_m2480313486
tJd:_RijndaelManagedTransform_TransformBlock_m2558865851
Kbh:_Collection_1_System_Collections_Generic_ICollectionU3CTU3E_get_IsReadOnly_m4096071066_gshared
Bib:__ZN9InputAxis8TransferI14SafeBinaryReadEEvRT_
jP:__ZNK21ExecutionOrderManager30GetCustomAwakeFromLoadQueueForEPKN5Unity4TypeE
gXc:__ZNK5physx7NpScene9getActorsENS_7PxFlagsINS_15PxActorTypeFlag4EnumEtEEPPNS_7PxActorEjj
mHd:__Z27RegisterModule_UnityConnectv
DKh:__ZN6il2cpp2vm10Reflection27GetCustomAttributesCacheForEP25Il2CppReflectionParameter
UOc:__ZN5physx15PxParticleFluidD0Ev
Z2c:__ZN5physx11NodeManagerD0Ev
JEg:_Scheduler_Remove_m1930366072
krf:_RealProxy__ctor_m3041043303
bqe:_NumberFormatter_Init_m2654758994
Zic:__ZNK5physx2Sc8BodyCore6getSimEv
wmi:__ZNSt3__214__split_bufferIPNS_6locale5facetERNS_15__sso_allocatorIS3_Lj28EEEEC2EjjS6_
RAd:__ZNK5physx2Gu15HeightFieldUtil18getVertexFaceIndexEjjj
kXh:__ZN15dense_hashtableINSt3__24pairIK10KeyWrapperIP12Il2CppObjectEN6il2cpp2gc9CachedCCWEEES5_NS7_5utils11PointerHashIS3_EEN14dense_hash_mapIS5_S9_SD_NS0_8equal_toIS5_EENS0_9allocatorISA_EEE9SelectKeyESG_SI_E8min_sizeEjj
Ew:__ZN10ObjectPoolIN4FMOD12ChannelGroupENS0_13ChannelGroupIEE7SetSizeEi
LLe:_PrimalityTest_BeginInvoke_m966469054
aKg:_UInt64_System_IConvertible_ToInt16_m2797150165_AdjustorThunk
Aya:__ZN5Image13ReformatImageEii13TextureFormatN14ImageReference8BlitModeE
R$e:_Array_InternalArray__get_Item_TisLabelData_t3712112744_m863115768_gshared
lve:_Int32_Parse_m753946802
bH:__Z22ValidateTlsfAllocationPvjiS_
d_:__ZN18StreamedBinaryReadILb1EE21TransferSTLStyleArrayINSt3__212basic_stringIcNS2_11char_traitsIcEE13stl_allocatorIcL18MemLabelIdentifier1ELi16EEEEEEvRT_17TransferMetaFlags
SEc:__ZN5physx2Cm12RefCountable14onRefCountZeroEv
iHf:_UnmanagedMarshal_ToMarshalAsAttribute_m3695569337
gIc:__ZNK5physx7NpCloth25getMotionConstraintConfigEv
hsb:__Z14resize_trimmedINSt3__26vectorI17AnimationCurveTplIfE13stl_allocatorIS3_L18MemLabelIdentifier1ELi16EEEEEvRT_j
g_a:__Z12GUIDToStringRK9UnityGUID
MYh:__ZN6il2cpp6icalls8mscorlib6System4Enum12get_hashcodeEP12Il2CppObject
Ns:__ZN11SoundHandleC2ERKS_
S3e:_RSASslSignatureFormatter__ctor_m2530528184
dFf:_GenericTypeParameterBuilder_GetGenericTypeDefinition_m2936287336
sWc:__ZThn8_N5physx2Sc24ElementInteractionMarker7destroyEv
CIb:__ZN12ScriptMapper23VirtualRedirectTransferER18StreamedBinaryReadILb1EE
Aq:__ZN11Quaternionf8TransferI18StreamedBinaryReadILb1EEEEvRT_
ESa:__Z29StdTemplateConversionFunctionItxEbPvR14SafeBinaryRead
L3f:_FormatterData__ctor_m3974986124
Tdg:__ZL64FileNotFoundException_t4200667904_CustomAttributesCacheGeneratorP21CustomAttributesCache
rJd:_RijndaelManagedTransform_get_CanReuseTransform_m3735256596
_fc:__ZN5physx3Cct26CharacterControllerManager24setOverlapRecoveryModuleEb
I7d:_Comparer__cctor_m1327316974
kye:_MonoIO_ExistsFile_m1421941572
Fhe:_DateTime_op_GreaterThanOrEqual_m3818963848
ida:__ZNSt3__26__treeINS_12__value_typeI18VertexChannelsInfoP17VertexDeclarationEENS_19__map_value_compareIS2_S5_NS_4lessIS2_EELb1EEE13stl_allocatorIS5_L18MemLabelIdentifier14ELi16EEE12__find_equalIS2_EERPNS_16__tree_node_baseIPvEENS_21__tree_const_iteratorIS5_PNS_11__tree_nodeIS5_SG_EEiEESJ_RKT_
mr:__ZNSt3__212basic_stringIcNS_11char_traitsIcEE13stl_allocatorIcL18MemLabelIdentifier66ELi16EEE6resizeEjc
H5a:__ZN14RenderSettings18TransferDeprecatedI14SafeBinaryReadEEvRT_
E9b:__ZN24ConvexVsHeightfieldSweepD0Ev
xSe:__ZN6il2cpp2vm13ComObjectBaseI34__Il2CppComDelegate_t3311706788CCW18Il2CppIInspectableNS0_7details6ComNilES5_S5_S5_S5_S5_S5_ED2Ev
HJ:__ZN12TLSAllocatorI14StackAllocatorE8AllocateEji
mQ:__ZN16ScriptingManager18GetMonoScriptCacheEi
kua:__ZN20ArchiveStorageHeader13GetDataOffsetERKNS_6HeaderE
Dvh:__ZN13dynamic_arrayIPK10Il2CppTypeLj4EEC2ERKS3_
lsg:__ZL84Locale_t4255929017_CustomAttributesCacheGenerator_Locale_GetText_m512920887____args1P21CustomAttributesCache
urb:__Z18Transfer_BlittableI14SafeBinaryReadLb1EyEvRK29SerializationCommandArgumentsR31RuntimeSerializationCommandInfo
CZb:__ZN8JSONRead8TransferIfEEvRT_PKc17TransferMetaFlagsb
Bug:__ZL105Physics_t634932869_CustomAttributesCacheGenerator_Physics_Raycast_m3475924638____queryTriggerInteraction4P21CustomAttributesCache
cGf:_ModuleBuilder_GetTypes_m93550753
bih:_Coroutine__ctor_m1253937571
ini:__ZNSt3__212basic_stringIcNS_11char_traitsIcEENS_9allocatorIcEEE6appendEPKcj
Keg:__ZL54TypeBuilder_t3308873219_CustomAttributesCacheGeneratorP21CustomAttributesCache
TIc:__ZN5physx7NpCloth25setSelfCollisionStiffnessEf
q6c:__ZZN5physx28PxcSweepEstimateAnyShapeMeshERKNS_11PxsCCDShapeES2_PKNS_12PxsRigidBodyES5_RKNS_11PxTransformES8_fEN2CBD0Ev
wEf:_GenericTypeParameterBuilder_GetAttributeFlagsImpl_m3338182267
JB:__ZN13Simd4iFactoryIN6detail9FourTupleEEC2Eiiii
KCe:_SynchronizedReader__ctor_m1408327515
_6g:_X509Store_LoadCrl_m1146720614
bK:__ZL41FileEntryInfoListToFolderContentsAbsoluteRK13dynamic_arrayI13FileEntryInfoLj8EERNSt3__23setINS4_12basic_stringIcNS4_11char_traitsIcEENS4_9allocatorIcEEEENS4_4lessISB_EENS9_ISB_EEEE
r3g:__Z54RuntimeInvoker_KeyValuePair_2_t3716250094_Il2CppObjectPK10MethodInfoPvPS2_
m9d:_Slot_t2022531261_marshal_pinvoke_cleanup
Exa:__ZZ23InitPlayerLoopCallbacksvEN38PostLateUpdateShaderHandleErrorsstruct7ForwardEv
e9a:__ZN15SerializeTraitsI33EnlightenTerrainChunksInformationE8TransferI14SafeBinaryReadEEvRS0_RT_
ICc:__ZN5physx2Sc14ConstraintCoreD2Ev
nNb:__ZNK32RendererMaterialAnimationBinding9BindValueER6ObjectRKN11UnityEngine9Animation14GenericBindingERNS3_10BoundCurveE
uah:_Stack_1_GetEnumerator_m287848754_gshared
Gzc:__ZN5physx15NpActorTemplateINS_18PxArticulationLinkEE13setActorFlagsENS_7PxFlagsINS_11PxActorFlag4EnumEtEE
sQa:__Z13GetIAnimationv
Q9:__ZL18stbir__support_onef
lrd:__ZN5physx6shdfnd8internal8HashBaseIPNS_11PxAggregateES4_NS0_4HashIS4_EENS1_11HashSetBaseIS4_S6_NS0_9AllocatorELb0EE6GetKeyES8_Lb0EE15reserveInternalEj
H9g:_List_1_System_Collections_IList_Remove_m2040310137_gshared
Qwg:_Match_get_Regex_m3526002767
deg:__ZL49Stream_t3255436806_CustomAttributesCacheGeneratorP21CustomAttributesCache
Y$b:__Z26Transfer_UnityEngineObjectI9JSONWriteLb0EEvRK29SerializationCommandArgumentsR31RuntimeSerializationCommandInfo
qWd:_EncoderReplacementFallback_CreateFallbackBuffer_m3579126537
hJg:_UInt32_System_IConvertible_ToInt16_m2251335934_AdjustorThunk
gMg:__Z31RuntimeInvoker_Void_t1841601450PK10MethodInfoPvPS2_
j0d:_Boolean_System_IConvertible_ToType_m3990189691
YIh:__ZNSt3__218uninitialized_copyIPNS_4pairIK10KeyWrapperINS1_IPK11Il2CppImageP11Il2CppClassEEEjEESC_EET0_T_SE_SD_
za:invoke_vdd
pn:FUNCTION_TABLE_fiii
gUf:_InternalEnumerator_1_Dispose_m3838127340_AdjustorThunk
Lle:_Double_System_IConvertible_ToUInt32_m624993430
shi:__ZNKSt3__220__time_get_c_storageIcE7__am_pmEv
HEg:_Scheduler_Add_m376749205
SNg:__Z98RuntimeInvoker_Void_t1841601450_Int32_t2071877448_Il2CppObject_Int32_t2071877448_Int32_t2071877448PK10MethodInfoPvPS2_
B8h:__ZN6il2cpp6icalls8mscorlib4Mono8Security12Cryptography18KeyPairPersistence19_IsMachineProtectedEP12Il2CppString
Lfi:__ZNSt3__215__num_get_floatIeEET_PKcS3_Rj
qMb:__Z14RandomRotationP9Texture2DPhiiii
UHe:_OutOfMemoryException__ctor_m1932883273
KSf:_InternalEnumerator_1_MoveNext_m1594563423_AdjustorThunk
Nyd:__ZThn132_N5physx7profile8ZoneImplINS_28PxProfileNameProviderForwardEED1Ev
Rtb:__Z65EmitSerializationCommandsForLinearCollectionOfManagedObjectsFieldI17RemapPPtrTransferEvRK23TransferArrayField_InfoR20SerializationCommandR32SerializationCommandQueueBuilderRP20AllowNameConversions
juf:__ZN16VirtFuncInvoker0ItE6InvokeEjPv
oSg:__Z35RuntimeInvoker_TimeSpan_t3430258949PK10MethodInfoPvPS2_
FXc:__ZN5physx7NpScene27setCCDContactModifyCallbackEPNS_26PxCCDContactModifyCallbackE
Kze:_ReadDelegate__ctor_m885671467
osd:__ZNK5physx17ConvexHullBuilder17ComputeGeomCenterERNS_6PxVec3E
cie:_DateTimeOffset_ToString_m2121173678_AdjustorThunk
Wrg:__ZL50X509Crl_t1699034837_CustomAttributesCacheGeneratorP21CustomAttributesCache
Dad:__ZN3MBPD0Ev
UF:__ZNK13EmscriptenWWW14GetPartialDataEv
cyi:_glDeleteProgram__wrapper
eVb:__Z50Register_UnityEngine_Camera_INTERNAL_get_pixelRectv
h6:__ZN19RuntimeSceneManager14LoadSceneAsyncERK8UnityStrS2_S2_RK9UnityGUIDiNS_11LoadingModeEbRP10UnityScene
z4:__ZN6prcoreL18BlitFloatToIntegerERK14ImageReferenceRS0_
oRe:_X509CertificateCollection_get_Item_m410866272
M_c:__ZNK5physx10PxsContext18getBounceThresholdEv
gki:__ZNSt3__217__widen_from_utf8ILj32EED0Ev
YKb:__Z13GetIPhysics2Dv
vE:__ZN11UnityEngine15CloudWebService14RestDownloader17OnCompleteContentEv
OVc:__ZN5physx6shdfnd5ArrayIPvNS0_15InlineAllocatorILj256ENS0_19ReflectionAllocatorINS_2Gu31SpherePersistentContactManifoldEEEEEE15growAndPushBackERKS2_
Vmd:__ZN5physx2Cm18DelegateFanoutTaskINS_2Sc5SceneEXadL_ZNS3_17finalizationPhaseEPNS_10PxBaseTaskEEEE11runInternalEv
N0h:__ZNK15dense_hashtableINSt3__24pairIK10KeyWrapperIPK19Il2CppGenericMethodEP10MethodInfoEES6_N6il2cpp8metadata23Il2CppGenericMethodHashEN14dense_hash_mapIS6_S9_SD_NSC_26Il2CppGenericMethodCompareENS0_9allocatorISA_EEE9SelectKeyESF_SH_E13find_positionERS7_
Pa:invoke_vifff
rWb:__Z53Register_UnityEngine_Input_INTERNAL_get_mousePositionv
TMc:__ZN5physx15NpParticleFluid15exportExtraDataERNS_22PxSerializationContextE
Swi:_glGetVertexAttribiv__wrapper
Ayc:__ZN5physx6shdfnd15atomicDecrementEPVi
Ge:_emscripten_request_fullscreen
Pmd:__ZN5physx2Cm12DelegateTaskINS_2Sc5SceneEXadL_ZNS3_11postCCDPassEPNS_10PxBaseTaskEEEED0Ev
OI:__ZN20LocalFileSystemWebGL6DeleteER13FileEntryDatab
gje:_Decimal_System_IConvertible_ToUInt16_m1621568250
Ie:_emscripten_glDisableVertexAttribArray
eug:__ZL79Object_t1021602117_CustomAttributesCacheGenerator_Object_Instantiate_m938141395P21CustomAttributesCache
Om:FUNCTION_TABLE_iiiifiiii
CFg:_TimeSpan_get_TotalMinutes_m1645177229_AdjustorThunk
sv:__ZN4FMOD5Sound15getNumSubSoundsEPi
Dja:__ZN4gles23ClearCurrentFramebufferEP7ApiGLESbbbRK10ColorRGBAffi
HYa:__ZN15dense_hashtableINSt3__24pairIKNS0_12basic_stringIcNS0_11char_traitsIcEENS0_9allocatorIcEEEES7_EES7_11djb2_hash_tIS7_EN14dense_hash_mapIS7_S7_SB_NS0_8equal_toIS7_EE13stl_allocatorIS9_L18MemLabelIdentifier54ELi16EEE9SelectKeyESE_SH_E5clearEv
H_g:__Z34RuntimeInvoker_Vector3_t2243707580PK10MethodInfoPvPS2_
Wrd:__ZN5physx2Gu11HeightField13releaseMemoryEb
Te:_emscripten_glDeleteObjectARB
Pf:_IMG_Load
DDe:_UnexceptionalStreamReader_Read_m3839775235
Q5:__ZN6prcoreL27StretchGenericFloatBilinearI18TexFormatARGBFloatEEvPKNS_9InnerInfoE
Jsa:__ZN10FileSystem25MountDataFolderFileSystemERKNSt3__212basic_stringIcNS0_11char_traitsIcEENS0_9allocatorIcEEEES8_
zrf:_RealProxy_SetTargetDomain_m3940877656
A5:__ZN6prcoreL17RemapGenericFloatI17TexFormatRGBAHalf18TexFormatARGBFloatEEvPKNS_9InnerInfoE
ome:_Enum_System_IConvertible_ToInt32_m2459904362
GWa:__ZN11AssetBundle44BuildLookupAndNameContainerFromPathContainerEv
KSb:__ZN10systeminfo21SupportsAccelerometerEv
Q4e:_ContentInfo__ctor_m3871771681
V8d:_Enumerator__cctor_m298562758
_xe:_DirectoryInfo_Initialize_m2216118894
Zk:_JS_SystemInfo_GetBrowserVersionString
mcb:__ZN2UI13RectTransform23VirtualRedirectTransferER14SafeBinaryRead
oYc:__ZN5physx7NpScene17flushQueryUpdatesEv
CT:__ZNSt3__26__treeINS_12__value_typeINS_12basic_stringIcNS_11char_traitsIcEENS_9allocatorIcEEEES7_EENS_19__map_value_compareIS7_S8_NS_4lessIS7_EELb1EEE13stl_allocatorIS8_L18MemLabelIdentifier12ELi16EEE7destroyEPNS_11__tree_nodeIS8_PvEE
RFe:_MonoType_GetMethodImpl_m593754598
sA:__ZZL31InitializeAudioManagerCallbacksvEN33FixedUpdateAudioFixedUpdatestruct7ForwardEv
eGb:__ZN24GenerateTypeTreeTransfer8TransferINSt3__23mapI8UnityStriNS1_4lessIS3_EENS1_9allocatorINS1_4pairIKS3_iEEEEEEEEvRT_PKc17TransferMetaFlags
oFb:__ZNSt3__26vectorIN9ShaderLab20SerializedSubProgramENS_9allocatorIS2_EEE6assignIPS2_EENS_9enable_ifIXaasr21__is_forward_iteratorIT_EE5valuesr16is_constructibleIS2_NS_15iterator_traitsIS9_E9referenceEEE5valueEvE4typeES9_S9_
mZb:__Z18Transfer_BlittableI8JSONReadLb0E8BitFieldEvRK29SerializationCommandArgumentsR31RuntimeSerializationCommandInfo
Asf:_SoapServices_RegisterInteropXmlType_m2949236705
GRa:__ZN17PersistentManagerC2Eii
aAb:__ZL17Transfer_GUIStyleI18StreamedBinaryReadILb1EELb0EEvRK29SerializationCommandArgumentsR31RuntimeSerializationCommandInfo
OUd:_String_CharCopy_m2550399897
zJb:__ZN11TypeManager20RegisterNonClassTypeEiP4RTTIPKcS3_
GYc:__ZN5physx7NpScene10unlockReadEv
GDb:__ZN9ShaderLab14SerializedPass8TransferI14SafeBinaryReadEEvRT_
lA:__ZN12AudioManager16SetListenerPauseEb
Aii:__ZNKSt3__28time_putIwNS_19ostreambuf_iteratorIwNS_11char_traitsIwEEEEE6do_putES4_RNS_8ios_baseEwPK2tmcc
Gbh:_Collection_1_IsValidItem_m2254106115_gshared
HDf:_TypeBuilder_GetEvent_m3876348075
ba:invoke_viiiiiiiiiii
Fai:___syscall_ret
KEg:_Scheduler__ctor_m3716265742
pOe:_MACAlgorithm_Final_m4076939925
JNh:__ZNSt3__212basic_stringIcNS_11char_traitsIcEENS_9allocatorIcEEE6assignINS_11__wrap_iterIPKcEEEENS_9enable_ifIXaasr21__is_forward_iteratorIT_EE5valuesr38__libcpp_string_gets_noexcept_iteratorISC_EE5valueERS5_E4typeESC_SC_
Haf:_TlsServerKeyExchange_ProcessAsSsl3_m462106368
Wgb:__ZN11ChannelInfo8TransferI19StreamedBinaryWriteILb0EEEEvRT_
LOf:_InternalEnumerator_1_System_Collections_IEnumerator_get_Current_m3583252352_gshared
XRh:__ZN6il2cpp2vm14PlatformInvoke21SetFindPluginCallbackEPFPKcS3_E
rnb:__ZN23ArchiveStorageConverter24ReadHeaderFromMemoryFileEv
hDf:_EnumBuilder_get_FullName_m2818393911
iKc:__ZN5physx2Sc9ClothCore22setFrictionCoefficientEf
z_b:__Z18Transfer_BlittableI8JSONReadLb1E10ColorRGBAfEvRK29SerializationCommandArgumentsR31RuntimeSerializationCommandInfo
gEc:__ZNK5physx9NpPhysics17getNbConvexMeshesEv
JBe:_StreamAsyncResult_get_Done_m2858832609
bYc:__ZNK5physx7NpScene29getContactCorrelationDistanceEv
iWb:__Z34Register_UnityEngine_Gradient_Initv
vpa:__Z26TransformVerticesInnerLoopILb1ELb1ELb0EEvPhRK10Matrix4x4fRK10Matrix3x3fjPKhiiiS8_ii25GfxTransformVerticesFlags
mvf:_SerializationEntry_get_Value_m1628109884_AdjustorThunk
e0e:_Array_InternalArray__get_Item_TisUriScheme_t1876590943_m1821482697_gshared
W_e:_Array_Sort_TisIl2CppObject_m1954851512_gshared
P0e:_BigInteger__ctor_m3239748086
hI:__ZN13ScreenManager23SetIsOrientationEnabledE18EnabledOrientationb
xzh:__ZL24UnresolvedVirtualCall_57P12Il2CppObjectiPK10MethodInfo
$ng:__ZL79Convert_t2607082565_CustomAttributesCacheGenerator_Convert_ToUInt16_m1043031438P21CustomAttributesCache
Mib:__ZN9InputAxis8TransferI19StreamedBinaryWriteILb0EEEEvRT_
Ehc:__ZN5physx6shdfnd8SyncImpl4waitEj
t$f:_DefaultComparer_GetHashCode_m2506382068_gshared
Fhh:_Component_SendMessageUpwards_m19741277
iYe:_Array_InternalArray__ICollection_Add_TisHitInfo_t1761367055_m2956071622_gshared
f3a:__Z28BuildSingleStreamChannelInfojRK20VertexChannelsLayoutjS1_P11ChannelInfo
CUf:_InternalEnumerator_1_MoveNext_m470170271_AdjustorThunk
QOa:__ZN10GameObject23VirtualRedirectTransferER18StreamedBinaryReadILb0EE
d$h:__ZN6il2cpp2gc16GarbageCollector13AllocateFixedEjPv
kg:_glFrontFace
Ouf:_ObjectRecord_get_IsUnsolvedObjectReference_m2202692850
fnf:_FactoryCache_Cleanup_m4130035987
Vsd:__ZNK5physx20BigConvexDataBuilder4SaveERNS_14PxOutputStreamEbjPKNS_16HullTriangleDataE
Cjb:__ZN13BuildSettings8TransferI18StreamedBinaryReadILb1EEEEvRT_
VZc:__ZN5physx13NpVolumeCache17getNbCachedShapesEv
AJa:__ZNSt3__26vectorI16ShadowCasterData13stl_allocatorIS1_L18MemLabelIdentifier2ELi16EEE21__push_back_slow_pathIKS1_EEvRT_
QCh:__ZN6il2cpp6icalls8mscorlib6SystemL16GetFieldFromTypeINS_5utils10functional6FilterINSt3__212basic_stringIcNS7_11char_traitsIcEENS7_9allocatorIcEEEENS4_11StringUtils23CaseInsensitiveComparerEEEEEP21Il2CppReflectionFieldP11Il2CppClassSK_iRKT_
LJg:_UInt32_ToString_m1783596809
_aa:__ZN17PersistentManager12UnloadStreamERKNSt3__212basic_stringIcNS0_11char_traitsIcEENS0_9allocatorIcEEEEb
HTa:__Z24CreateDirectoryRecursiveRKNSt3__212basic_stringIcNS_11char_traitsIcEENS_9allocatorIcEEEE
hdh:_ReadOnlyCollection_1_System_Collections_IList_RemoveAt_m525136953_gshared
Cg:_strftime_l
R4:__ZN6prcoreL17RemapGenericFloatI17TexFormatRGBFloat18TexFormatRGBAFloatEEvPKNS_9InnerInfoE
h1b:__ZN6HelperI9JSONWrite23TransferArrayField_InfoE24SerializationFunctionForERKS1_R23StaticTransferFieldInfoPb
x$c:__ZN5physx2Sc5Scene15getRenderBufferEv
QJg:_UInt64_System_IConvertible_ToBoolean_m3012279573_AdjustorThunk
$Tg:__Z48RuntimeInvoker_Il2CppObject_StringU26_t638738783PK10MethodInfoPvPS2_
bBh:__ZL25UnresolvedVirtualCall_143P12Il2CppObject40CustomAttributeTypedArgument_t1498197914PK10MethodInfo
$xi:_glClearStencil__wrapper
GHg:_Type_get_IsGenericTypeDefinition_m2147901038
_sa:__ZN12HandlerChain10ToAbsoluteEPKc
M4f:_ContextAttribute_Freeze_m4133346275
zpe:_GregorianCalendar__ctor_m3794576475
GJg:_UInt32_TryParse_m4283512434
Gob:__ZN13MonoBehaviour23VirtualRedirectTransferER19StreamedBinaryWriteILb0EE
Bs:__ZN9AudioClip11CreateSoundEv
pch:_Collection_1_ConvertItem_m2185647560_gshared
hGg:_TimeSpan_op_Inequality_m257547441
uDg:_ExecutionContext_GetObjectData_m1456913356
AWh:__ZN14dense_hash_setI10KeyWrapperIP18Il2CppGenericClassEN6il2cpp8metadata22Il2CppGenericClassHashENS5_25Il2CppGenericClassCompareENSt3__29allocatorIS3_EEE6insertERKS3_
ylh:_Object_set_hideFlags_m2204253440
g$h:__ZN6il2cpp2gc16GarbageCollector21CallWithAllocLockHeldEPFPvS2_ES2_
$Cf:_EnumBuilder_get_Assembly_m4285228003
Mga:__ZN13GfxDeviceGLES20CreateComputeProgramEPKhj
sre:_DateTimeFormatInfo_get_RoundtripPattern_m562440017
PGd:__ZN11UnityEngine7Connect16PersistentValues13RestoreValuesER8JSONRead
Uwd:__ZN14SphereCollider22FetchPoseFromTransformEv
gng:__ZL76Convert_t2607082565_CustomAttributesCacheGenerator_Convert_ToByte_m791636053P21CustomAttributesCache
qle:_Double_System_IConvertible_ToByte_m3004284950_AdjustorThunk
Fsf:_TypeEntry_get_AssemblyName_m1762285107
gid:__ZNK5physx2Gu11HeightField17getHeightInternalEff
p_h:__ZN6il2cpp2vmL11GetIdentityEP14Il2CppIUnknown
J3h:_GC_push_gc_structures
vXc:__ZNK5physx7NpScene22getClientBehaviorFlagsEh
NEc:__ZN5physx9NpFactory14createMaterialEfff
Iuh:__ZN15dense_hashtableINSt3__24pairIK10KeyWrapperINS0_12basic_stringIcNS0_11char_traitsIcEENS0_9allocatorIcEEEEEP11Il2CppClassEES9_N6il2cpp5utils11StringUtils12StringHasherIS8_EEN14dense_hash_mapIS9_SC_SI_NS0_8equal_toIS9_EENS6_ISD_EEE9SelectKeyESL_SM_E8min_sizeEjj
bpf:_Enumerator__ctor_m3782962052
mae:_Enumerator_get_Current_m1271212567
MB:__ZN5physx5cloth11PhaseConfigC2Et
mqa:__Z22GetShaderCachePathGLESv
oCd:__ZN13PhysicsModule21OverlapBoxUserCollectERK8Vector3fS2_RK11Quaternionfi23QueryTriggerInteractionRN8IPhysics12IUserCollectE
X3b:__ZN5physx3Cct13BoxControllerD2Ev
O1:__ZN18StreamedBinaryReadILb1EE19TransferSTLStyleMapINSt3__23mapIN9ShaderLab16FastPropertyNameEN18UnityPropertySheet11UnityTexEnvENS2_4lessIS5_EENS2_9allocatorINS2_4pairIKS5_S7_EEEEEEEEvRT_17TransferMetaFlags
Tgf:_IPAddress_ParseIPV6_m2209709575
fWc:__ZThn8_N5physx2Sc19ShapeInstancePairLLD0Ev
kF:__ZN19CloudServiceHandler18SaveFileFromServerERK8UnityStrS2_PN11UnityEngine15CloudWebService16WWWRestHeaderMapE
gdd:__ZN5physx19PxcContactSphereBoxERKNS_2Gu13GeometryUnionES3_RKNS_11PxTransformES6_RKfRNS_10PxcNpCacheERNS0_13ContactBufferE
JXc:__ZNK5physx7NpScene21getBroadPhaseCallbackEh
gnc:__ZN5physx6shdfnd5ArrayIPNS_12PxConstraintENS0_19ReflectionAllocatorIS3_EEE15growAndPushBackERKS3_
nuc:__ZNK5physx2Sc15ArticulationSim11checkResizeEv
huf:__ZN16VirtFuncInvoker0IaE6InvokeEjPv
dN:__ZN8keywords6CreateEPKc
l8b:__ZN5physx2Gu11gjkRelativeINS0_8CapsuleVENS0_11ConvexHullVEEEjRKT_RKT0_RKNS_6shdfnd3aos15PsMatTransformVERNSB_5Vec3VESG_SG_RNSB_6FloatVE
rOg:__Z89RuntimeInvoker_Il2CppObject_Il2CppObject_Int32_t2071877448_Int32_t2071877448_Il2CppObjectPK10MethodInfoPvPS2_
$vb:__ZN24GenerateTypeTreeTransfer8TransferINSt3__26vectorI17AnimationCurveTplIfE13stl_allocatorIS4_L18MemLabelIdentifier1ELi16EEEEEEvRT_PKc17TransferMetaFlags
R:Math_imul
lRd:_SecurityFrame_t1002202659_marshal_pinvoke_back
cmh:_Physics_Raycast_m2036777053
kve:_Int32_Equals_m321398519_AdjustorThunk
tjh:_Playable_Equals_m3780922516_AdjustorThunk
L8d:_Hashtable_ContainsKey_m2716576664
XKh:__ZN15dense_hashtableINSt3__24pairIK10KeyWrapperIPK10Il2CppTypeEjEES6_N6il2cpp8metadata14Il2CppTypeHashEN14dense_hash_mapIS6_jSB_NSA_17Il2CppTypeCompareENS0_9allocatorIS8_EEE9SelectKeyESD_SF_EC2EjRKSB_RKSD_RKSH_
qxg:_PatternCompiler_EmitCategory_m1696942454
rje:_Decimal_decimalFloorAndTrunc_m3655683429
AYe:_Array_InternalArray__ICollection_CopyTo_TisInt32_t2071877448_m984622488_gshared
iui:_emscripten_glStencilOpSeparate__wrapper
EMa:__ZN13ProbeRenderer8ConvolveEbijjb
Qja:__ZN17GenericDynamicVBOC2ER9GfxDevice13GfxBufferModejj
j4f:_Context_get_HasDynamicSinks_m1998518649
MTc:__ZNK5physx2Sc5Scene7isValidEv
TLb:__ZN12ScriptMapper7PRODUCEE18MemLabelIdentifier18ObjectCreationMode
uD:__ZN11UnityEngine15CloudWebService17SessionEventQueue10PurgeItemsEj
MZc:__ZN5physx2Sq17SceneQueryManager29setDynamicTreeRebuildRateHintEj
wZd:_Array_System_Collections_IList_get_Item_m2088124007
QZd:_Array_GetLength_m2083296647
dlg:__ZL58SecurityElement_t2325568386_CustomAttributesCacheGeneratorP21CustomAttributesCache
H_a:__ZN16LevelGameManager23VirtualRedirectTransferER24GenerateTypeTreeTransfer
A6d:_SynchronizedArrayListWrapper_ToArray_m1522185111
dYg:__Z55RuntimeInvoker_TimeSpan_t3430258949_DateTime_t693205669PK10MethodInfoPvPS2_
cBb:__Z18Transfer_BlittableI18StreamedBinaryReadILb1EELb1EtEvRK29SerializationCommandArgumentsR31RuntimeSerializationCommandInfo
lQd:_SecurityContext_get_FlowSuppressed_m420202521
cfa:__ZN9GfxDevice20DeallocRenderSurfaceEP17RenderSurfaceBase
ctc:__ZN5physx6shdfnd5ArrayIPvNS0_19ReflectionAllocatorINS_18NpArticulationLinkEEEE4copyINS0_15InlineAllocatorILj256ES5_EEEEvRKNS1_IS2_T_EE
BLg:_ValueType_ToString_m3796301715
s4b:__ZNK5physx3Cct10Controller12getKineShapeEv
HVg:__Z62RuntimeInvoker_Int64_t909078037_Il2CppObject_Int32_t2071877448PK10MethodInfoPvPS2_
Nzh:__ZL24UnresolvedVirtualCall_73P12Il2CppObjectPK10MethodInfo
wlc:__ZN5physx6shdfnd4sortIPvNS0_4LessIS2_EENS0_19ReflectionAllocatorINS_2Sc18TriggerInteractionEEEEEvPT_jRKT0_RKT1_j
w0a:__ZN12BaseRenderer23RendererBecameInvisibleEv
XRc:__ZNK5physx2Sc8BodyCore14getMaxAngVelSqEv
Pvb:__Z29Transfer_Blittable_ArrayFieldI24GenerateTypeTreeTransferfEvRT_R9ArrayInfoRK23StaticTransferFieldInfo
xWg:__Z51RuntimeInvoker_Single_t2076509932_Int16_t4041245914PK10MethodInfoPvPS2_
ebb:__ZN8Gradient8TransferI14SafeBinaryReadEEvRT_
bTg:__Z41RuntimeInvoker_StackBehaviour_t1390406961PK10MethodInfoPvPS2_
YZh:__ZNK15dense_hashtableINSt3__24pairIK10KeyWrapperIP14Il2CppIUnknownEjEES5_N6il2cpp5utils11PointerHashIS3_EEN14dense_hash_mapIS5_jSB_NS0_8equal_toIS5_EENS0_9allocatorIS7_EEE9SelectKeyESE_SG_E5beginEv
ggf:_FileWebRequest__ctor_m4003648606
Aca:__ZN16MeshVertexFormat23CreateVertexDeclarationEjPKS_
h3g:__Z34RuntimeInvoker_HitInfo_t1761367055PK10MethodInfoPvPS2_
qme:_Enum_System_IConvertible_ToSByte_m3488526280
pra:__ZN9GfxDevice9SkinOnGPUERK18VertexStreamSourceP9GfxBufferP17GPUSkinPoseBufferS4_iijb
_Gf:_TypeBuilder_ToString_m1952363535
dlh:_MonoBehaviour_StopAllCoroutines_m1675795839
Daa:__ZN18IDCollectorFunctorD0Ev
fed:__ZN5physx2Gu32PCMConvexVsMeshContactGeneration15processTriangleEPKNS_6PxVec3EjhPKj
DOa:__ZN23ManagedAttributeManager21GetRequiredComponentsEP11Il2CppClass
$tg:__ZL82Object_t1021602117_CustomAttributesCacheGenerator_Object_DestroyObject_m2343493981P21CustomAttributesCache
HI:__ZNK20LocalFileSystemPosix9IsSymLinkERK13FileEntryData
D2h:_GC_new_free_list_inner
i$f:_DefaultComparer_Equals_m85211180_gshared
bMb:__ZN14RenderSettings7PRODUCEE18MemLabelIdentifier18ObjectCreationMode
JFe:_MonoType_InternalGetEvent_m532443236
Jhd:__ZN5physx6shdfnd5ArrayINS_2Cm8Matrix34ENS0_19ReflectionAllocatorIS3_EEE15growAndPushBackERKS3_
med:__ZN5physx2Gu32PCMConvexVsMeshContactGeneration31generatePolyDataContactManifoldERNS0_9TriangleVEjjhPNS0_21MeshPersistentContactERjRKNS_6shdfnd3aos6FloatVERNS8_5Vec3VE
Rtd:__ZN5physx10SubSortSAH5splitEPjj
NZb:__ZN8JSONRead8TransferI10RectOffsetEEvRT_PKc17TransferMetaFlagsb
Ohi:__ZNSt3__28time_getIwNS_19istreambuf_iteratorIwNS_11char_traitsIwEEEEED2Ev
zVd:_Decoder__ctor_m2623573910
DBa:__Z21ClearFenceWithoutSyncR8JobFence
N9b:__ZN5physx2Gu3EPA8addFacetEjjjRKNS_6shdfnd3aos6FloatVES6_
xv:__ZN12SoundManager20RegisterModifiedClipEP10SampleClip
dQ:__Z21FormatScriptTypeError14MonoScriptTypeRKNSt3__212basic_stringIcNS0_11char_traitsIcEENS0_9allocatorIcEEEE
Mhb:__ZN12MeshRenderer15AddAsRenderNodeER15RenderNodeQueueRK20DeprecatedSourceData
bQg:__Z108RuntimeInvoker_Void_t1841601450_Il2CppObject_Int64_t909078037_Il2CppObject_Int64_t909078037_Int64_t909078037PK10MethodInfoPvPS2_
Yx:__ZN11AudioSource4PlayEd
lpb:__Z26scripting_class_get_fieldsP11Il2CppClassRNSt3__26vectorIP9FieldInfo13stl_allocatorIS4_L18MemLabelIdentifier1ELi16EEEE
vhc:__ZN5physx3Cct9CCTParamsC2Ev
JHc:__ZN5physx7NpCloth21setStiffnessFrequencyEf
GI:__ZNK20LocalFileSystemPosix8IsHiddenERK13FileEntryData
LXb:__Z37Transform_CUSTOM_INTERNAL_CALL_LookAtP12Il2CppObjectRK8Vector3fS3_
bqd:__ZThn8_N5physx2Gu11HeightField14onRefCountZeroEv
m5g:_X501__cctor_m2610532554
pab:__ZThn28_NK8Renderer8GetLayerEv
Qkc:__ZN5physx2Sc5Actor9setActiveEbj
PUd:_StringComparer__ctor_m2275216983
s7a:__ZN7Cubemap23VirtualRedirectTransferER18StreamedBinaryReadILb0EE
z7e:_RecordProtocol_EncodeRecord_m3884270352
yge:_DateTime_System_IConvertible_ToType_m3821835592
R$d:__ZN16VirtFuncInvoker0IP12MemberInfo_tE6InvokeEjPv
rfe:_Convert_ToUInt32_m776714429
r8b:__ZN5physx2Gu22barycentricCoordinatesERKNS_6shdfnd3aos5Vec3VES5_S5_RNS2_6FloatVE
aua:__ZN12FileAccessor4SeekEx10FileOrigin
Rub:__ZL26Transfer_SimpleNativeClassI24GenerateTypeTreeTransfer17AnimationCurveTplIfELb0EEvRK29SerializationCommandArgumentsR31RuntimeSerializationCommandInfo
lHc:__ZN5physx15NpActorTemplateINS_7PxClothEE12setActorFlagENS_11PxActorFlag4EnumEb
jsd:__ZL18TestUnifiedNormalsjPKN5physx6PxVec3EjPNS_2Gu9TriangleTIjEEb
eih:_Coroutine_t2299508840_marshal_pinvoke
lU:__ZN16LightmapSettings20DidChangeActiveSceneEP10UnitySceneS1_
QLh:__ZN15dense_hashtableINSt3__24pairIK10KeyWrapperINS1_IPK14Il2CppAssemblyP11Il2CppClassEEEjEES9_17ReflectionMapHashIS8_EN14dense_hash_mapIS9_jSD_19ReflectionMapEqualsIS8_ENS0_9allocatorISB_EEE9SelectKeyESG_SI_E13set_empty_keyERKSB_
xwg:__ZL59g_AssemblyU2DCSharp_Assembly_CustomAttributesCacheGeneratorP21CustomAttributesCache
Qw:__ZN10AudioMixer11SetupGroupsEv
g3f:_ClientIdentity_CreateObjRef_m3625915063
POe:_PrivateKeyInfo_DecodeRSA_m1427048948
X1e:_BigInteger_op_GreaterThanOrEqual_m2643115413
nAf:_Assembly_FillName_m1934025015
aza:_UNITY_png_free
$we:_IntPtr_op_Explicit_m1073656736
nsi:_emscripten_glDepthRange__wrapper
xTd:_String_IndexOf_m2126171214
zwe:_Int64_ToString_m1544341651_AdjustorThunk
Mod:__ZNK5physx13GuMeshFactory17getNbConvexMeshesEv
Pse:_Guid_CheckNull_m2903986431
cqg:__ZL62CrossContextDelegate_t754146990_CustomAttributesCacheGeneratorP21CustomAttributesCache
_O:__Z63ThreadAndSerializationSafeCheckGetMonoBehaviourBeingTransferredv
n5h:_GC_enable
x9e:_TlsClientCertificateVerify_ProcessAsSsl3_m3377063356
tQg:__Z97RuntimeInvoker_Il2CppObject_Il2CppObject_Int32_t2071877448_Il2CppObject_Il2CppObject_Il2CppObjectPK10MethodInfoPvPS2_
Dye:_EndOfStreamException__ctor_m4268387737
QIg:_UInt16_ToString_m4213290405
pjg:__ZL59StreamingContext_t1417235061_CustomAttributesCacheGeneratorP21CustomAttributesCache
F2f:_ChannelServices_RegisterChannel_m3832858065
xme:_Enum_GetName_m1226611481
hUg:__Z113RuntimeInvoker_Il2CppObject_Byte_t3683104436_Il2CppObject_SByte_t454417549_Il2CppObject_Il2CppObject_Il2CppObjectPK10MethodInfoPvPS2_
Mx:__ZN11AudioSource5ResetEv
Xdb:__ZN14Texture2DArray23VirtualRedirectTransferER18StreamedBinaryReadILb0EE
Zzg:_Literal_CompileLiteral_m276843152
ccb:__ZN2UI13RectTransform13AwakeFromLoadE17AwakeFromLoadMode
FDa:__ZL27GetDestRenderTargetSurfacesP13RenderTextureR12ObjectHandleI17RenderSurface_TagP17RenderSurfaceBaseES6_
tjd:__ZN5physx23PxsSolverSetupSolveTaskD2Ev
rrb:__Z18Transfer_BlittableI14SafeBinaryReadLb1EiEvRK29SerializationCommandArgumentsR31RuntimeSerializationCommandInfo
L0f:_DefaultDependencyAttribute__ctor_m107693037
O8g:_List_1_set_Capacity_m491101164_gshared
vHb:__ZNSt3__26vectorINS_4pairINS_12basic_stringIcNS_11char_traitsIcEENS_9allocatorIcEEEES7_EENS5_IS8_EEE21__push_back_slow_pathIKS8_EEvRT_
IVg:__Z72RuntimeInvoker_Il2CppObject_IntPtr_t_Int32_t2071877448_Int32_t2071877448PK10MethodInfoPvPS2_
QEh:_il2cpp_field_get_offset
rrf:_ProxyAttribute_GetPropertiesForNewContext_m3587421540
Q_d:_Array_LastIndexOf_m4096535198
y4d:_ArrayList_Add_m1719188324
RBc:__ZN18MultiQueryCallbackIN5physx12PxOverlapHitEE6invokeERfPKNS0_2Sq13PrunerPayloadEj
Gle:_Double_System_IConvertible_ToSByte_m1653690240_AdjustorThunk
Ewd:__ZN14SphereColliderD0Ev
$bc:__ZN5physx2Gu18gjkRelativeRayCastINS0_4BoxVES2_NS0_10ShrunkBoxVES3_EEbRT_RT0_RKNS_6shdfnd3aos15PsMatTransformVERKNS9_6FloatVERKNS9_5Vec3VESI_RSD_RSG_SK_fb
uk:_glGetStringi
qMc:__ZN5physx22NpParticleBaseTemplateINS_15PxParticleFluidENS_15NpParticleFluidEE14setRestitutionEf
veb:__ZN18StreamedBinaryReadILb0EE21TransferSTLStyleArrayI13dynamic_arrayI8Vector4fLj4EEEEvRT_17TransferMetaFlags
spd:__ZThn8_N5physx2Gu10ConvexMeshD0Ev
flf:_X509Chain_get_CertificateCollection_m324631835
bvh:__ZN15dense_hashtableI10KeyWrapperIPK19Il2CppGenericMethodES4_N6il2cpp8metadata23Il2CppGenericMethodHashEN14dense_hash_setIS4_S7_NS6_26Il2CppGenericMethodCompareENSt3__29allocatorIS4_EEE8IdentityES9_SC_EC2ERKSF_j
BWe:_Array_InternalArray__IndexOf_TisClientCertificateType_t4001384466_m1168139450_gshared
S0g:__Z49RuntimeInvoker_Int32_t2071877448_Link_t2723257478PK10MethodInfoPvPS2_
jEf:_FieldBuilder_get_Name_m2243491233
QPd:_StringBuilder_Append_m3618697540
F8g:_List_1_GetEnumerator_m3294992758_gshared
UH:__ZN13ScreenManager16SetScreenTimeoutEi
Htb:__Z18Transfer_BlittableI17RemapPPtrTransferLb0EdEvRK29SerializationCommandArgumentsR31RuntimeSerializationCommandInfo
MMd:_SymmetricAlgorithm_set_IV_m4262655606
WBf:_CustomAttributeNamedArgument_GetHashCode_m3715408876_AdjustorThunk
kkf:_X509Certificate2_AppendBuffer_m3517242299
SCa:__Z35IntersectSpherePlaneBoundsOptimizedRKN4math7_float4EPS1_i
kpe:_CultureInfo_get_IsNeutralCulture_m3874876470
gke:_Delegate_CreateDelegate_m3813023227
Jgi:__ZNKSt3__27num_putIcNS_19ostreambuf_iteratorIcNS_11char_traitsIcEEEEE6do_putES4_RNS_8ios_baseEcx
cUg:__Z46RuntimeInvoker_WellKnownObjectMode_t2630225581PK10MethodInfoPvPS2_
gjc:__ZN5physx2Sc8ShapeSim20createLowLevelVolumeEjRKNS_9PxBounds3EjNS_9AABBMgrIdE
mCg:_Uri_get_AbsoluteUri_m2120317928
Igi:__ZNKSt3__27num_putIcNS_19ostreambuf_iteratorIcNS_11char_traitsIcEEEEE6do_putES4_RNS_8ios_baseEcl
Kgi:__ZNKSt3__27num_putIcNS_19ostreambuf_iteratorIcNS_11char_traitsIcEEEEE6do_putES4_RNS_8ios_baseEcm
OHc:__ZNK5physx7NpCloth22getAngularInertiaScaleEv
Odc:__ZN26IntersectAnyVsMeshCallbackILi1ELb1EE10processHitERKN5physx12PxRaycastHitERKNS1_6PxVec3ES7_S7_RfPKj
Ngi:__ZNKSt3__27num_putIcNS_19ostreambuf_iteratorIcNS_11char_traitsIcEEEEE6do_putES4_RNS_8ios_baseEce
Hgi:__ZNKSt3__27num_putIcNS_19ostreambuf_iteratorIcNS_11char_traitsIcEEEEE6do_putES4_RNS_8ios_baseEcb
Aoc:__ZN5physx2Sc13ConstraintSim15needsProjectionEv
UT:__Z22CleanupLODGroupManagerPv
f$c:__ZN5physx6shdfnd5ArrayINS_2Sc5Scene14SimpleBodyPairENS0_19ReflectionAllocatorIS4_EEE8recreateEj
dl:_glUniform3fv
Qkb:__ZNSt3__218__insertion_sort_3IRN15ResourceManager10Dependency6SorterEPS2_EEvT0_S6_T_
cUf:_InternalEnumerator_1_System_Collections_IEnumerator_Reset_m3249248421_AdjustorThunk
qFe:_IntComparer_Compare_m3057931085
zHa:__ZNK16LightmapSettings31GetRealtimeLightmapDecodeValuesEv
lx:__ZN5audio5mixer12SetSuspendedERNS0_16AudioMixerMemoryEb
x7:__ZN17PersistentManager21UnloadNonDirtyStreamsEv
YOg:__Z78RuntimeInvoker_Int32_t2071877448_DecimalU26_t1613489971_DecimalU26_t1613489971PK10MethodInfoPvPS2_
bSh:__ZN6il2cpp2vm13LivenessStateC2EP11Il2CppClassjPFvPP12Il2CppObjectiPvES7_PFvvESB_
Aif:_Oid__ctor_m1936781897
rMf:_ResourceSet__ctor_m1222864106
tmd:__ZN5physx2Sc5Scene13ccdBroadPhaseEPNS_10PxBaseTaskE
bsb:__ZN12NativeBufferI27Converter_SimpleNativeClassI8GradientEE19ProcessAfterReadingER9ArrayInfoP11Il2CppClass
zl:_emscripten_glDepthMask
hed:__ZN5physx2Gu24PCMMeshContactGeneration15processContactsEhb
k8f:__ZL76UInt16_t986882611_CustomAttributesCacheGenerator_UInt16_TryParse_m1818885113P21CustomAttributesCache
Rka:__ZN4crnd25static_huffman_data_model22prepare_decoder_tablesEv
w8a:__ZN9Texture2D23VirtualRedirectTransferER17RemapPPtrTransfer
jMb:__ZN16ReflectionProbesD2Ev
P_e:_Array_Sort_TisIl2CppObject_TisIl2CppObject_m1915706600_gshared
t1e:_ModulusRing_Difference_m662924064
FTf:_InternalEnumerator_1_MoveNext_m1869236997_gshared
tzg:_Regex_Matches_m253372688
QK:__ZL22CleanupUnityWebStreamsPv
Pwg:_Regex_get_RightToLeft_m529734879
jyb:__Z18Transfer_BlittableI18StreamedBinaryReadILb0EELb0E10ColorRGBAfEvRK29SerializationCommandArgumentsR31RuntimeSerializationCommandInfo
cff:_ListDictionary_Add_m4276262662
Nmi:__Znaj
WJd:_RIPEMD160Managed_GGG_m1639995340
Cyi:_emscripten_glEnableClientState__wrapper
z8h:__ZN6il2cpp6icalls8mscorlib4Mono8Security12Cryptography18KeyPairPersistence15_ProtectMachineEP12Il2CppString
xRg:__Z57RuntimeInvoker_DSAParameters_t1872138834_SByte_t454417549PK10MethodInfoPvPS2_
q0a:__ZN11GameManager15ThreadedCleanupEv
w8c:__ZN5physxL26solveFriction4_StaticBlockEPKNS_23PxcSolverConstraintDescERNS_16PxcSolverContextE
JZd:_Array_System_Collections_IList_Remove_m2438892375
lCe:_TextWriter__ctor_m2225796097
Dnh:_ScriptableObject_Internal_CreateScriptableObject_m1778903390
add:__ZN5physx30PxcGetMaterialShapeHeightFieldEPKNS_12PxsShapeCoreES2_RNS_18PxcNpThreadContextEPNS_15PxsMaterialInfoE
b$:__ZNK6Camera16GetStereoEnabledEv
TMb:__ZN12LightManager15InitializeClassEv
cnd:__ZN5physx6shdfnd8PoolBaseINS_2Sc19ParticlePacketShapeENS0_19ReflectionAllocatorIS3_EEE12allocateSlabEv
ZPb:__ZN18ScriptingArgumentsC2Ev
qGg:_TimeZone_IsDaylightSavingTime_m875882154
CLh:__ZN13Il2CppHashMapINSt3__24pairIPK9FieldInfoP11Il2CppClassEEj17ReflectionMapHashIS7_E19ReflectionMapEqualsIS7_ENS0_9allocatorINS1_IK10KeyWrapperIS7_EjEEEEEC2EjRKS9_RKSB_
SNf:_ArrayReadOnlyList_1_Insert_m503707439_gshared
gui:_emscripten_glBlendFuncSeparate__wrapper
nPg:__Z52RuntimeInvoker_Single_t2076509932_Decimal_t724701077PK10MethodInfoPvPS2_
n6e:_CipherSuiteCollection_System_Collections_IList_set_Item_m750275607
uLd:_SHA1CryptoServiceProvider__ctor_m3127563759
wp:__ZN8Vector3f8TransferI14SafeBinaryReadEEvRT_
ho:FUNCTION_TABLE_ii
i0a:__ZN10TagManager8TransferI18StreamedBinaryReadILb0EEEEvRT_
g0b:__Z18Transfer_BlittableI9JSONWriteLb0E8BitFieldEvRK29SerializationCommandArgumentsR31RuntimeSerializationCommandInfo
KJg:_UInt32_ToString_m3894907091_AdjustorThunk
mb:invoke_diiii
Tcc:__ZL17sweepVolumeVsMeshPKN5physx3Cct9SweepTestEPKNS0_11TouchedMeshERNS0_12SweptContactERKNS_6PxVec3ERKNS_10PxGeometryERKNS_11PxTransformEjPKNS_10PxTriangleEj
dYf:_ShimEnumerator_get_Key_m616785465_gshared
GNe:_SmallXmlParser_Error_m1832158746
aof:_RepeatContext_get_IsLazy_m1620488045
tk:_glDeleteVertexArrays
vhd:__ZN5physx2Gu31checkOverlapOBB_heightFieldGeomERKNS_10PxGeometryERKNS_11PxTransformERKNS0_3BoxE
FGb:__ZN9ShaderLab20SerializedSubProgram8TransferI18StreamedBinaryReadILb0EEEEvRT_
NBe:_StreamAsyncResult_get_AsyncWaitHandle_m4218169359
Asi:b40
J5b:__ZN5physx2Gu23findRotationMatrixFromZERKNS_6PxVec3E
dBa:__Z9EndJobSetR8JobFence11JobPriority
Gaf:_TlsServerSettings_set_SignedParams_m1826385315
aJa:__ZN14qsort_internal6_QSortIP21ForwardRenderPassDataiN23ForwardShaderRenderLoop18RenderObjectSorterILb0EEEEEvT_S6_T0_T1_
HAa:__ZNK6Camera22CalculateRenderingPathEv
W0b:__ZN9JSONWrite8TransferI5RectTIfEEEvRT_PKc17TransferMetaFlags
TZc:__ZN5physx13NpVolumeCache10invalidateEv
T4e:_ContentInfo_get_Content_m1802070908
ctb:__ZL12InvokeMethodI17RemapPPtrTransferEvRK29SerializationCommandArgumentsR31RuntimeSerializationCommandInfo
fRe:_X509Certificate_get_PublicKey_m714501701
FZ:__Z14IsHalfRTFormat19RenderTextureFormat
KTd:_String_LastIndexOf_m290475879
nUf:_InternalEnumerator_1_System_Collections_IEnumerator_get_Current_m1658267053_gshared
dMc:__ZN5physx22NpParticleBaseTemplateINS_15PxParticleFluidENS_15NpParticleFluidEE12setPositionsEjRKNS_16PxStrideIteratorIKjEERKNS4_IKNS_6PxVec3EEE
eDe:_TextReader_Read_m975794707
z6h:__ZN6il2cpp6icalls8mscorlib6System9Threading16NativeEventCalls20CreateEvent_internalEbbP12Il2CppStringPb
Hjc:__ZN5physx6shdfnd5ArrayIPvNS0_19ReflectionAllocatorINS_2Sc10NPhaseCore16ClothListElementEEEE15growAndPushBackERKS2_
UJg:_UInt64_System_IConvertible_ToChar_m1930853313_AdjustorThunk
s9e:_TlsClientCertificate_SendCertificates_m1096074091
u9d:_SyncHashtable_get_Item_m408601391
Ljg:__ZL45DSA_t903174880_CustomAttributesCacheGeneratorP21CustomAttributesCache
epd:__ZN5physx2Gu10ConvexMeshD0Ev
oah:_Stack_1_System_Collections_ICollection_CopyTo_m2104527616_gshared
t4h:_GC_add_map_entry
JXd:_StringBuilder_AppendFormat_m1666670800
iKa:__ZN18DeferredRenderLoop13RenderGBufferEP13RenderTexturePS1_b8JobFencePK25DeferredRenderLoopScratchRi
Kei:__ZNSt3__219__iostream_categoryD0Ev
dub:__Z18Transfer_BlittableI17RemapPPtrTransferLb1E8BitFieldEvRK29SerializationCommandArgumentsR31RuntimeSerializationCommandInfo
FQh:__ZN6il2cpp6icalls8mscorlib6System9ThreadingL11ThreadStartEPv
g9h:__ZN6il2cpp2vm9LastError31InitializeLastErrorThreadStaticEv
jra:__ZN9GfxDevice12DeleteBufferEP9GfxBuffer
MRe:_AttrListImpl_GetName_m1919558736
uGa:__ZN14qsort_internal31_FindAndMovePivotToLastPositionIP15RODataDepthPassi17ROSorterDepthPassEEvT_S4_T0_T1_
a_:__ZN12CachedReader10Align4ReadEv
jCg:_Uri_op_Equality_m110355127
STh:__ZN6il2cpp2vm9Exception28GetMarshalDirectiveExceptionEPKc
CGe:_MulticastDelegate_GetObjectData_m3187757658
xCc:__ZN5physx2Sc14ConstraintCore13setBreakForceEff
qQ:__Z26scripting_class_is_genericP11Il2CppClass
PKb:__ZNK28MonoBehaviourPropertyBinding12SetPPtrValueERKN11UnityEngine9Animation10BoundCurveEi
e0g:__Z59RuntimeInvoker_Boolean_t3825574718_KeyValuePair_2_t38854645PK10MethodInfoPvPS2_
Ipb:__ZN9Scripting35ErrorMessageForUnsupportedEnumFieldEP9FieldInfo
dXc:__ZN5physx7NpScene15removeAggregateERNS_11PxAggregateEb
Wfa:__ZN9GfxDevice17ImmediateTexCoordEifff
nyg:_Parser_ParseRegularExpression_m2390577313
yii:__ZNSt3__28time_putIwNS_19ostreambuf_iteratorIwNS_11char_traitsIwEEEEED2Ev
n$d:_Array_double_swapper_m1175307080
zzg:_Alternation_AddAlternative_m623421443
Hlf:_X509CertificateEnumerator_System_Collections_IEnumerator_Reset_m327358896
C3g:__Z36RuntimeInvoker_Enumerator_t402048720PK10MethodInfoPvPS2_
qYe:_Array_InternalArray__ICollection_CopyTo_TisKeyValuePair_2_t1174980068_m1818152223_gshared
BPd:_Hash__ctor_m2554411450
yqe:_NumberFormatter_AppendDigits_m1308372770
nZa:__ZN17FileSystemHandler4CopyER13FileEntryDataS1_
ARd:_Single_System_IConvertible_ToDateTime_m2510003459_AdjustorThunk
Ake:_Delegate_RemoveImpl_m3666700529
dsi:_emscripten_glUniform4f__wrapper
wff:_NameObjectCollectionBase_OnDeserialization_m3478980442
wkd:__ZN5physx6shdfnd5ArrayINS_25PxcThresholdStreamElementENS0_19ReflectionAllocatorIS2_EEE8recreateEj
fCa:__ZNK6Camera16GetProjectionFarEv
ANa:__Z24InverseTransformRotationRK23TransformAccessReadOnlyRKN4math7_float4E
Ux:__ZN11AudioSource6UpdateEv
Q6e:_Context_get_ClientSettings_m1185615112
eph:_StateMachineBehaviour_OnStateExit_m1490844990
Jfa:__ZN9GfxDevice21ResetDynamicResourcesEv
PIc:__ZN5physx7NpCloth21setCollisionMassScaleEf
Khd:__ZN5physx6shdfnd5ArrayINS_7PxPlaneENS0_19ReflectionAllocatorIS2_EEE8recreateEj
Ivf:_StreamingContext__ctor_m3063421596_AdjustorThunk
sCd:__ZN13PhysicsModule17GetRigidBodyStateERK9RigidbodyPN8IPhysics14RigidBodyStateE
VFd:__ZN20UnityConnectSettings23VirtualRedirectTransferER18StreamedBinaryReadILb1EE
k9f:__ZL70IntPtr_t_CustomAttributesCacheGenerator_IntPtr_op_Explicit_m3896766622P21CustomAttributesCache
S_a:__ZN17GlobalGameManager23VirtualRedirectTransferER18StreamedBinaryReadILb0EE
aXe:_Array_InternalArray__IndexOf_TisTypeTag_t141209596_m2882894956_gshared
xha:__ZNK13TranslateGLES6EnableEN2gl10EnabledCapE
TA:__ZN16BaseVideoTexture19UpdateVideoTexturesEv
$8:__ZNK16LightmapSettings23HasLightProbeTetrahedraEv
D8e:_Context_get_WriteSequenceNumber_m243492531
kdb:__ZN6Sprite23VirtualRedirectTransferER19StreamedBinaryWriteILb0EE
Weg:__ZL51Assembly_t4268412390_CustomAttributesCacheGeneratorP21CustomAttributesCache
DTd:_String_LastIndexOfAny_m1473637802
JXb:__Z38Transform_CUSTOM_INTERNAL_set_positionP12Il2CppObjectRK8Vector3f
RLg:_Version_CompareTo_m596235198
r0:__ZNK9ShaderLab7Program19HasMatchingVariantsERK13dynamic_arrayI16ShaderKeywordSetLj4EE
_d:_emscripten_glVertexPointer
ssa:__ZNSt3__26__treeI20DeviceDepthStateGLES11memcmp_lessIS1_S1_ENS_9allocatorIS1_EEE7destroyEPNS_11__tree_nodeIS1_PvEE
I9g:_List_1_System_Collections_Generic_ICollectionU3CTU3E_get_IsReadOnly_m1614481629_gshared
oCh:__ZN6il2cpp2vm7Runtime47RaiseExecutionEngineExceptionIfMethodIsNotFoundEPK10MethodInfo
DJa:__Z17GetFrustumPortionPK8Vector3fffPS_
vmc:__ZNK5physx2Gu22SupportMapRelativeImplINS0_4BoxVEE18doWarmStartSupportEiRNS_6shdfnd3aos5Vec3VE
hLg:_UnauthorizedAccessException__ctor_m259001183
jLd:__ZN18VirtActionInvoker1IP30AsymmetricAlgorithm_t784058677E6InvokeEjPvS1_
l3a:__ZN5Light13AwakeFromLoadE17AwakeFromLoadMode
prh:__ZNK15dense_hashtableINSt3__24pairIK10KeyWrapperIPK22Il2CppGenericParameterEP11Il2CppClassEES6_N6il2cpp5utils11PointerHashIS4_EEN14dense_hash_mapIS6_S9_SE_NS0_8equal_toIS6_EENS0_9allocatorISA_EEE9SelectKeyESH_SJ_E5beginEv
Mfe:_CultureAwareComparer_Compare_m2587353351
wHe:_NumberFormatter_NumberToString_m3855209845
a7g:_X509Stores_Open_m2057354563
Yne:_CCGregorianCalendar_is_leap_year_m567513478
hGh:__ZNK19ReflectionMapEqualsINSt3__24pairIPK14Il2CppAssemblyP11Il2CppClassEEEclERK10KeyWrapperIS7_ESC_
fjf:_Oid_get_Value_m2271181078
P$d:_Attribute_IsDefined_m2118467641
OOe:_PrivateKeyInfo_Normalize_m3959595934
VOf:_InternalEnumerator_1_System_Collections_IEnumerator_get_Current_m3125080595_gshared
cQb:__ZN16StreamedResource8TransferI24GenerateTypeTreeTransferEEvRT_
olb:__ZN19StreamedBinaryWriteILb0EE8TransferINSt3__24pairI8UnityStr4PPtrI6ObjectEEEEEvRT_PKc17TransferMetaFlags
egc:__ZN5physx3Cct10Controller13onOriginShiftERKNS_6PxVec3E
rpa:__ZN10Matrix3x3f15InvertTransposeEv
CUe:_Array_InternalArray__ICollection_Remove_TisKeyValuePair_2_t1174980068_m2768765894_gshared
l_b:__ZN6HelperI8JSONRead23TransferArrayField_InfoE24SerializationFunctionForERKS1_R23StaticTransferFieldInfoPb
lya:__Z11IsBatchmodev
tIh:__ZNK15dense_hashtableINSt3__24pairIK10KeyWrapperINS1_IPK10MethodInfoP11Il2CppClassEEEjEES9_17ReflectionMapHashIS8_EN14dense_hash_mapIS9_jSD_19ReflectionMapEqualsIS8_ENS0_9allocatorISB_EEE9SelectKeyESG_SI_E10test_emptyERK24dense_hashtable_iteratorISB_S9_SD_SK_SG_SI_E
d5g:_PKCS12_CertificateSafeBag_m3272197807
F9e:_TlsClientCertificateVerify_ProcessAsTls1_m1960818833
e7c:__ZN5physx2Gu19_gjkRelativeRayCastINS0_9TriangleVENS0_11ConvexHullVEEEbRT_RT0_RKNS_6shdfnd3aos15PsMatTransformVERKNS9_6FloatVERKNS9_5Vec3VESI_RSD_RSG_SK_f
Fsb:__Z29Transfer_Blittable_ArrayFieldI14SafeBinaryRead8Vector3fEvRT_R9ArrayInfoRK23StaticTransferFieldInfo
WIg:_UInt32_System_IConvertible_ToBoolean_m91295134
Zm:FUNCTION_TABLE_vfii
CDg:_Monitor_Monitor_test_synchronised_m1542589500
IYh:__ZNK6il2cpp5utils11StringUtils23CaseInsensitiveComparerclERKNSt3__212basic_stringIcNS3_11char_traitsIcEENS3_9allocatorIcEEEEPKc
F8f:__ZL75String_t_CustomAttributesCacheGenerator_String_Concat_m626692867____values0P21CustomAttributesCache
qtg:__ZL98GameObject_t1756533147_CustomAttributesCacheGenerator_GameObject_SendMessage_m71956653____options2P21CustomAttributesCache
CPe:_SymmetricTransform_TransformFinalBlock_m4192185386
Cse:_TextInfo__ctor_m1263401274
rcd:__ZNK5physx19ActorAABBUpdateTask7getNameEv
l3h:_GC_print_finalization_stats
r8e:_Context_get_SecurityProtocolFlags_m3295551796
lUf:_InternalEnumerator_1__ctor_m2981879621_AdjustorThunk
d9a:__ZN15SerializeTraitsI13dynamic_arrayI33EnlightenTerrainChunksInformationLj4EEE19ResizeSTLStyleArrayERS2_i18MemLabelIdentifier
Hsg:__ZL87Component_t3819376471_CustomAttributesCacheGenerator_Component_GetComponent_m4225719715P21CustomAttributesCache
ihf:_IPAddress_ToString_m267966740
Z$a:__ZNSt3__26vectorIN4core12basic_stringIcNS1_20StringStorageDefaultIcEEEENS_9allocatorIS5_EEE8__appendEj
gji:__ZNKSt3__210moneypunctIwLb0EE13do_pos_formatEv
TEh:_il2cpp_gc_collect
okb:__ZN26PlayerSettingsSplashScreen8TransferI17RemapPPtrTransferEEvRT_
cSf:_InternalEnumerator_1_get_Current_m3922357178_gshared
YCh:__ZN6il2cpp6icalls8mscorlib6SystemL17CollectTypeFieldsINS_5utils10functional10TrueFilterEEEvP11Il2CppClassPKS7_iRNSt3__26vectorIP9FieldInfoNSB_9allocatorISE_EEEERKT_
Tfb:__ZN7SubMesh8TransferI18StreamedBinaryReadILb1EEEEvRT_
IGg:_Type_get_IsValueType_m1733572463
PXc:__ZN5physx7NpScene14resetFilteringERNS_12PxRigidActorEPKPNS_7PxShapeEj
abb:__Z13GetTagManagerv
ySg:__Z127RuntimeInvoker_Void_t1841601450_IntPtr_t_Int32_t2071877448_SByte_t454417549_Int32_t2071877448_SByte_t454417549_SByte_t454417549PK10MethodInfoPvPS2_
cVe:_Array_InternalArray__ICollection_Remove_TisUInt16_t986882611_m65494986_gshared
Iqh:__ZL10roundUp128PyS_
VB:__ZN11UnityEngine15CloudWebService17CloudJobSchedulerD0Ev
vSd:_String_System_IConvertible_ToBoolean_m2696751322
H7:__ZN18LoadSceneOperation7PerformEv
q1c:__ZN5physx2Sc5Scene26setSimulationEventCallbackEPNS_25PxSimulationEventCallbackEh
Mjh:_GUILayer_INTERNAL_CALL_HitTest_m693512502
k5b:__ZL30GeomMTDCallback_CapsuleCapsuleRN5physx6PxVec3ERfRKNS_10PxGeometryERKNS_11PxTransformES5_S8_
tYc:__ZN5physx7NpScene23forceDynamicTreeRebuildEbb
fs:__ZL16FMOD_ErrorString11FMOD_RESULT_464
hgh:_Camera_get_pixelRect_m2084185953
Bdc:__ZL18intersectAnyVsMeshILi0EEbPKN5physx2Gu6SphereEPKNS1_7CapsuleEPKNS1_3BoxERKNS1_13RTreeMidphaseERKNS0_11PxTransformERKNS0_11PxMeshScaleEP14LimitedResults
jFg:_TimeSpan__ctor_m1888018443_AdjustorThunk
gT:__ZL23AddConflictingClassIMPL11ClassIDTypeS_
q9d:_SyncHashtable_get_Count_m3694444082
Ntc:__ZN5physx14NpArticulation6wakeUpEv
Z$g:__Z131RuntimeInvoker_Void_t1841601450_Il2CppObject_AnimatorStateInfo_t2577870592_Int32_t2071877448_AnimatorControllerPlayable_t4078305555PK10MethodInfoPvPS2_
Qqa:__ZN22VertexDeclarationCache5ClearEv
XCb:__ZN15CacheWriterBase18GetAddressOfMemoryEv
IAa:__ZN6Camera24PrepareCullingParametersERK23CameraCullingParameters13RenderingPathR11CullResults
Nkg:__ZL84Evidence_t1407710183_CustomAttributesCacheGenerator_Evidence_GetHashCode_m1260371757P21CustomAttributesCache
FEa:__ZN13MonoBehaviour30InvokeMethodOrCoroutineCheckedE21ScriptingMethodIl2CppP12Il2CppObjectPP15Il2CppException
jtb:__Z26Transfer_UnityEngineObjectI17RemapPPtrTransferLb0EEvRK29SerializationCommandArgumentsR31RuntimeSerializationCommandInfo
LTd:_String_IsNullOrEmpty_m2802126737
B2d:_Byte_Parse_m1442736478
hwe:_Int64_Parse_m3258022240
yTd:_String_IndexOfOrdinal_m3591623977
OOa:__ZN10GameObject12SetHideFlagsEi
Lxf:_CryptoConfig_EncodeLongNumber_m2352037787
nHg:_Type_GetMethod_m475234662
gSd:_Single_GetHashCode_m3102305584
m7g:_KeyValuePair_2__ctor_m1877755778_AdjustorThunk
b2f:_ActivationServices_get_ConstructionActivator_m1726426854
dwb:__Z29Transfer_Blittable_ArrayFieldI24GenerateTypeTreeTransfer4AABBEvRT_R9ArrayInfoRK23StaticTransferFieldInfo
kng:__ZL76Convert_t2607082565_CustomAttributesCacheGenerator_Convert_ToChar_m245844937P21CustomAttributesCache
Fmg:__ZL52Activator_t1850728717_CustomAttributesCacheGeneratorP21CustomAttributesCache
n4h:_GC_adj_bytes_allocd
gYe:_Array_InternalArray__ICollection_Add_TisKeyframe_t1449471340_m887263954_gshared
rqd:__ZN5physx20InternalTriangleMesh16allocateVerticesEj
lZe:_Array_InternalArray__Insert_TisDateTime_t693205669_m1484996356_gshared
_Ae:_MonoIO_get_ConsoleInput_m2976499023
CGf:_OpCode_get_Size_m481593949_AdjustorThunk
T6d:_BitArrayEnumerator_checkVersion_m3839504595
c_d:_Array_GetUpperBound_m1352329707
Lxa:__ZZ23InitPlayerLoopCallbacksvEN36UpdateScriptRunBehaviourUpdatestruct7ForwardEv
zad:__ZN5physx6shdfnd5ArrayINS_17PxcBroadPhasePairENS0_19ReflectionAllocatorIS2_EEE8recreateEj
d_g:__Z61RuntimeInvoker_Void_t1841601450_Byte_t3683104436_Il2CppObjectPK10MethodInfoPvPS2_
Y6e:_RecordProtocol__ctor_m168945279
Vhe:_DateTimeOffset_Equals_m3728302791_AdjustorThunk
Nbc:__ZThn4_N16RayRTreeCallbackILi1ELb0EED1Ev
czd:__ZN5physx7profile11EventBufferINS_24PxDefaultContextProviderENS_6shdfnd6MutexTINS0_26WrapperReflectionAllocatorIhEEEENS0_14ScopedLockImplIS7_EENS_24PxProfileNullEventFilterEE9sendEventINS0_10StartEventEEEvRNS0_11EventHeaderERT_
oJa:__ZN20SphericalHarmonicsL219AddDirectionalLightERKN4math7_float3ERKNS0_7_float4E
$od:__ZN5physx13BigConvexDataD2Ev
gGg:_TimeSpan_op_GreaterThanOrEqual_m3997050520
bog:__ZL77Convert_t2607082565_CustomAttributesCacheGenerator_Convert_ToUInt16_m36213644P21CustomAttributesCache
FL:__Z26ScheduleJobForEachInternalR8JobFencePFvPvjES1_iPFvS1_E11JobPriority
pjf:_OidEnumerator_MoveNext_m1889267785
tSb:__ZN9Scripting18RaiseMonoExceptionEPKcz
Jug:__ZL76Physics_t634932869_CustomAttributesCacheGenerator_Physics_Raycast_m780162053P21CustomAttributesCache
l8a:__ZN9Texture2D8TransferI19StreamedBinaryWriteILb0EEEEvRT_
Dnb:__ZN24RingBufferMemoryFileData6UnlockEPv
oNb:__ZN9ShaderLab16FastPropertyName15InitBy28BitHashEj
IRd:_Single_System_IConvertible_ToInt32_m3269519527_AdjustorThunk
Fsh:__ZN6il2cpp2vm5Class7GetNameEP11Il2CppClass
UBb:__ZN13MonoBehaviour18TransferEngineDataI18StreamedBinaryReadILb0EEEE4PPtrI10MonoScriptERT_
ALd:_SHA1Internal_ProcessBlock_m4070037334
K5h:__ZN6il2cpp6icalls8mscorlib6System10Reflection14MonoMethodInfo15get_method_infoE12Il2CppIntPtrP16Il2CppMethodInfo
nYd:_UTF32Encoding_GetDecoder_m2714144074
Nqf:_ObjRef_GetObjectData_m3081609242
Ccd:__ZN5physx20updateBodyShapeAABBsEPKjjS1_PKNS_17PxcAABBDataStaticEPNS_11IntegerAABBEj
hfb:__ZN17PackedFloatVector12UnpackFloatsEPfiiii
tlg:__ZL113EncoderReplacementFallback_t4228544112_CustomAttributesCacheGenerator_EncoderReplacementFallback__ctor_m517300448P21CustomAttributesCache
rch:_ReadOnlyCollection_1__ctor_m3671019970_gshared
Nga:__ZN13GfxDeviceGLES21DestroyComputeProgramER12ObjectHandleI18ComputeProgram_TagPvE
Yce:_Convert_ToDecimal_m2007036836
XT:__ZN17UniqueIDGenerator16DestroyPureIndexEj
YDb:__ZN14SafeBinaryRead21TransferSTLStyleArrayINSt3__26vectorIN9ShaderLab20SerializedSubProgram12UAVParameterENS1_9allocatorIS5_EEEEEEvRT_17TransferMetaFlags
i4f:_Context_NotifyDynamicSinks_m1367144344
PG:__ZNK13BaseAllocator10IsAssignedEv
mE:__ZN24TextDOMTransferWriteBaseI9JSONWriteE12PushMetaFlagEi
uIc:__ZN5physx7NpCloth22removeCollisionCapsuleEj
xMg:__Z45RuntimeInvoker_Int16_t4041245914_Il2CppObjectPK10MethodInfoPvPS2_
O5g:_X509Certificate_GetSubjectName_m1189079906
c7e:_TlsClientCertificateVerify__ctor_m110646389
U5:__ZN6prcoreL26RemapGenericIntegerToFloatI17TexFormatARGB888815TexFormatRFloatEEvPKNS_9InnerInfoE
wG:__ZN5Mutex6UnlockEv
WBh:__ZN6il2cpp2vm10ThreadPool10InitializeEv
r4f:_Context_GetServerContextSinkChain_m390126977
UNh:__ZN6il2cpp2vm17TypeNameParseInfoD2Ev
EIh:__ZNK15dense_hashtableINSt3__24pairIK10KeyWrapperINS1_IPK11Il2CppImageP11Il2CppClassEEEjEES9_17ReflectionMapHashIS8_EN14dense_hash_mapIS9_jSD_19ReflectionMapEqualsIS8_ENS0_9allocatorISB_EEE9SelectKeyESG_SI_E13find_positionERSA_
Dkd:__ZN5physx18PxsSolverStartTask16articulationTaskEv
V_e:_Array_Sort_TisIl2CppObject_m143182644_gshared
GCe:_StringReader_Read_m513112775
gab:__ZNK8Renderer8GetLayerEv
foc:__ZN5physx6shdfnd4sortIPvNS0_4LessIS2_EENS0_19ReflectionAllocatorINS_2Cm5BlockIS2_Lj16EEEEEEEvPT_jRKT0_RKT1_j
dfc:__ZN5physx3Cct17CapsuleController18setNonWalkableModeENS_27PxControllerNonWalkableMode4EnumE
roc:__ZN5physx2Sc11InteractionD2Ev
obh:_Collection_1_Add_m2613548553_gshared
LJa:__ZNK6Camera20GetReplacementShaderEv
WBc:__ZN18MultiQueryCallbackIN5physx12PxRaycastHitEE6invokeERfPKNS0_2Sq13PrunerPayloadEj
Fie:_Decimal__ctor_m569480123_AdjustorThunk
Bgf:_HttpWebRequest__cctor_m3013631978
Y5b:__ZN5physx2Gu9ContainerC2Ev
fEb:__ZNSt3__26vectorIN9ShaderLab20SerializedSubProgram14ConstantBufferENS_9allocatorIS3_EEE7reserveEj
G9:__ZL23stbir__calculate_memoryP11stbir__info
bNe:_KeyGeneratedEventHandler_EndInvoke_m1587195139
wTc:__ZN5physx15NpActorTemplateINS_13PxRigidStaticEE13setActorFlagsENS_7PxFlagsINS_11PxActorFlag4EnumEtEE
fp:__ZN9Behaviour11FixedUpdateEv
tlb:__ZNK30RuntimeInitializeOnLoadManager26GetTypeInfoVirtualInternalEv
U2c:__ZN5physx18PxcNpThreadContextD2Ev
$2b:__ZNK9rapidjson12GenericValueINS_4UTF8IcEE13JSONAllocatorE6AcceptINS_12PrettyWriterI16TempBufferWriterS2_S2_S3_EEEEbRT_
OQc:__ZN5physx19NpRigidBodyTemplateINS_14PxRigidDynamicEE11attachShapeERNS_7PxShapeE
_Ye:_Array_InternalArray__ICollection_CopyTo_TisVector3_t2243707580_m509487340_gshared
J5e:_CipherSuite_get_KeyBlockSize_m2993514247
E_b:__ZL26Transfer_SimpleNativeClassI8JSONRead10RectOffsetLb1EEvRK29SerializationCommandArgumentsR31RuntimeSerializationCommandInfo
xFg:_TimeSpan_get_Ticks_m2285358246_AdjustorThunk
etd:__ZN5physx2Gu27computeBoundsAroundVerticesERNS_9PxBounds3EjPKNS_6PxVec3E
p2f:_UrlAttribute_Equals_m1587451932
cK:__ZNSt3__26__treeINS_12basic_stringIcNS_11char_traitsIcEENS_9allocatorIcEEEENS_4lessIS6_EENS4_IS6_EEE12__find_equalIS6_EERPNS_16__tree_node_baseIPvEESG_RKT_
E1b:__Z18Transfer_BlittableI9JSONWriteLb1EsEvRK29SerializationCommandArgumentsR31RuntimeSerializationCommandInfo
VWc:__ZNK5physx7NpScene9getLimitsEv
zue:_Int16_ToString_m4099416068_AdjustorThunk
Nyf:_DSAParameters_t1872138834_marshal_pinvoke_cleanup
k$:__ZN6ObjectD2Ev
exa:__ZZ23InitPlayerLoopCallbacksvEN44EarlyUpdateResetFrameStatsAfterPresentstruct7ForwardEv
A7c:__ZNK5physx2Gu29EPASupportMapPairRelativeImplINS0_9TriangleVENS0_8CapsuleVEE9doSupportERKNS_6shdfnd3aos5Vec3VERS7_SA_SA_
xOc:__ZNK5physx2Sc18ParticleSystemCore19getParticleReadDataERNS_23PxParticleFluidReadDataE
MAh:__ZL25UnresolvedVirtualCall_126P12Il2CppObject20TimeSpan_t3430258949PK10MethodInfo
sbd:__ZN3MBP12updateObjectEjRK5IAABB
bMe:_ASN1_Element_m2600236165
hrc:__ZN5physx6shdfnd5ArrayINS_6PxVec3ENS0_19ReflectionAllocatorIS2_EEE15growAndPushBackERKS2_
$zg:__ZN23InterfaceActionInvoker3IP8String_tbbE6InvokeEjP11Il2CppClassPvS1_bb
_Th:__ZN6il2cpp2os19ReleaseSocketHandleEj
_bg:__ZL128SafeHandleZeroOrMinusOneIsInvalid_t1177681199_CustomAttributesCacheGenerator_SafeHandleZeroOrMinusOneIsInvalid__ctor_m3340306667P21CustomAttributesCache
SGf:_TypeBuilder_GetPropertyImpl_m1854119335
zpb:__Z30GetOrCreateObjectStoredInFieldP9FieldInfoRK17GeneralMonoObjectb
T_c:__ZN5physx2Sc5Scene20fireTriggerCallbacksEv
ZCf:_TypeBuilder_get_next_table_index_m1415870184
Noi:___cxa_can_catch
g2e:_SequentialSearchPrimeGeneratorBase_GenerateNewPrime_m296245934
F3d:_Char_GetUnicodeCategory_m4273361321
w8f:__ZL63String_t_CustomAttributesCacheGenerator_String_Split_m394273024P21CustomAttributesCache
Hwh:__ZN15dense_hashtableINSt3__24pairIK10KeyWrapperIPK19Il2CppGenericMethodEPK26Il2CppGenericMethodIndicesEES6_N6il2cpp8metadata23Il2CppGenericMethodHashEN14dense_hash_mapIS6_SA_SE_NSD_26Il2CppGenericMethodCompareENS0_9allocatorISB_EEE9SelectKeyESG_SI_E12maybe_shrinkEv
P6c:__ZN5physx2Gu18GJKRelativeRayCastERNS0_8CapsuleVERNS0_4BoxVERKNS_6shdfnd3aos15PsMatTransformVERKNS6_6FloatVERKNS6_5Vec3VESF_RSA_RSD_SH_fb
g0g:__Z68RuntimeInvoker_Boolean_t3825574718_Il2CppObject_ObjectU26_t597476745PK10MethodInfoPvPS2_
oA:__ZN10AudioMixer6UpdateEf
iEe:_Math_Round_m565516458
$3f:_Identity_get_ClientDynamicProperties_m767245959
TOf:_InternalEnumerator_1__ctor_m675130983_AdjustorThunk
TTg:__Z95RuntimeInvoker_Void_t1841601450_SByte_t454417549_Il2CppObject_SByte_t454417549_SByte_t454417549PK10MethodInfoPvPS2_
XYh:__ZN6il2cpp2os5posix15PosixWaitObjectC2ENS2_4TypeE
xFa:__ZN6Camera21PostMultiCustomRenderENS_10RenderFlagEb
Ypa:__ZN14DrawBufferGLESI11IndexBuffer26IndexBufferUsageMapperGLESED0Ev
vpc:__ZN5physx15PxsArticulationD2Ev
Zti:_emscripten_glVertexPointer__wrapper
tca:__ZN23ShaderVariantCollection13WarmupShadersEv
q8e:_Context_set_ProtocolNegotiated_m1177527245
_Ig:_UInt32_System_IConvertible_ToChar_m1056040486
w0e:_ScriptableObject_CreateInstance_TisIl2CppObject_m926060499_gshared
hef:_TlsStream_get_Length_m1562309511
f8:__Z27scripting_gc_collect_unsafei
CA:__ZN11AudioModule20SuspendVideoTexturesEv
W6d:_CaseInsensitiveComparer__ctor_m1125492797
OMb:__ZN12CubemapArrayC2E18MemLabelIdentifier18ObjectCreationMode
HSc:__ZN5physx13NpRigidStaticC2ERKNS_11PxTransformE
xbe:_Convert_ToByte_m395020137
Gub:__Z26Transfer_UnityEngineObjectI24GenerateTypeTreeTransferLb0EEvRK29SerializationCommandArgumentsR31RuntimeSerializationCommandInfo
Pni:___cxa_get_globals_fast
$6c:__ZN5physxL20PxcSweepBoxTrianglesERKNS_11PxsCCDShapeES2_RKNS_11PxTransformES5_S5_S5_fRNS_6PxVec3ES7_RNS_10PxcNpCacheERNS_18PxcNpThreadContextERKNS_2Cm23FastVertex2ShapeScalingERNS_2Gu9TriangleVEf
wDe:_TextWriter_WriteLine_m1754475888
ugc:__ZN5physx3Cct15ObstacleContextD0Ev
Z3a:__ZN15SharedLightData7PrecalcEv
P8:__ZN10Matrix4x4fmLERKS_
Ap:__ZN4PPtrI9TransformE8TransferI18StreamedBinaryReadILb0EEEEvRT_
J$e:_Array_InternalArray__get_Item_TisDouble_t4078015681_m2215331088_gshared
Tkg:__ZL57PrincipalPolicy_t289802916_CustomAttributesCacheGeneratorP21CustomAttributesCache
bW:__ZN18AssetBundleManagerC2Ev
uOb:__ZN5Light16TransformChangedEv
kwa:__ZN15ArchiveReadFileD0Ev
vPe:_SymmetricTransform_TransformBlock_m1524716432
YU:__ZN18ConcurrentFreeListI28FileTextureUploadInstructionE7CleanUpEv
uEd:__ZN11UnityEngine15PlatformWrapper18GetOperatingSystemEv
Tla:__ZNSt3__26vectorIP14DataBufferGLESNS_9allocatorIS2_EEE21__push_back_slow_pathIKS2_EEvRT_
K$c:__ZN5physx3Scb9Aggregate9syncStateERNS0_5SceneE
ksg:__ZL61ExtensionAttribute_t1840441203_CustomAttributesCacheGeneratorP21CustomAttributesCache
cke:_Delegate_return_type_match_m4278947849
dDh:__ZN6il2cpp6icalls8mscorlib6System8MonoType19GetGenericArgumentsEP20Il2CppReflectionType
yoi:__ZNSt8bad_castD0Ev
Qae:_GC_SuppressFinalize_m953228702
UEd:__ZNSt3__26__treeINS_12__value_typeI8UnityStr14CallbackArray2IRKS2_R8JSONReadEEENS_19__map_value_compareIS2_S9_NS_4lessIS2_EELb1EEE13stl_allocatorIS9_L18MemLabelIdentifier5ELi16EEE7destroyEPNS_11__tree_nodeIS9_PvEE
$cf:_InternalAsyncResult_get_ProceedAfterHandshake_m552962842
oWg:__Z50RuntimeInvoker_SByte_t454417549_Double_t4078015681PK10MethodInfoPvPS2_
Uja:__ZN10DynamicVBO12ReleaseChunkER21DynamicVBOChunkHandlejj
x8h:__ZN6il2cpp6icalls8mscorlib4Mono8Security12Cryptography18KeyPairPersistence10_CanSecureEP12Il2CppString
pxc:__ZN5physx7NpActor17resolveReferencesERNS_24PxDeserializationContextE
GMh:__ZN6il2cpp2os4File11GetFileStatERKNSt3__212basic_stringIcNS2_11char_traitsIcEENS2_9allocatorIcEEEEPNS0_8FileStatEPi
Eda:__ZN13GfxDeviceGLES14SetRasterStateEPK17DeviceRasterState
tpb:__Z26scripting_field_get_offsetP9FieldInfo
Nqb:__Z30TransferField_LinearCollectionI14SafeBinaryReadEvRK29SerializationCommandArgumentsR31RuntimeSerializationCommandInfo
Fjc:__ZN5physx6shdfnd8internal8HashBaseINS0_4PairIKPKNS_2Sc8ShapeSimENS4_10NPhaseCore16ClothListElementEEES7_NS0_4HashIS7_EENS1_11HashMapBaseIS7_SA_SD_NS0_9AllocatorEE6GetKeyESF_Lb1EE5eraseERS8_
bjf:_OidCollection_Add_m3712419303
gpb:__Z23TransferScriptingObjectI14SafeBinaryReadEvRT_P12Il2CppObjectP11Il2CppClassPK15MonoScriptCache
kjc:__ZN5physx5Elems17setStaticAABBDataEjRKNS_17PxcAABBDataStaticE
M7e:_TlsServerHello__ctor_m3032108168
JZ:__ZN14SafeBinaryRead11EndTransferEv
RKh:__ZN14dense_hash_mapI10KeyWrapperIPK10Il2CppTypeEjN6il2cpp8metadata14Il2CppTypeHashENS6_17Il2CppTypeCompareENSt3__29allocatorINS9_4pairIKS4_jEEEEEC2EjRKS7_RKS8_
zeg:__ZL98ILGenerator_t99948092_CustomAttributesCacheGenerator_ILGenerator_Mono_GetCurrentOffset_m3553856682P21CustomAttributesCache
Fec:__ZN5physx11PxHitBufferINS_12PxRaycastHitEE14processTouchesEPKS1_j
nG:__ZNK3WWW12GetAudioClipEv
Bqb:__ZN14SafeBinaryRead8TransferI8MonoPPtrEEvRT_PKc17TransferMetaFlags
I_f:_Dictionary_2_System_Collections_Generic_ICollectionU3CSystem_Collections_Generic_KeyValuePairU3CTKeyU2CTValueU3EU3E_Remove_m1705959559_gshared
$oa:__ZN21UniformBufferTFMethod13MapBoneBufferEj
Lbf:_RecordProtocol_SendChangeCipherSpec_m3542001341
fIh:__ZN15dense_hashtableINSt3__24pairIK10KeyWrapperINS1_IPK10MethodInfoP11Il2CppClassEEEjEES9_17ReflectionMapHashIS8_EN14dense_hash_mapIS9_jSD_19ReflectionMapEqualsIS8_ENS0_9allocatorISB_EEE9SelectKeyESG_SI_E4swapERSL_
E_e:_Array_InternalArray__set_Item_TisVector3_t2243707580_m1390667454_gshared
cRh:__ZNSt3__26vectorIcNS_9allocatorIcEEEC2Ej
qNe:_KeyPairPersistence_CanSecure_m2251009700
kxa:__ZZ23InitPlayerLoopCallbacksvEN27FixedUpdateClearLinesstruct7ForwardEv
ofb:__ZN10VertexData6ResizeEjjjRK19VertexStreamsLayoutRK20VertexChannelsLayout
Hpf:_ReturnMessage_get_Properties_m531965085
tEf:_GenericTypeParameterBuilder_IsSubclassOf_m563999142
Ine:_Exception_ToString_m627574695
oHf:_AddEventAdapter_Invoke_m3970567975
GL:__Z21CompleteFenceInternalR8JobFence
$oh:_StackTraceUtility_PostprocessStacktrace_m2866903298
spc:__ZN5physx6shdfnd5ArrayIPvNS0_16AlignedAllocatorILj64ENS0_9AllocatorEEEE15growAndPushBackERKS2_
N2f:_CrossAppDomainChannel_RegisterCrossAppDomainChannel_m43456045
mZe:_Array_InternalArray__Insert_TisDecimal_t724701077_m1429254816_gshared
ozb:__ZN18StreamedBinaryReadILb0EE21TransferSTLStyleArrayI13dynamic_arrayIyLj8EEEEvRT_17TransferMetaFlags
WFh:__ZN6il2cpp2vm10Reflection17GetAssemblyObjectEPK14Il2CppAssembly
Vka:__ZN18AsyncUploadManager17DoScaledPaddedJobEP28FileTextureUploadInstruction
Jfc:__ZN5physx3Cct12SweptCapsuleC2Ev
aDb:__ZN6Shader21AwakeFromLoadThreadedEv
iId:__ZN16VirtFuncInvoker0IiE6InvokeEjPv
bki:__ZNSt3__28messagesIwED0Ev
V4:__ZN6prcoreL17RemapGenericFloatI17TexFormatRGBFloat17TexFormatRGBAHalfEEvPKNS_9InnerInfoE
H$b:__ZN8JSONRead21TransferSTLStyleArrayI13dynamic_arrayI8Vector2fLj4EEEEvRT_18MemLabelIdentifier17TransferMetaFlags
JAd:__ZN5physx24PxcContactBoxHeightFieldERKNS_2Gu13GeometryUnionES3_RKNS_11PxTransformES6_RKfRNS_10PxcNpCacheERNS0_13ContactBufferE
v9h:__ZN6il2cpp2os9SemaphoreC2Eii
ROf:_InternalEnumerator_1_get_Current_m2960188445_AdjustorThunk
Ksb:__ZNSt3__26vectorI8MonoPPtr13stl_allocatorIS1_L18MemLabelIdentifier1ELi16EEE8__appendEj
RSg:__Z92RuntimeInvoker_Void_t1841601450_Il2CppObject_Il2CppObject_SByte_t454417549_Int32_t2071877448PK10MethodInfoPvPS2_
kpa:__ZN15UniformTFMethod20IsBoneCountSupportedEi
icd:__ZNK5physx23AggregateAABBUpdateTask7getNameEv
fJa:__ZN14qsort_internal31_FindAndMovePivotToLastPositionIP21ForwardRenderPassDataiN23ForwardShaderRenderLoop18RenderObjectSorterILb1EEEEEvT_S6_T0_T1_
GNd:_X509Certificate_GetExpirationDateString_m2351894475
Ymh:_Rect_Contains_m1334685291_AdjustorThunk
vze:_FileStream_get_Position_m465478322
zqi:dynCall_viidi
qZe:_Array_InternalArray__Insert_TisInt64_t909078037_m3039874636_gshared
R0d:_Convert_ToInt16_m1787678274
Vbf:_RSASslSignatureDeformatter_SetKey_m1150106904
nO:__ZN24ScriptingMethodFiltering17FilterOnSignatureENS_18MethodSearchFilterE
pCf:_TypeBuilder_get_Module_m1668298460
dod:__ZN5physx13NpClothFabric16scaleRestlengthsEf
QH:__ZN18ScreenManagerWebGL13SetLockCursorE14CursorLockMode
PFe:_MonoType_GetMethodsByName_m1854415088
Irh:__ZN15dense_hashtableINSt3__24pairIK10KeyWrapperIPK22Il2CppGenericParameterEP11Il2CppClassEES6_N6il2cpp5utils11PointerHashIS4_EEN14dense_hash_mapIS6_S9_SE_NS0_8equal_toIS6_EENS0_9allocatorISA_EEE9SelectKeyESH_SJ_E15insert_noresizeERKSA_
$Oe:_RSAManaged_EncryptValue_m4089823119
IKb:__ZN13MonoBehaviour19HandleNotificationsEPviR11MessageData
oUc:__ZN5physx6shdfnd5ArrayIPNS_2Sc17ParticleSystemSimENS0_19ReflectionAllocatorIS4_EEE8recreateEj
F$f:_DefaultComparer_GetHashCode_m926363525_gshared
NSc:__ZNK5physx13NpRigidStatic7getTypeEv
T$g:__Z69RuntimeInvoker_Void_t1841601450_Int32_t2071877448_HitInfo_t1761367055PK10MethodInfoPvPS2_
n$:__ZNK11NamedObject26GetTypeInfoVirtualInternalEv
lAe:_ReadDelegate_Invoke_m2091885836
KDf:_TypeBuilder_GetField_m2112455315
kti:b58
lti:b59
cti:b52
fti:b53
Ssi:b50
bti:b51
dgd:__ZN5physx9PxTaskMgrD0Ev
jti:b57
gti:b54
hti:b55
SKe:_Kernel_Multiply_m3585610531
k5e:_CertificateSelectionCallback_EndInvoke_m3525317639
yx:__ZN4PPtrI15AudioMixerGroupE8TransferI18StreamedBinaryReadILb0EEEEvRT_
qOg:__Z67RuntimeInvoker_Void_t1841601450_Int32_t2071877448_Int16_t4041245914PK10MethodInfoPvPS2_
age:_DateTime__ctor_m3604679583_AdjustorThunk
t$d:_SimpleEnumerator_Reset_m1341779532
nOh:__ZNSt3__214__split_bufferINS_12basic_stringIcNS_11char_traitsIcEENS_9allocatorIcEEEERNS4_IS6_EEEC2EjjS8_
oOe:_MACAlgorithm_Core_m2390605245
JJb:__ZN10GameObject12CleanupClassEv
SRf:_InternalEnumerator_1_System_Collections_IEnumerator_Reset_m2624612805_AdjustorThunk
csc:__ZN5physx3Scb5Scene13addRigidNoSimINS0_11RigidStaticELb0ELb1EEEvRT_RNS0_13ObjectTrackerE
C4a:__ZN15SerializeTraitsI13dynamic_arrayI11TetrahedronLj4EEE19ResizeSTLStyleArrayERS2_i18MemLabelIdentifier
hea:__ZN9GfxDevice25SetShaderPropertiesSharedERK19ShaderPropertySheet
eaa:__ZN18StreamedBinaryReadILb1EE20TransferTypelessDataEjPvi
Onb:__ZN10MonoScript17MainThreadCleanupEv
d$:__ZN13RenderTexture9SetActiveEiP12ObjectHandleI17RenderSurface_TagP17RenderSurfaceBaseES4_PPS_i11CubemapFaceij
hka:__ZN18AsyncUploadManager19AsyncResourceUploadER9GfxDeviceii9TextureID
ZNb:__ZL25InitializeDefaultMaterialv
JZa:__ZN21ArchiveStorageCreatorD2Ev
a9c:__ZN5physx34solveContact_BStaticBlockWriteBackEPKNS_23PxcSolverConstraintDescEjRNS_16PxcSolverContextEPNS_25PxcThresholdStreamElementEjPi
xua:__ZN19FileAccessorHandlerD2Ev
qTf:_InternalEnumerator_1_System_Collections_IEnumerator_Reset_m4085710193_AdjustorThunk
veg:__ZL126GenericTypeParameterBuilder_t1370236603_CustomAttributesCacheGenerator_GenericTypeParameterBuilder_MakeGenericType_m2955814622P21CustomAttributesCache
Xug:__ZL95Physics_t634932869_CustomAttributesCacheGenerator_Physics_RaycastAll_m410413656____maxDistance1P21CustomAttributesCache
HH:__ZN13ScreenManager17RequestResolutionEiibi
Hdc:__ZN26IntersectAnyVsMeshCallbackILi0ELb1EED2Ev
bFh:_il2cpp_unity_liveness_calculation_from_statics
CEg:_Scheduler_get_Instance_m1989471839
uif:_WebRequest_System_Runtime_Serialization_ISerializable_GetObjectData_m3377822910
Wab:__ZN8Renderer8TransferI17RemapPPtrTransferEEvRT_
oQh:__ZNK15dense_hashtableINSt3__24pairIK10KeyWrapperINS1_IP11Il2CppClassjEEES4_EES6_N6il2cpp8metadata14ArrayClassHashEN14dense_hash_mapIS6_S4_SB_NSA_17ArrayClassCompareENS0_9allocatorIS8_EEE9SelectKeyESD_SF_E13find_positionERS7_
Lzh:__ZL24UnresolvedVirtualCall_71P12Il2CppObjectS0_S0_iS0_S0_S0_PK10MethodInfo
d9f:__ZL64IntPtr_t_CustomAttributesCacheGenerator_IntPtr__ctor_m3803259710P21CustomAttributesCache
CJc:__ZNK5physx2Sc9ClothCore16getCollisionDataEPNS_22PxClothCollisionSphereEPjPNS_21PxClothCollisionPlaneES4_PNS_24PxClothCollisionTriangleE
x3g:__Z88RuntimeInvoker_Boolean_t3825574718_DateTimeOffset_t1362988906_DateTimeOffset_t1362988906PK10MethodInfoPvPS2_
iNa:__Z24LookRotationToQuaternionRK8Vector3fS1_P11Quaternionf
gNa:__ZN16ReflectionProbes9GetCameraEv
HNc:__ZNK5physx2Sc18ParticleSystemCore20getMaxMotionDistanceEv
qTe:_ArgumentException__ctor_m2105824819
VWh:__ZN6il2cpp2vm11MethodStack23CleanupForCurrentThreadEv
N7g:_Enumerator_VerifyState_m825848279_AdjustorThunk
ySd:_String_System_IConvertible_ToDateTime_m1423627978
acd:__ZN5physx10BPWorkTaskD0Ev
jFd:__ZN11UnityEngine7Connect14RemoteSettings10UnregisterEPNS0_13ConfigHandlerE
u2:__ZN18UnityPropertySheet8TransferI19StreamedBinaryWriteILb0EEEEvRT_
caf:_TlsServerCertificate_checkServerIdentity_m3836435780
l1b:__ZN9JSONWrite21TransferSTLStyleArrayI31ArrayOfManagedObjectsTransfererEEvRT_17TransferMetaFlags
cQe:_PKCS12_Decrypt_m2353135969
svd:__ZN4PPtrI14PhysicMaterialE8TransferI18StreamedBinaryReadILb1EEEEvRT_
ZIf:_MonoEvent_ToString_m386956596
d1c:__ZN5physx20NpRigidActorTemplateINS_13PxRigidStaticEE14resetFilteringERNS_3Scb11RigidObjectEPKPNS_7PxShapeEj
cue:_Int32_GetFormatException_m1729046182
vPh:__ZN15dense_hashtableINSt3__24pairIK10KeyWrapperIP11Il2CppClassES4_EES5_N6il2cpp8metadata16SZArrayClassHashEN14dense_hash_mapIS5_S4_SA_NS9_19SZArrayClassCompareENS0_9allocatorIS7_EEE9SelectKeyESC_SE_EC2ERKSH_j
DVa:__ZN21UnityDefaultAllocatorI17LowLevelAllocatorE10DeallocateEPv
lK:__GLOBAL__sub_I_runtime_camera2_lump_cpp
nq:__ZN15PackedIntVector8TransferI14SafeBinaryReadEEvRT_
tHf:_FieldInfo_get_IsLiteral_m267898096
ula:__ZN17SharedTextureDataD0Ev
uvc:__ZNK5physx19NpArticulationJoint20getTangentialDampingEv
gdf:_SslStreamBase_EndNegotiateHandshake_m1732321201
xYf:_Transform_1_BeginInvoke_m1167293475_gshared
xt:__ZN13AudioListener8DoUpdateEv
w4b:__ZN5physx3Cct10Controller22setUpDirectionInternalERKNS_6PxVec3E
c8f:__ZL71SByte_t454417549_CustomAttributesCacheGenerator_SByte_Parse_m1620039654P21CustomAttributesCache
sbe:__Z13bankers_roundd
rdb:__ZN14SafeBinaryRead8TransferI5RectTIfEEEvRT_PKc17TransferMetaFlags
Il:_emscripten_glGenFramebuffers
D8d:_Hashtable_CopyTo_m2778915805
CV:__ZN17BaseObjectManager16StaticInitializeEPv
vCf:_ConstructorBuilder_get_IsCompilerContext_m2796899803
Nsg:__ZL97Component_t3819376471_CustomAttributesCacheGenerator_Component_GetComponentsInChildren_m843288020P21CustomAttributesCache
Tbe:_DateTime_CoreParse_m2014268103
tMf:_ResourceSet_Dispose_m2968479859
O1a:__ZN9Behaviour23VirtualRedirectTransferER17RemapPPtrTransfer
s0b:__Z18Transfer_BlittableI9JSONWriteLb0EyEvRK29SerializationCommandArgumentsR31RuntimeSerializationCommandInfo
sKg:_UInt64_Equals_m1243465002
T6a:__ZN12CubemapArray23VirtualRedirectTransferER14SafeBinaryRead
oKc:__ZNK5physx2Sc9ClothCore23getNbCollisionTrianglesEv
Nxf:_CryptographicException__ctor_m1012314467
yGc:__ZN5physx7NpShape16setFlagsInternalENS_7PxFlagsINS_11PxShapeFlag4EnumEhEE
due:_Int32_ProcessTrailingWhitespace_m2812079777
n8:__ZN18ProceduralMaterial9ReloadAllEbb
Dcc:__ZN5physx2Gu30distanceSegmentTriangleSquaredERKNS_6shdfnd3aos5Vec3VES5_S5_S5_S5_RS3_S6_
iif:_WebProxy__ctor_m3679722173
QQf:_InternalEnumerator_1_Dispose_m2743309309_AdjustorThunk
o_:__ZN24GenerateTypeTreeTransfer18BeginArrayTransferEPKcS1_Ri17TransferMetaFlags
$Z:__ZN15TextureSettings8TransferI18StreamedBinaryReadILb1EEEEvRT_
oka:__Z16DecompressCrunchPKhRjR13TextureFormatiiii18MemLabelIdentifier
tji:__ZNSt3__29money_getIcNS_19istreambuf_iteratorIcNS_11char_traitsIcEEEEED2Ev
dm:___syscall51
hm:___syscall54
jVh:__ZNSt3__26__treeINS_12__value_typeIP24Il2CppReflectionAssemblyPvEENS_19__map_value_compareIS3_S5_NS_4lessIS3_EELb1EEENS_9allocatorIS5_EEE12__find_equalIS3_EERPNS_16__tree_node_baseIS4_EESH_RKT_
GMg:__Z107RuntimeInvoker_Boolean_t3825574718_SByte_t454417549_Il2CppObject_Int32_t2071877448_ExceptionU26_t1467204777PK10MethodInfoPvPS2_
kKa:__Z29RenderForwardObjectsIntoDepthRK17RenderLoopContextP13RenderTextureP13dynamic_arrayI16RenderObjectDataLj4EE12ObjectHandleI17RenderSurface_TagP17RenderSurfaceBaseESC_iib
nGh:__ZN15dense_hashtableINSt3__24pairIK10KeyWrapperINS1_IPK14Il2CppAssemblyP11Il2CppClassEEEjEES9_17ReflectionMapHashIS8_EN14dense_hash_mapIS9_jSD_19ReflectionMapEqualsIS8_ENS0_9allocatorISB_EEE9SelectKeyESG_SI_ED2Ev
tVh:__ZN6il2cpp2vm5Image21GetCachedResourceDataEPK11Il2CppImageRKNSt3__212basic_stringIcNS5_11char_traitsIcEENS5_9allocatorIcEEEE
cYe:_Array_InternalArray__ICollection_Add_TisUInt32_t2149682021_m2629016323_gshared
Spb:__Z18Transfer_BlittableI14SafeBinaryReadLb0E10ColorRGBAfEvRK29SerializationCommandArgumentsR31RuntimeSerializationCommandInfo
Qhi:__ZNKSt3__28time_getIwNS_19istreambuf_iteratorIwNS_11char_traitsIwEEEEE13do_date_orderEv
Bag:__ZL65Il2CppArray_CustomAttributesCacheGenerator_Array_Sort_m3002148658P21CustomAttributesCache
wa:invoke_iiiiiiiiii
Cz:__ZNK7Texture10GetVRUsageEv
I7:__ZN18LoadSceneOperation19IntegrateTimeSlicedEi
NEg:_Scheduler_SchedulerThread_m2209572785
bJe:_SortKeyBuffer_GetResultAndReset_m2516956577
c9c:__ZN5physx36solveContactPreBlock_WriteBackStaticEPKNS_23PxcSolverConstraintDescEjRNS_16PxcSolverContextEPNS_25PxcThresholdStreamElementEjPi
mti:_glBlendFuncSeparate__wrapper
cR:__ZN16ScriptingManager24NotifyScriptCacheReleaseEi
_Nf:_InternalEnumerator_1_get_Current_m2151132603_gshared
jeg:__ZL63UnmanagedMemoryStream_t822875729_CustomAttributesCacheGeneratorP21CustomAttributesCache
LUb:__Z47Register_UnityEngine_Coroutine_ReleaseCoroutinev
asc:__ZN10ScSceneFnsIN5physx3Scb11RigidStaticEE6insertERNS0_2Sc5SceneERS2_
lu:__ZN15AudioReverbZone13SetFMODValuesEv
hhh:_Component_GetComponentInChildren_m3925629424
vN:__ZL19StaticDestroyShaderPv
Vd:_glRenderbufferStorageMultisample
qqf:_SoapTypeAttribute_get_XmlTypeName_m2546866572
iqb:__Z35Transfer_Blittable_SingleValueFieldI14SafeBinaryReadfEvRT_R17GeneralMonoObjectRK23StaticTransferFieldInfo
Aaf:_TlsServerHello_processProtocol_m1241336522
Wcc:__ZN5physx2Gu20sweepCCTBoxTrianglesEjPKNS_10PxTriangleEbRKNS_13PxBoxGeometryERKNS_11PxTransformERKNS_6PxVec3EfRSA_SD_RfRjPKjfNS_7PxFlagsINS_9PxHitFlag4EnumEtEE
nab:__ZThn28_N8Renderer21RendererBecameVisibleEv
t6b:__ZN5physx2Gu15OBBTriangleTestC2ERKNS0_3BoxE
P4f:_ContextAttribute_IsContextOK_m3281216012
xBe:_PathTooLongException__ctor_m3212099251
gzi:_pthread_cond_broadcast__wrapper
Dba:__ZN17PersistentManager38InstanceIDToSerializedObjectIdentifierEiR26SerializedObjectIdentifier
Aji:__ZNSt3__211__money_getIcE13__gather_infoEbRKNS_6localeERNS_10money_base7patternERcS8_RNS_12basic_stringIcNS_11char_traitsIcEENS_9allocatorIcEEEESF_SF_SF_Ri
eVf:_InternalEnumerator_1_MoveNext_m3299881374_AdjustorThunk
b8b:__ZN5physx2Gu21computeMTD_SphereMeshERNS_6PxVec3ERfRKNS0_6SphereERKNS_22PxTriangleMeshGeometryERKNS_11PxTransformE
Kq:__ZN17PackedFloatVector8TransferI18StreamedBinaryReadILb0EEEEvRT_
Ojc:__ZN5physx2Sc10NPhaseCore15fetchFilterPairEPv
Ntd:__ZN5physx12SubSortQuick5sort4EPjjRNS_6shdfnd5ArrayINS_11RTreeNodeNQENS2_19ReflectionAllocatorIS4_EEEERjRNS_10PxBounds3VEj
rza:_longest_match_fast
sqc:__ZN5physx6shdfnd5ArrayIPNS_2Sc8BodyCoreENS0_19ReflectionAllocatorIS4_EEE15growAndPushBackERKS4_
$Qb:__ZN22BlockMemoryCacheWriter11GetPathNameEv
Pgg:__ZL86SafeHandle_t2733794115_CustomAttributesCacheGenerator_SafeHandle_SetHandle_m1980208835P21CustomAttributesCache
_vd:__ZN14PhysicsManager23VirtualRedirectTransferER14SafeBinaryRead
Ahe:_DateTime_ToString_m3108726445_AdjustorThunk
hC:__ZN19CloudServiceHandlerD2Ev
zPa:__ZN13dynamic_arrayIN23ReflectionProbesContext23ReflectionProbeCubeInfoELj4EE18resize_initializedEjRKS1_12ResizePolicy
Nni:__ZNSt3__212system_errorC2ENS_10error_codeEPKc
v$e:_Array_InternalArray__get_Item_TisTableRange_t2011406615_m602485977_gshared
zzc:__ZN5physx7NpActor14onActorReleaseEPNS_7PxActorE
jTe:_ApplicationException__ctor_m1120437222
DJf:_MonoMethod__ctor_m4091684020
Yfc:__ZN5physx3Cct26CharacterControllerManager19computeInteractionsEfPNS_26PxControllerFilterCallbackE
Oo:stackAlloc
Koc:__ZN5physx6shdfnd8PoolBaseINS_2Cm5BlockIhLj256EEENS0_19ReflectionAllocatorIS4_EEE12allocateSlabEv
WUb:__Z44Camera_CUSTOM_INTERNAL_CALL_ScreenPointToRayP12Il2CppObjectRK8Vector3fR3Ray
gva:__ZN25SingleBlockMemoryFileData4LockEPPv
xta:__ZN12HandlerChain5TouchER13FileEntryData
QFf:_MethodBuilder_GetHashCode_m1713271764
l8g:_List_1__ctor_m310736118_gshared
lIe:_MSCompatUnicodeTable_GetResource_m3816716847
zof:_Interval_get_IsSingleton_m1888598248_AdjustorThunk
DWg:__Z49RuntimeInvoker_UInt16_t986882611_Int64_t909078037PK10MethodInfoPvPS2_
r_d:_Array_CreateInstance_m15016505
tci:_stat
Ki:_JS_Eval_ClearTimeout
vQh:__ZN24dense_hashtable_iteratorINSt3__24pairIK10KeyWrapperINS1_IP11Il2CppClassjEEES4_EES6_N6il2cpp8metadata14ArrayClassHashEN14dense_hash_mapIS6_S4_SB_NSA_17ArrayClassCompareENS0_9allocatorIS8_EEE9SelectKeyESD_SF_E30advance_past_empty_and_deletedEv
SYe:_Array_InternalArray__ICollection_CopyTo_TisUInt16_t986882611_m3228377237_gshared
cWf:_DefaultComparer_Compare_m2805784815_gshared
XUh:__ZN15dense_hashtableINSt3__24pairIK10KeyWrapperINS1_IPKcS4_EEEiEES6_24NamespaceAndNamePairHashN14dense_hash_mapIS6_iS9_26NamespaceAndNamePairEqualsNS0_9allocatorIS8_EEE9SelectKeyESB_SD_E14squash_deletedEv
Jca:__ZNSt3__218__insertion_sort_3IRNS_4lessIN22BuiltinResourceManager8ResourceEEEPS3_EEvT0_S7_T_
Fdd:__ZN5physx2Gu21findUniqueConvexEdgesEjPNS0_10ConvexEdgeEjPKNS0_15HullPolygonDataEPKh
Lhh:_Component_BroadcastMessage_m1308086896
CSc:__ZN5physx20NpRigidActorTemplateINS_14PxRigidDynamicEED0Ev
TId:_RC2_set_KeySize_m2015782960
ja:invoke_iiiiiiiiiiii
q8c:__ZN5physx43solveContactCoulombPreBlock_WriteBackStaticEPKNS_23PxcSolverConstraintDescEjRNS_16PxcSolverContextEPNS_25PxcThresholdStreamElementEjPi
Sre:_NumberFormatInfo_get_CurrencyGroupSeparator_m2480433019
uxd:__ZN10CastFilterD0Ev
SPe:_StrongName_get_PublicKey_m3777577320
N0f:_RuntimeCompatibilityAttribute__ctor_m1331212510
Ioc:__ZN5physx2Sc5Scene23allocateConstraintBlockEj
aWb:__Z43Register_UnityEngine_GameObject_SendMessagev
bsh:__ZN6il2cpp2vm17SetupFieldsLockedEP11Il2CppClassRKNS_2os12FastAutoLockE
eBe:_MonoIOStat_t1621921065_marshal_pinvoke
Ix:__ZN11AudioSourceD0Ev
Ypc:__ZN5physx2Sc5Actor15onElementDetachERNS0_7ElementE
B9g:_List_1_System_Collections_ICollection_CopyTo_m1530390632_gshared
CQf:_InternalEnumerator_1_System_Collections_IEnumerator_Reset_m3194282029_AdjustorThunk
hUa:__ZN16MemoryFileSystem4NameEv
Ky:__ZN11AudioSource16UpdateParametersE12SoundChannel
a2e:_PrimeGeneratorBase_get_PrimalityTest_m308005118
O9f:__ZL71Enum_t2459695545_CustomAttributesCacheGenerator_Enum_Format_m2294492821P21CustomAttributesCache
n9g:_List_1_CheckIndex_m2328469916_gshared
a4b:__ZN5physx3Cct13BoxController13setHalfHeightEf
L$c:__ZN5physx3Scb13ObjectTracker5clearEv
oTb:__Z42ScriptingGetComponentsOfTypeFromGameObjectRK26ScriptingGetComponentsArgs
hF:__ZN19CloudServiceHandler11FlushEventsEv
zfi:__ZNKSt3__26locale9use_facetERNS0_2idE
r5b:__ZL23GeomMTDCallback_BoxMeshRN5physx6PxVec3ERfRKNS_10PxGeometryERKNS_11PxTransformES5_S8_
Xee:_Convert_ToString_m2915777777
vIc:__ZNK5physx7NpCloth22getNbCollisionCapsulesEv
X2:__ZNSt3__27__sort4IRPFbRKNS_4pairIN9ShaderLab16FastPropertyNameEN18UnityPropertySheet11UnityTexEnvEEES8_EPS6_EEjT0_SD_SD_SD_T_
BGe:_MonoType_GetGenericTypeDefinition_m2363776160
Ofg:__ZL62ParameterAttributes_t1266705348_CustomAttributesCacheGeneratorP21CustomAttributesCache
A8e:_Context_set_SentConnectionEnd_m2641458842
ae:_emscripten_glBufferSubData
E1d:_Buffer_BlockCopyInternal_m2627156229
pub:__Z18Transfer_BlittableI17RemapPPtrTransferLb1EyEvRK29SerializationCommandArgumentsR31RuntimeSerializationCommandInfo
ntc:__ZN5physx6shdfnd5ArrayIPvNS0_15InlineAllocatorILj256ENS0_19ReflectionAllocatorINS_7NpShapeEEEEEE15growAndPushBackERKS2_
$3:__ZN6prcoreL12RemapGenericI15TexFormatRGB88817TexFormatARGB8888EEvPKNS_9InnerInfoE
MMa:__Z17CalculateGlobalRS23TransformAccessReadOnly
GLc:__ZN5physx22NpParticleBaseTemplateINS_15PxParticleFluidENS_15NpParticleFluidEE7releaseEv
h6h:__ZNSt3__210__list_impIPN6il2cpp5utils10MemoryPool6RegionENS_9allocatorIS5_EEE5clearEv
lgh:_Camera_ScreenPointToRay_m614889538
MKe:_Kernel_multiByteDivide_m735279869
uac:__ZNK5physx2Gu29EPASupportMapPairRelativeImplINS0_11ConvexHullVES2_E6getDirEv
q_f:_Dictionary_2_ToTValue_m542772656_gshared
TGd:__ZN23UnityPurchasingSettings10InitializeER6Object
gxg:_PatternCompiler_EncodeOp_m3006416096
Aza:_unity_z_deflateReset
olc:__ZN5physx2Sc19ContactReportBuffer23reallocateNotThreadSafeEjRjjj
Unc:__ZN5physx2Sc5Actor19registerInteractionEPNS0_11InteractionE
FFb:__ZN9ShaderLab16SerializedShader8TransferI18StreamedBinaryReadILb1EEEEvRT_
PCb:__ZN22MemoryCacherReadBlocks14LockCacheBlockEjPPhS1_
G0d:_Boolean_System_IConvertible_ToChar_m2637404801_AdjustorThunk
kQd:_SecurityContext_Capture_m2535194991
qIg:_UInt16_System_IConvertible_ToSByte_m3044765342_AdjustorThunk
a8f:__ZL47Byte_t3683104436_CustomAttributesCacheGeneratorP21CustomAttributesCache
XWe:_Array_InternalArray__IndexOf_TisLabelFixup_t4090909514_m2939738943_gshared
AYh:__ZN4utf88internal15increase_safelyIPKcEENS0_9utf_errorERT_S5_
DCd:__ZN13PhysicsModule19CreateNxHeightFieldEPv
NId:__Z21ArrayElementTypeCheckP11Il2CppArrayPv
rwi:_emscripten_glTexSubImage2D__wrapper
Qff:_NameValueCollection_AsSingleString_m10599052
gni:__ZNSt3__212basic_stringIcNS_11char_traitsIcEENS_9allocatorIcEEE6appendEjc
CHe:_Object_InternalGetHashCode_m1371384246
Sue:_Int32_System_IConvertible_ToSByte_m1449623243_AdjustorThunk
CSe:_AccessViolationException__ctor_m1270251537
WMc:__ZN5physx15NpParticleFluid2isENS_11PxActorType4EnumE
_Pc:__ZN5physx22NpParticleBaseTemplateINS_16PxParticleSystemENS_16NpParticleSystemEE11setGridSizeEf
v6g:_X509ExtensionCollection_IndexOf_m3972100651
Isb:__Z14resize_trimmedINSt3__26vectorI8MonoPPtr13stl_allocatorIS2_L18MemLabelIdentifier1ELi16EEEEEvRT_j
vZa:__ZN39AssetBundleLoadFromStreamAsyncOperation11GetProgressEv
Je:_TTF_RenderText_Solid
kJg:_UInt32_System_IConvertible_ToInt64_m3091851828
BEe:_MissingMethodException__ctor_m3898429715
Urf:_RemotingConfiguration_RegisterClientProviderTemplate_m514821425
jXf:_Enumerator_System_Collections_IEnumerator_Reset_m3085583937_gshared
DAg:__ZN23InterfaceActionInvoker5IDsDsbbbE6InvokeEjP11Il2CppClassPvDsDsbbb
n2g:__Z66RuntimeInvoker_ClientCertificateType_t4001384466_Int32_t2071877448PK10MethodInfoPvPS2_
aPe:_RSAManaged_ExportParameters_m2873993187
Tae:_Convert__cctor_m926133987
w_a:__ZN7Hash1288TransferI18StreamedBinaryReadILb1EEEEvRT_
cah:_Enumerator__ctor_m2816143215_AdjustorThunk
dHd:__ZN11UnityEngine7Connect16PersistentValuesC2Ev
alf:_X509Chain_FindParent_m404663796
zEe:_MissingMemberException__ctor_m2164043278
Rqh:__ZL7log2_32j
Smb:__ZN13EmscriptenWWW10OnProgressEPvjj
wub:__Z19TransferField_ArrayI17RemapPPtrTransfer27Converter_UnityEngineObjectEvRK23StaticTransferFieldInfoR31RuntimeSerializationCommandInfoRT0_
zWc:__ZNK5physx2Sc7BodySim13isConnectedToERKNS0_8RigidSimERb
Wjg:__ZL53HMACSHA384_t3026079344_CustomAttributesCacheGeneratorP21CustomAttributesCache
swe:_NumberFormatter_InitDecHexDigits_m1612588520
Xvd:__ZN14PhysicsManager23VirtualRedirectTransferER17RemapPPtrTransfer
rJb:__ZN15ApplicationInfo14GetSandboxTypeEv
hSd:_Single_GetHashCode_m3102305584_AdjustorThunk
sua:__Z20GetPathNameExtensionRKNSt3__212basic_stringIcNS_11char_traitsIcEENS_9allocatorIcEEEE
ff:_JS_SystemInfo_HasCursorLock
RCg:_UriParser_set_SchemeName_m3624672465
ks:__ZN4FMOD8ChannelI11EndCallbackEv
cNd:_ToBase64Transform_TransformBlock_m2201454137
Jph:_Enumerator_MoveNext_m3980662062
DGf:_OpCode_get_StackBehaviourPop_m3787015663_AdjustorThunk
nxg:_PatternCompiler_EmitCount_m3609178511
ybb:__ZN15QualitySettings23VirtualRedirectTransferER24GenerateTypeTreeTransfer
red:__ZN5physx2Gu32PCMConvexVsMeshContactGeneration35generateTriangleFullContactManifoldERNS0_9TriangleVEjPKjhRKNS0_13PolygonalDataEPNS0_16SupportLocalImplIS2_EEPNS0_12SupportLocalEPNS0_21MeshPersistentContactERjRKNS_6shdfnd3aos6FloatVERNSI_5Vec3VE
AMh:__ZN6il2cpp2os10FileHandleC2Ev
jXb:__Z59Register_UnityEngine_MonoBehaviour_Internal_CancelInvokeAllv
xlg:__ZL84Encoding_t663144255_CustomAttributesCacheGenerator_Encoding_GetByteCount_m4104502544P21CustomAttributesCache
Kqf:_ObjRef_set_TypeInfo_m1661789743
Kef:_HybridDictionary_Add_m1037587952
W8:__Z37GetBarycentricCoordinatesForOuterCellPPK8Vector3fRK13dynamic_arrayIS_Lj4EERS0_RK11TetrahedronR8Vector4fRf
JSh:__ZN6il2cpp6icalls8mscorlib6System10Reflection10MonoMethod29get_IsGenericMethodDefinitionEP22Il2CppReflectionMethod
pNh:__ZN6il2cpp2vm6Thread21AllocThreadStaticDataEi
Vbe:_DateTime_YearMonthDayFormats_m4204607055
sUh:__ZNK15dense_hashtableINSt3__24pairIK10KeyWrapperINS1_IPKcS4_EEEiEES6_24NamespaceAndNamePairHashN14dense_hash_mapIS6_iS9_26NamespaceAndNamePairEqualsNS0_9allocatorIS8_EEE9SelectKeyESB_SD_E12test_deletedERK24dense_hashtable_iteratorIS8_S6_S9_SF_SB_SD_E
bA:__Z13RegisterClassI13AudioListenerEvv
joh:_Aes__ctor_m4020215067
Z$b:__Z18Transfer_BlittableI9JSONWriteLb0E8Vector3fEvRK29SerializationCommandArgumentsR31RuntimeSerializationCommandInfo
Bnf:_Interpreter_Eval_m1448443064
Jf:_emscripten_glUniform4i
bkg:__ZL46MD5_t1507972490_CustomAttributesCacheGeneratorP21CustomAttributesCache
HMc:__ZNK5physx22NpParticleBaseTemplateINS_15PxParticleFluidENS_15NpParticleFluidEE11getGridSizeEv
vec:__ZN16RayRTreeCallbackILi0ELb1EED2Ev
Ue:_emscripten_glUniform4f
gba:__ZN6Object22CheckInstanceIDsLoadedEPii
nj:___unlock
n2h:_GC_default_oom_fn
Hwd:__ZN14SphereCollider10SmartResetEv
gTf:_InternalEnumerator_1_System_Collections_IEnumerator_Reset_m1561424184_AdjustorThunk
wei:__ZTv0_n12_NSt3__213basic_istreamIcNS_11char_traitsIcEEED1Ev
_6d:_Comparer_Compare_m4132969818
etf:_FormatterConverter__ctor_m3958982477
Uy:__ZN20SoundChannelInstance19setReverbPropertiesEP29FMOD_REVERB_CHANNELPROPERTIES
mUf:_InternalEnumerator_1_System_Collections_IEnumerator_Reset_m2571770313_AdjustorThunk
BHf:_FieldInfo_get_UMarshal_m1934544188
wTg:__Z68RuntimeInvoker_Void_t1841601450_IntPtr_t_MonoMethodInfoU26_t16045984PK10MethodInfoPvPS2_
MTh:__ZN6il2cpp2vm9Exception18GetFormatExceptionEPKc
z1g:__Z56RuntimeInvoker_Void_t1841601450_ResourceInfo_t3933049236PK10MethodInfoPvPS2_
Zhg:__ZL55IMessageSink_t2189618969_CustomAttributesCacheGeneratorP21CustomAttributesCache
zfc:__ZN5physx3Cct17CapsuleController15setClimbingModeENS_21PxCapsuleClimbingMode4EnumE
i6c:__ZN5physx6shdfnd9atomicAddEPVii
U4d:_ArrayList_Sort_m923359189
UMb:__ZN16ReflectionProbes15InitializeClassEv
U0c:__ZN5physx6shdfnd5ArrayINS_3Scb13MaterialEventENS0_19ReflectionAllocatorIS3_EEE6resizeEjRKS3_
msa:__ZN9GfxDevice31DrawIndexedNullGeometryIndirectE16GfxPrimitiveTypeP9GfxBuffer15ComputeBufferIDj
HPf:_InternalEnumerator_1_System_Collections_IEnumerator_get_Current_m3088751576_gshared
ecd:__ZNK5physx14SingleAABBTask25updateNumFastMovingShapesEv
yUg:__Z78RuntimeInvoker_Void_t1841601450_Int64_t909078037_Il2CppObject_Int64_t909078037PK10MethodInfoPvPS2_
lRe:_X509Certificate_GetSubjectName_m2120755276
cUc:__ZNK5physx2Cm12DelegateTaskINS_7NpSceneEXadL_ZNS2_12executeSolveEPNS_10PxBaseTaskEEEE7getNameEv
Mtg:__ZL58ResourceRequest_t2560315377_CustomAttributesCacheGeneratorP21CustomAttributesCache
vJf:_MonoField_CheckGeneric_m1527550038
ftd:__ZN5physx17ConvexMeshBuilder16computeGaussMapsEv
$Ne:_AttrListImpl_Add_m130708252
y2e:_ASN1_get_Value_m2229768312
_ib:__ZN11TimeManager6UpdateEv
mca:__ZN6Shader18LoadDefaultShadersEv
d6g:_X509Chain_get_Status_m2726750609
buc:__ZNK5physx2Sc16ArticulationCore22computeImpulseResponseERNS0_8BodyCoreERNS_6PxVec3ES5_RKNS_9PxcFsDataERKS4_SA_
Hfd:__ZN5physx21PxsBodyTransformVaultC2Ev
$ch:_ReadOnlyCollection_1_System_Collections_ICollection_CopyTo_m406069566_gshared
m5d:_ArrayListWrapper_Contains_m1158465965
gra:__ZN9GfxDevice12UpdateBufferEP9GfxBuffer13GfxBufferMode14GfxBufferLabeljPKvj
Cdd:__ZL6IsInYZffPPK10VertexInfo
W1e:_BigInteger_op_LessThan_m3825358479
$td:__ZN5physx19TriangleMeshBuilderD0Ev
Aci:_fflush
M8:__ZN17LightProbeContext4InitERK16LightmapSettingsRK14RenderSettings
U0d:_Convert_ToInt32_m55151042
vai:__GLOBAL__sub_I_Error_cpp
hIh:__ZN15dense_hashtableINSt3__24pairIK10KeyWrapperINS1_IPK10MethodInfoP11Il2CppClassEEEjEES9_17ReflectionMapHashIS8_EN14dense_hash_mapIS9_jSD_19ReflectionMapEqualsIS8_ENS0_9allocatorISB_EEE9SelectKeyESG_SI_E16reset_thresholdsEv
Dzg:_Alternation_GetWidth_m4218808325
c9:__ZN9Texture3DD2Ev
iag:__ZL80Il2CppArray_CustomAttributesCacheGenerator_Array_SetValue_m169741241____indices1P21CustomAttributesCache
A2:__ZN10ColorRGBAf8TransferI19StreamedBinaryWriteILb0EEEEvRT_
Tff:_TypeConverterAttribute__ctor_m4061167050
tGc:__ZN5physx2CmlsERNS0_12RenderOutputERKNS0_10DebugArrowE
QWh:__ZNSt3__26vectorI20Il2CppStackFrameInfoNS_9allocatorIS1_EEE7reserveEj
rHc:__ZNK5physx15NpActorTemplateINS_7PxClothEE14getOwnerClientEv
$Ba:__Z34ProcessIndexListIsNodeVisibleStep2RK22SceneCullingParametersPK9SceneNodePK4AABBR9IndexList
Mnb:__ZN10MonoScriptD2Ev
qJ:__ZL18AppendPathNameImplRKNSt3__212basic_stringIcNS_11char_traitsIcEENS_9allocatorIcEEEES7_cRS5_
NWc:__ZN5physx7NpScene15SceneCompletion11runInternalEv
eif:_WebHeaderCollection_Get_m3391944907
MK:__GLOBAL__sub_I_half_cpp
oWb:__Z39Input_CUSTOM_INTERNAL_get_mousePositionP8Vector3f
qsf:_ServerIdentity__ctor_m1576469955
cya:__ZN9ShaderLab4Pass16SetupPassOptionsEv
D5d:__ZN16VirtFuncInvoker0IP24ObjectU5BU5D_t3614634134E6InvokeEjPv
Veh:_UnityEvent_4__ctor_m3102731553_gshared
_g:_JS_Sound_ReleaseInstance
Mki:__ZNKSt3__27codecvtIDsc11__mbstate_tE16do_always_noconvEv
Fmd:__ZN5physx16PxsCCDBlockArrayINS_13PxsCCDOverlapELi128EE8pushBackEv
w1f:_InAttribute__ctor_m1401060713
Egi:__ZNSt3__214__scan_keywordINS_19istreambuf_iteratorIwNS_11char_traitsIwEEEEPKNS_12basic_stringIwS3_NS_9allocatorIwEEEENS_5ctypeIwEEEET0_RT_SE_SD_SD_RKT1_Rjb
gvi:_emscripten_glPixelStorei__wrapper
Vie:_Decimal_System_IConvertible_ToDecimal_m1541432424_AdjustorThunk
xzb:__Z29Transfer_Blittable_ArrayFieldI18StreamedBinaryReadILb0EEaEvRT_R9ArrayInfoRK23StaticTransferFieldInfo
EXb:__Z21Resources_CUSTOM_LoadP12Il2CppStringP12Il2CppObject
vm:FUNCTION_TABLE_diddi
yRh:__ZN6il2cpp6icalls8mscorlib6System5Array8FastCopyEP11Il2CppArrayiS5_ii
Gqd:__ZN5physx2Gu12TriangleMesh7releaseEv
Nte:_Int16_System_IConvertible_ToSingle_m3277935657_AdjustorThunk
pDh:__ZNSt3__26vectorIPK10MethodInfoNS_9allocatorIS3_EEE21__push_back_slow_pathIRKS3_EEvOT_
Hfh:_AttributeHelperEngine_CheckIsEditorScript_m2980171478
rdf:_SslStreamBase_get_KeyExchangeAlgorithm_m3712013038
p5f:_InternalRemotingServices__cctor_m3821625125
KXd:_StringBuilder_Insert_m3322917127
l3c:__ZN5physx14PxsAABBManagerD2Ev
qph:_ThreadAndSerializationSafe__ctor_m84326599
xde:_Convert_ToDouble_m3520060872
Aui:_emscripten_glUniform1f__wrapper
Gpi:dynCall_di
$bf:_SslCipherSuite_ComputeServerRecordMAC_m1876572367
X2c:__ZN5physx16PxsIslandManagerD2Ev
S2b:__Z28RegisterModule_JSONSerializev
xDg:_Interlocked_CompareExchange_m3227034792
czf:_HashAlgorithm_get_Hash_m931854461
oFh:_il2cpp_monitor_enter
scb:__ZN2UI13RectTransform8TransferI14SafeBinaryReadEEvRT_
ZRb:__Z20IsHumanControllingUsv
LRb:__ZNK11ICallStringcvNSt3__212basic_stringIcNS0_11char_traitsIcEENS0_9allocatorIcEEEEEv
Qdc:__ZN26IntersectAnyVsMeshCallbackILi1ELb1EED0Ev
Gwd:__ZN14SphereCollider5ResetEv
pHc:__ZNK5physx15NpActorTemplateINS_7PxClothEE17getDominanceGroupEv
UXa:__ZN10systeminfo21GetPersistentDataPathEv
mea:__ZN13GfxDeviceGLES17DestroyGpuProgramEPK10GpuProgram
Kre:_GregorianCalendar_GetMonth_m523739832
kIa:__ZNSt3__218__insertion_sort_3IR23CompareReflectionProbesP31RuntimeReflectionProbeBlendInfoEEvT0_S5_T_
tub:__ZN12NativeBufferI27Converter_SimpleNativeClassI8GradientEE15SetupForWritingER9ArrayInfo
uW:__ZN12_GLOBAL__N_113StaticDestroyEPv
mte:_Guid_ToString_m51661589
$Ih:__ZNK15dense_hashtableINSt3__24pairIK10KeyWrapperINS1_IPK11Il2CppImageP11Il2CppClassEEEjEES9_17ReflectionMapHashIS8_EN14dense_hash_mapIS9_jSD_19ReflectionMapEqualsIS8_ENS0_9allocatorISB_EEE9SelectKeyESG_SI_E10test_emptyERK24dense_hashtable_iteratorISB_S9_SD_SK_SG_SI_E
azi:_glUnmapBuffer__wrapper
Jge:_DateTime_System_IConvertible_ToUInt32_m1363211018_AdjustorThunk
cBf:_Binder_get_DefaultBinder_m965620943
Yec:__ZN5physx3Cct17CapsuleController11setPositionERKNS_14PxExtendedVec3E
n$b:__ZN8JSONRead21TransferSTLStyleArrayINSt3__26vectorI8Gradient13stl_allocatorIS3_L18MemLabelIdentifier1ELi16EEEEEEvRT_17TransferMetaFlags
aFa:__Z20scripting_object_newP11Il2CppClass
yjb:__ZNSt3__218__insertion_sort_3IRNS_6__lessINS_4pairIPKN5Unity4TypeE7Hash128EES8_EEPS8_EEvT0_SC_T_
evb:__ZN10RectOffset8TransferI24GenerateTypeTreeTransferEEvRT_
r$d:_SimpleEnumerator_get_Current_m482975946
ISb:__Z18GetResourceManagerv
jdi:_srand
BFe:_MonoTypeInfo__ctor_m1398838196
KFc:__ZN5physx7NpShape18setQueryFilterDataERKNS_12PxFilterDataE
SCg:_UriParser_set_DefaultPort_m1159216960
Nfh:_AudioClip_InvokePCMSetPositionCallback_Internal_m2304858844
kEd:__ZN11UnityEngine15PlatformWrapper25GetGraphicsRendererStringEv
fPg:__Z51RuntimeInvoker_UInt16_t986882611_Decimal_t724701077PK10MethodInfoPvPS2_
shd:__ZN5physx20PxcNpCacheStreamPair5resetEv
kMd:_SHA512_Create_m439875055
Hb:invoke_vi
cMd:_SHA384Managed_update_m2629600295
Fb:invoke_vd
Gb:invoke_vf
Vki:__ZNSt3__25ctypeIcED2Ev
wS:__ZNK10GameObject8IsActiveEv
VGe:_NumberFormatter__cctor_m1641464619
Rwf:_SByte_System_IConvertible_ToUInt32_m4256495110
Xma:__ZN18GfxFramebufferGLES23SetupDefaultFramebufferEPP17RenderSurfaceBaseS2_N2gl6HandleILNS3_10ObjectTypeE9EEE
Ici:_mbsinit
Suh:__ZN6il2cpp5utils11StringUtils4HashIcEEjPKT_j
Tvh:__ZNK15dense_hashtableINSt3__24pairIK10KeyWrapperI13dynamic_arrayIPK10Il2CppTypeLj4EEEPFvvEEES8_N6il2cpp8metadata19Il2CppSignatureHashEN14dense_hash_mapIS8_SB_SF_NSE_22Il2CppSignatureCompareENS0_9allocatorISC_EEE9SelectKeyESH_SJ_E12test_deletedERK30dense_hashtable_const_iteratorISC_S8_SF_SL_SH_SJ_E
Fpc:__ZN5physx2Sq16computeWorldAABBERKNS_3Scb5ShapeERKNS1_5ActorE
eI:__ZN13ScreenManager18RequestOrientationE17ScreenOrientation
Csh:__ZN6il2cpp2vm5Class12SetupMethodsEP11Il2CppClass
Obd:__ZN5physx14PxsAABBManager31updateAggregateBPOverlapRecordsEv
Zdc:__ZN26IntersectAnyVsMeshCallbackILi2ELb1EED0Ev
hG:__ZN13EmscriptenWWW14BlockUntilDoneEv
Jmi:__ZNSt3__214__shared_count16__release_sharedEv
WDh:__ZNSt3__26vectorIP11Il2CppClassNS_9allocatorIS2_EEE26__swap_out_circular_bufferERNS_14__split_bufferIS2_RS4_EE
R5f:_MethodCall__ctor_m4106494862
izd:__ZN5physx7profile10DataBufferINS_6shdfnd6MutexTINS0_26WrapperReflectionAllocatorIhEEEENS0_14ScopedLockImplIS6_EEED2Ev
Ia:invoke_iiifii
KOb:__ZN8GUILayer12AddToManagerEv
IDh:__ZN6il2cpp6icalls8mscorlib6System8MonoType13IsPointerImplEP20Il2CppReflectionType
hde:_Convert_ToDecimal_m2284596541
YEd:__ZN22BaseUnityConnectClient31DonePreparingOnMainThreadStaticEPv
Gi:_emscripten_glFramebufferRenderbuffer
asg:__ZL64CipherSuiteCollection_t2431504453_CustomAttributesCacheGeneratorP21CustomAttributesCache
vqi:dynCall_vid
oaf:_TlsServerCertificateRequest_ProcessAsSsl3_m3017921864
TIe:_SimpleCollator_FilterOptions_m4044781893
ijh:_AnimatorControllerPlayable_Equals_m2027287369_AdjustorThunk
dwe:_Int64_GetHashCode_m4047499913
XNa:__ZN9Transform30EnsureTransformHierarchyExistsEv
B0c:__ZN5physx2Sc14ConstraintCore15getPxConstraintEv
Nud:__ZNK8Collider12GetRigidbodyEv
S$d:_Attribute_IsDefined_m216577166
Jn:FUNCTION_TABLE_viiiiiiii
U3d:_Char_ToUpper_m109978609
KRf:_InternalEnumerator_1_get_Current_m1089848479_gshared
Dle:_Double_System_IConvertible_ToInt64_m3798425616
gJd:_Rijndael_Create_m113171669
vg:___cxa_find_matching_catch_4
$Wb:__ZN13MonoBehaviour13StopCoroutineEPKc
mrf:_ProviderData_CopyFrom_m431414335
Tbh:_Collection_1_System_Collections_IList_Insert_m3303840316_gshared
rQb:__ZN17TransformInternal36OnScaleChangedCalculateTransformTypeE15TransformAccess
wHf:__ZN18VirtActionInvoker5IP12Il2CppObjectS1_iP18Binder_t3404612058P23CultureInfo_t3500843524E6InvokeEjPvS1_S1_iS3_S5_
p6d:_SynchronizedArrayListWrapper_InsertRange_m709359548
Hva:__ZN17ArchiveFileSystem10ToAbsoluteEPKc
lGd:__ZN22CrashReportingSettings8TransferI19StreamedBinaryWriteILb0EEEEvRT_
Q1e:_BigInteger_op_Modulus_m13450242
Hoi:__ZNSt8bad_castC2Ev
oce:_DateTime__ctor_m3604679583
kac:__ZN25ConvexVsMeshSweepCallbackD2Ev
Zde:_Convert_ToInt32_m2988544165
qM:__ZN19ShaderPropertySheet20ReservePropertyCountEj
hYh:__ZN6il2cpp5utils11StringUtils6PrintfEPKcz
Yhc:__ZN16NovodexAllocatorD0Ev
Vqh:__ZN6il2cpp6icalls8mscorlib6System7Decimal13decimal2Int64EP19il2cpp_decimal_reprPx
klh:_Object_INTERNAL_CALL_Internal_InstantiateSingle_m3932420250
X3e:_PKCS1_Compare_m552424558
_Lf:_ResourceEnumerator__ctor_m1679839941
uKb:__ZN10MonoScript7PRODUCEE18MemLabelIdentifier18ObjectCreationMode
hza:_UNITY_png_zstream_error
oFf:_ILGenerator_make_room_m373147874
Kzd:__ZN5physx6shdfnd8PoolBaseINS_24NpPtrTableStorageManager8PtrBlockILi16EEENS0_19ReflectionAllocatorIS4_EEED2Ev
Q_f:_Dictionary_2_Init_m1045257495_gshared
yyi:_emscripten_glLinkProgram__wrapper
xsh:__ZN6il2cpp2vm5Class12GetFinalizerEP11Il2CppClass
N6g:_X509Extension_get_Oid_m3620527052
S6e:_TlsClientSettings_set_TargetHost_m3421266913
BOe:_PKCS1_Verify_v15_m2571212635
q5a:__ZNSt3__212__deque_baseI18ReflectionProbeJobNS_9allocatorIS1_EEED2Ev
aAc:__ZN5physx2Sc9ShapeCore23setSimulationFilterDataERKNS_12PxFilterDataE
nJa:__Z31GetInterpolatedLightAttenuationRK17LightProbeContextRK29LightProbeSamplingCoordinatesPK15SharedLightData
TVd:_DecoderReplacementFallbackBuffer__ctor_m1305504326
J0g:__Z84RuntimeInvoker_Int32_t2071877448_Il2CppObject_CustomAttributeNamedArgument_t94157543PK10MethodInfoPvPS2_
wTd:_String_IndexOf_m570401060
kme:_Enum_System_IConvertible_ToDateTime_m2924690746
EWa:__ZN11AssetBundle9AssetInfo8TransferI14SafeBinaryReadEEvRT_
Zyf:_HashAlgorithm_System_IDisposable_Dispose_m2106335965
_Vh:__GLOBAL__sub_I_GenericMetadata_cpp
QGe:_NotImplementedException__ctor_m1305569814
P0g:__Z59RuntimeInvoker_Int32_t2071877448_KeyValuePair_2_t1174980068PK10MethodInfoPvPS2_
sQ:__Z30scripting_class_is_subclass_ofP11Il2CppClassS0_
q4h:_setup_header
zBa:__Z24CalculateSpotLightBoundsffRK10Matrix4x4fR15SpotLightBounds
nIe:_TailoringInfo__ctor_m2248501932
rZ:__ZNK13RenderTexture21GetShadowSamplingModeEv
cC:__ZN23CloudWebServicesManager23VirtualRedirectTransferER14SafeBinaryRead
O5d:_FixedSizeArrayListWrapper_InsertRange_m2690348965
S$c:__ZNK5physx2Sc5Scene18getNbArticulationsEv
NAe:_MemoryStream_Read_m2289595005
hx:__ZN5audio5mixer22UpdateAudioMixerMemoryERKNS0_18AudioMixerConstantERNS0_16AudioMixerMemoryEfPN4FMOD6SystemEf
cDd:__ZL21InitializeCachedStripPv
eLd:_SignatureDescription_set_DigestAlgorithm_m3219799565
IQh:__ZN6il2cpp6icalls8mscorlib6System9Threading6Thread23GetCachedCurrentCultureEP12Il2CppThread
nCa:__ZNK6Camera22GetWorldToCameraMatrixEv
z$d:_ArrayTypeMismatchException__ctor_m2892687300
RVh:__ZN6il2cpp2vm12GenericClass11IsValueTypeEP18Il2CppGenericClass
d$e:_Dictionary_2_Do_CopyTo_TisKeyValuePair_2_t3716250094_TisIl2CppObject_m715850636_gshared
Eob:__ZN13MonoBehaviour7SetNameEPKc
O4e:_ContentInfo__ctor_m3579805263
v3c:__ZN5physx6shdfnd8PoolBaseINS_2Sc26ActorPairContactReportDataENS0_19ReflectionAllocatorIS3_EEE15disposeElementsEv
W7:__ZN18AwakeFromLoadQueue5ClearEv
tod:__ZN5physx6shdfnd5ArrayIfNS0_19ReflectionAllocatorIfEEE8recreateEj
TKa:__ZNSt3__27__sort5IR15ReflProbeSorterPP15ReflectionProbeEEjT0_S6_S6_S6_S6_T_
QPb:__ZN8Playable10DisconnectEPS_i
kk:_glGenTransformFeedbacks
Eba:__ZN13LoadOperationD2Ev
gNe:_KeyPairPersistence__ctor_m1817312194
a8c:__ZN5physx20PxsSolverCoreGeneral6createEv
lUe:_Array_InternalArray__ICollection_Contains_TisMark_t2724874473_m1640201705_gshared
X1f:_ActivatedClientTypeEntry_get_ContextAttributes_m53051138
Flc:__ZL29GeomOverlapCallback_SphereBoxRKN5physx10PxGeometryERKNS_11PxTransformES2_S5_PNS_2Gu12TriggerCacheE
cDf:_TypeBuilder_get_AssemblyQualifiedName_m2097258567
Y2:__ZNSt3__27__sort5IRPFbRKNS_4pairIN9ShaderLab16FastPropertyNameEN18UnityPropertySheet11UnityTexEnvEEES8_EPS6_EEjT0_SD_SD_SD_SD_T_
Pia:__ZNK7ApiGLES18GetExtensionStringEv
npa:__ZN31TransformFeedbackSkinPoseBufferD0Ev
Bui:_emscripten_glVertexAttrib1f__wrapper
OIb:__ZN18StreamedBinaryReadILb0EE19TransferSTLStyleMapINSt3__23mapI4PPtrI6ShaderE8UnityStrNS2_4lessIS6_EENS2_9allocatorINS2_4pairIKS6_S7_EEEEEEEEvRT_17TransferMetaFlags
svb:__Z18Transfer_BlittableI24GenerateTypeTreeTransferLb1E8Vector4fEvRK29SerializationCommandArgumentsR31RuntimeSerializationCommandInfo
Ysa:__ZNK12HandlerChain4SizeERK13FileEntryData
D$f:_DefaultComparer_Equals_m1281232537_gshared
wbg:__ZL99RuntimeFieldHandle_t2331729674_CustomAttributesCacheGenerator_RuntimeFieldHandle_Equals_m1202966418P21CustomAttributesCache
Mo:FUNCTION_TABLE_iiiiiiiii
RHc:__ZN5physx7NpCloth15setInertiaScaleEf
byf:_DES_IsSemiWeakKey_m3967392585
ZS:__Z24GetComponentOrScriptNameRN5Unity9ComponentE
Tte:_Int16_System_IConvertible_ToUInt32_m883204517_AdjustorThunk
rKf:_MonoProperty_get_PropertyType_m1921201152
Grd:__ZN5physx6shdfnd4sortIPvNS0_4LessIS2_EENS0_19ReflectionAllocatorIN17PxcPoolMallocData10PoolData16EEEEEvPT_jRKT0_RKT1_j
R8b:__Z19sweepBox_SphereGeomRKN5physx10PxGeometryERKNS_11PxTransformERKNS_2Gu3BoxERKNS_6PxVec3EfRNS_10PxSweepHitENS_7PxFlagsINS_9PxHitFlag4EnumEtEEf
M2h:_GC_allochblk
tDd:__ZN22BaseUnityConnectClient19SendAppRunningEventEv
Y7:__Z15UnloadGameScenev
Whi:__ZNKSt3__28time_getIwNS_19istreambuf_iteratorIwNS_11char_traitsIwEEEEE6do_getES4_S4_RNS_8ios_baseERjP2tmcc
Xyi:_glCheckFramebufferStatus__wrapper
zpd:__ZNK5physx13GuMeshFactory15getHeightFieldsEPPNS_13PxHeightFieldEjj
mtf:_BinaryCommon_IsPrimitive_m2132448955
sOd:__ZN16VirtFuncInvoker1IbP26X509Certificate_t283079845E6InvokeEjPvS1_
w7g:_KeyValuePair_2__ctor_m1640124561_AdjustorThunk
LUc:__ZN5physx2Cm20visualizeJointFramesERNS0_12RenderOutputEfRKNS_11PxTransformES5_
$6d:_CaseInsensitiveHashCodeProvider__ctor_m3775398833
bwg:__ZL85UnityEvent_3_t4075366600_CustomAttributesCacheGenerator_UnityEvent_3__ctor_m154939912P21CustomAttributesCache
kdd:__ZN5physx22PxcContactPlaneCapsuleERKNS_2Gu13GeometryUnionES3_RKNS_11PxTransformES6_RKfRNS_10PxcNpCacheERNS0_13ContactBufferE
eZ:__ZN7Texture5ResetEv
Iub:__Z18Transfer_BlittableI24GenerateTypeTreeTransferLb0E8Vector2fEvRK29SerializationCommandArgumentsR31RuntimeSerializationCommandInfo
HAb:__ZN6HelperI18StreamedBinaryReadILb1EE23TransferArrayField_InfoE24SerializationFunctionForERKS2_R23StaticTransferFieldInfoPb
Fvb:__Z18Transfer_BlittableI24GenerateTypeTreeTransferLb1EhEvRK29SerializationCommandArgumentsR31RuntimeSerializationCommandInfo
kcc:__ZN5physx2Gu26EPASupportMapPairLocalImplINS0_8CapsuleVENS0_4BoxVEED0Ev
vfc:__ZN5physx3Cct17CapsuleController9setRadiusEf
rNh:__ZNSt3__214__split_bufferIiRNS_9allocatorIiEEEC2EjjS3_
qWe:_Array_FindLastIndex_TisIl2CppObject_m3885928623_gshared
t0d:__ZN21InterfaceFuncInvoker1IyP12Il2CppObjectE6InvokeEjP11Il2CppClassPvS1_
Mmi:__ZnwjRKSt9nothrow_t
Ilb:__ZNSt3__26vectorIi13stl_allocatorIiL18MemLabelIdentifier12ELi16EEE8__appendEj
Bjf:_X500DistinguishedName_Decode_m3070515374
oXb:__Z45Register_UnityEngine_MonoBehaviour_IsInvokingv
kfi:__ZNKSt3__27collateIwE7do_hashEPKwS3_
TUg:__Z65RuntimeInvoker_Void_t1841601450_Int64_t909078037_Int64_t909078037PK10MethodInfoPvPS2_
hcg:__ZL72PKCS12_t1362584794_CustomAttributesCacheGenerator_U3CU3Ef__switchU24mapBP21CustomAttributesCache
Tuf:_ObjectManager_RaiseOnDeserializedEvent_m512850179
DEc:__ZN5physx9NpPhysics26unregisterDeletionListenerERNS_18PxDeletionListenerE
h0:__Z30GetBuiltinVectorParamArraySize24BuiltinShaderVectorParam
xGh:__ZNSt3__218uninitialized_copyIPNS_4pairIK10KeyWrapperINS1_IPK14Il2CppAssemblyP11Il2CppClassEEEjEESC_EET0_T_SE_SD_
$He:_CodePointIndexer__ctor_m797342079
$jg:__ZL61KeyedHashAlgorithm_t1374150027_CustomAttributesCacheGeneratorP21CustomAttributesCache
bKb:__Z13RegisterClassI15ResourceManagerEvv
exc:__ZNK5physx18NpArticulationLink15getArticulationEv
ovf:_SerializationEntry_t3485203212_marshal_pinvoke_back
zfb:__ZN14SafeBinaryRead21TransferSTLStyleArrayI13dynamic_arrayIfLj4EEEEvRT_17TransferMetaFlags
smg:__ZL79Thread_t241561612_CustomAttributesCacheGenerator_Thread_GetHashCode_m2038641494P21CustomAttributesCache
iYh:__ZN6il2cpp5utils11StringUtils11Utf16ToUtf8EPKDs
UIf:_MonoEventInfo_GetEventInfo_m2331957186
Nye:__ZN16VirtFuncInvoker2IxxiE6InvokeEjPvxi
xEd:__ZN11UnityEngine15PlatformWrapper20IsRootedOrJailbrokenEv
bkf:_X509Certificate2_GetNameInfo_m402390219
sBa:__Z33IntersectAABBPlaneBoundsOptimizedRK4AABBPKN4math7_float4Ei
w$d:_Swapper_BeginInvoke_m2652511022
v9e:_TlsClientCertificate_ProcessAsTls1_m1772516248
zea:__ZN9GfxDevice19EndGeometryJobFrameEv
qWg:__Z49RuntimeInvoker_SByte_t454417549_Int32_t2071877448PK10MethodInfoPvPS2_
Wge:_DateTime_get_UtcNow_m1309841468
Hxc:__ZN5physx2Sc15CoreInteraction17isCoreInteractionEPNS0_11InteractionE
p9h:__ZN6il2cpp8metadata24Il2CppGenericInstCompare7CompareERK10KeyWrapperIPK17Il2CppGenericInstES8_
Oyd:__ZThn132_N5physx7profile8ZoneImplINS_28PxProfileNameProviderForwardEED0Ev
b4b:__ZN5physx3Cct13BoxController17setHalfSideExtentEf
Oca:__ZNSt3__26vectorIPKN5Unity4TypeENS_9allocatorIS4_EEE8__appendEjRKS4_
D9e:_TlsClientSettings_get_ClientCertificate_m89435195
kWh:__ZN15dense_hashtableI10KeyWrapperIP18Il2CppGenericClassES3_N6il2cpp8metadata22Il2CppGenericClassHashEN14dense_hash_setIS3_S6_NS5_25Il2CppGenericClassCompareENSt3__29allocatorIS3_EEE8IdentityES8_SB_E8min_sizeEjj
w1g:__Z54RuntimeInvoker_Void_t1841601450_ILTokenInfo_t149559338PK10MethodInfoPvPS2_
Pzg:_AnchorInfo_get_IgnoreCase_m2406760852
dgb:__ZN17BlendShapeChannel8TransferI18StreamedBinaryReadILb1EEEEvRT_
tLb:__ZNK17AnimationCurveTplIfE8EvaluateEfPNS0_5CacheE
Rwa:__Z31ManagerContextInitializeClassesv
ZCh:__ZNSt3__213__vector_baseIP9FieldInfoNS_9allocatorIS2_EEED2Ev
Bcf:_TlsException_get_Alert_m4022765752
OSc:__ZNK5physx15NpActorTemplateINS_13PxRigidStaticEE8getSceneEv
J8h:__ZN6il2cpp6icalls8mscorlib6System7Runtime8Remoting10Activation18ActivationServices34AllocateUninitializedClassInstanceEP20Il2CppReflectionType
XLa:__Z20LightAttenuateApproxRKfS0_
It:__ZNK12AudioManager26GetTypeInfoVirtualInternalEv
Qwb:__Z18Transfer_BlittableI19StreamedBinaryWriteILb0EELb0EdEvRK29SerializationCommandArgumentsR31RuntimeSerializationCommandInfo
LVa:__ZN17LowLevelAllocator6MallocEj
jVd:_ASCIIEncoding_GetBytes_m3649277167
RNg:__Z49RuntimeInvoker_Char_t3454481338_Int32_t2071877448PK10MethodInfoPvPS2_
JZf:_Dictionary_2__ctor_m2457723796_gshared
m4f:_Context_GetProperty_m1664740450
s_f:__ZN16VirtFuncInvoker2IbiiE6InvokeEjPvii
Vof:_IntervalCollection_Normalize_m538796191
rF:__ZN11UnityEngine15CloudWebService17WebFileDownloaderINS0_13WWWRestClientENS0_16WWWRestHeaderMapEE10InitializeERK8UnityStr
HLg:_Version__ctor_m2972638031
rIc:__ZN5physx7NpCloth19setCollisionSpheresEPKNS_22PxClothCollisionSphereEj
sLe:_Kernel_MultiplyByDword_m155008287
Ceb:__ZN4MeshD0Ev
LHd:__ZL42RequestRecreateEyeTexturesBeforeNextUpdatev
Uic:__ZN5physx6shdfnd8internal8HashBaseIPNS_3Scb4BaseES5_NS0_4HashIS5_EENS1_11HashSetBaseIS5_S7_NS0_9AllocatorELb1EE6GetKeyES9_Lb1EE6createERKS5_Rb
g$:__ZNK6Camera20IsCurrentlyRenderingEv
Ndf:_SslStreamBase_Read_m1036897444
qkg:__ZL58RijndaelManaged_t1034060848_CustomAttributesCacheGeneratorP21CustomAttributesCache
UZh:__ZN15dense_hashtableINSt3__24pairIK10KeyWrapperIP14Il2CppIUnknownEjEES5_N6il2cpp5utils11PointerHashIS3_EEN14dense_hash_mapIS5_jSB_NS0_8equal_toIS5_EENS0_9allocatorIS7_EEE9SelectKeyESE_SG_E9copy_fromERKSJ_j
u0b:__Z18Transfer_BlittableI9JSONWriteLb0EdEvRK29SerializationCommandArgumentsR31RuntimeSerializationCommandInfo
r1a:__ZN6Camera8TransferI19StreamedBinaryWriteILb0EEEEvRT_
QBe:_TextReader__ctor_m3276128267
b9g:_List_1_System_Collections_Generic_ICollectionU3CTU3E_get_IsReadOnly_m3598018290_gshared
Gdh:_ReadOnlyCollection_1_System_Collections_IList_Insert_m3679749778_gshared
pbi:_wctomb
ZUb:__Z27Camera_CUSTOM_GetAllCamerasP11Il2CppArray
ly:__ZN20SoundChannelInstanceD0Ev
poi:__ZNSt11logic_errorD0Ev
Uae:_Convert_InternalFromBase64String_m3682756716
Pc:___cxa_rethrow
uqd:__ZN5physx20InternalTriangleMesh17allocateFaceRemapEv
H_b:__Z18Transfer_BlittableI8JSONReadLb1EhEvRK29SerializationCommandArgumentsR31RuntimeSerializationCommandInfo
pGh:__ZN15dense_hashtableINSt3__24pairIK10KeyWrapperINS1_IPK14Il2CppAssemblyP11Il2CppClassEEEjEES9_17ReflectionMapHashIS8_EN14dense_hash_mapIS9_jSD_19ReflectionMapEqualsIS8_ENS0_9allocatorISB_EEE9SelectKeyESG_SI_E9copy_fromERKSL_j
Hui:_glBindRenderbuffer__wrapper
LSb:__ZN10systeminfo23SupportsLocationServiceEv
kzg:_Regex_System_Runtime_Serialization_ISerializable_GetObjectData_m4035555909
EFg:_TimeSpan_Add_m3228293154
Kph:_Enumerator_Reset_m950879083
QNf:_ArrayReadOnlyList_1_GetEnumerator_m3821693737_gshared
t4e:_RC4__cctor_m523650203
_Xc:__ZNK5physx7NpScene26getBounceThresholdVelocityEv
z2c:__ZN5physx6shdfnd8PoolBaseINS_2Sc12SimStateDataENS0_19ReflectionAllocatorIS3_EEE15disposeElementsEv
T4f:_CrossContextDelegate_Invoke_m2908136830
Mnh:_Locale_GetText_m3480617287
mTe:_ApplicationIdentity_ToString_m800036884
oI:__ZN20LocalFileSystemPosix4ReadER13FileEntryDatayyPvPy
dJa:__ZNSt3__211__sift_downIRN23ForwardShaderRenderLoop18RenderObjectSorterILb0EEEP21ForwardRenderPassDataEEvT0_S7_T_NS_15iterator_traitsIS7_E15difference_typeES7_
uya:__Z20PlayerUpdateCanvasesv
Gth:__ZN15dense_hashtableINSt3__24pairIK10KeyWrapperIPK19Il2CppGenericMethodEPK26Il2CppGenericMethodIndicesEES6_N6il2cpp8metadata23Il2CppGenericMethodHashEN14dense_hash_mapIS6_SA_SE_NSD_26Il2CppGenericMethodCompareENS0_9allocatorISB_EEE9SelectKeyESG_SI_E5clearEv
SDe:_UnmanagedMemoryStream_get_Position_m4093669769
kDd:__ZN22BaseUnityConnectClient22OnRestoreFileAsyncDoneERK8UnityStrS2_b
Vob:__ZN13MonoBehaviour5DoGUIENS_13GUILayoutTypeEii
A1e:_Kernel_Multiply_m1938858919
_Ua:__ZNK12TLSAllocatorI14StackAllocatorE8ContainsEPKv
bjb:__ZN11TimeManager8TransferI18StreamedBinaryReadILb0EEEEvRT_
COe:_EncryptedPrivateKeyInfo__ctor_m3964541963
myf:_DESTransform__cctor_m1179482644
Z$f:_EqualityComparer_1_System_Collections_IEqualityComparer_GetHashCode_m1465362976_gshared
Vlh:_Object_t1021602117_marshal_pinvoke_cleanup
Teb:__ZN14BlendShapeData8TransferI14SafeBinaryReadEEvRT_
q9b:__ZN5physx2Gu15getPolygonIndexERKNS0_13PolygonalDataEPNS0_12SupportLocalERKNS_6shdfnd3aos5Vec3VE
vme:_Enum_Format_m2294492821
sjd:__ZN5physx36normalizePartitionsWithArticulationsERNS_6shdfnd5ArrayIjNS0_19ReflectionAllocatorIjEEEEPNS_23PxcSolverConstraintDescEPKNS_13PxcSolverBodyEjjS5_Pjj
nng:__ZL81Convert_t2607082565_CustomAttributesCacheGenerator_Convert_ToDateTime_m3810846875P21CustomAttributesCache
b7a:__ZN7Texture25ReloadFromStorageIfNeededEPvb
fmb:__ZN24GenerateTypeTreeTransfer8TransferINSt3__26vectorIN30RuntimeInitializeOnLoadManager15ClassMethodInfoE13stl_allocatorIS4_L18MemLabelIdentifier12ELi16EEEEEEvRT_PKc17TransferMetaFlags
u$c:__ZN5physx2Sq17SceneQueryManager17processSimUpdatesEv
j7e:__ZN18VirtActionInvoker1IhE6InvokeEjPvh
phe:_DateTime_CheckDateTimeKind_m329345155_AdjustorThunk
HRh:__ZN6il2cpp6icalls8mscorlib6SystemL15ThrowNoWideningEv
$sc:__ZN5physx6shdfnd5ArrayIPvNS0_19ReflectionAllocatorINS_13NpRigidStaticEEEE15growAndPushBackERKS2_
spi:dynCall_viiiiiiiiiii
B_c:__ZN5physx10PxsContext25setVisualizationParameterENS_24PxVisualizationParameter4EnumEf
_Va:__ZL10KeyHandleriPK23EmscriptenKeyboardEventPv
Mvd:__ZN8Collider16TransformChangedEi
h9b:__ZN24ConvexVsHeightfieldSweepC2ERN5physx2Gu15HeightFieldUtilERKNS1_14ConvexHullDataERKNS0_11PxMeshScaleERKNS0_11PxTransformESC_RKNS0_6PxVec3EfNS0_7PxFlagsINS0_9PxHitFlag4EnumEtEEfbb
Afh:_AsyncOperation_get_allowSceneActivation_m2825451182
dGg:_TimeSpan_op_Addition_m3421801803
dHh:__ZNK15dense_hashtableINSt3__24pairIK10KeyWrapperINS1_IPK9FieldInfoP11Il2CppClassEEEjEES9_17ReflectionMapHashIS8_EN14dense_hash_mapIS9_jSD_19ReflectionMapEqualsIS8_ENS0_9allocatorISB_EEE9SelectKeyESG_SI_E10test_emptyERK30dense_hashtable_const_iteratorISB_S9_SD_SK_SG_SI_E
wtb:__ZL26Transfer_SimpleNativeClassI17RemapPPtrTransfer10RectOffsetLb0EEvRK29SerializationCommandArgumentsR31RuntimeSerializationCommandInfo
OOb:__ZN16GraphicsSettings12CleanupClassEv
Bpd:__ZN5physx13GuMeshFactory17createHeightFieldERNS_13PxInputStreamE
x9g:_List_1__ctor_m2672294496_gshared
rge:_DateTime_System_IConvertible_ToInt32_m2789391054_AdjustorThunk
dMe:_ASN1Convert_FromInt32_m1541043489
Bbe:_Convert_ToByte_m1008221737
t3e:_MD2Managed_MD2Transform_m3825201358
c9a:__ZN21EnlightenSceneMapping16BuildRemapTablesEv
Xgc:__ZNK5physx2Cm12RenderBuffer8getTextsEv
TEb:__ZNSt3__26vectorIN9ShaderLab20SerializedSubProgram13BufferBindingENS_9allocatorIS3_EEEC2ERKS6_
yCb:__ZNSt3__26vectorI4PPtrI10MonoScriptE13stl_allocatorIS3_L18MemLabelIdentifier76ELi16EEE8__appendEj
R$:__ZNK9ShaderLab20ShaderBlendStateDesc15ToGfxBlendStateEPK19ShaderPropertySheetS3_R13GfxBlendState
Qcg:__ZL92Hashtable_t909839986_CustomAttributesCacheGenerator_Hashtable_t909839986____hcp_PropertyInfoP21CustomAttributesCache
G4c:__ZN5physx2Sq8AABBTree11shiftOriginERKNS_6PxVec3E
UAc:__ZNK5physx2Sc16ArticulationCore26getMaxProjectionIterationsEv
uIb:__ZN9ShaderLab9IntShaderC2Ev
PDh:__ZN6il2cpp6icalls8mscorlib6SystemL9IsPrivateEPK9EventInfo
b7h:__ZN6il2cpp6icalls8mscorlib6System10Reflection4Emit11TypeBuilder20setup_internal_classEP27Il2CppReflectionTypeBuilderS7_
wsd:__ZN5physx11AdjacenciesD2Ev
_Pf:_InternalEnumerator_1_System_Collections_IEnumerator_Reset_m3237341717_AdjustorThunk
aVc:__ZN5physx6shdfnd8PoolBaseINS_2Sc24ElementInteractionMarkerENS0_19ReflectionAllocatorIS3_EEE12allocateSlabEv
$3c:__ZN5physx2Sq16BucketPrunerCore11shiftOriginERKNS_6PxVec3E
RNf:_ArrayReadOnlyList_1_IndexOf_m1809425308_gshared
$0g:__Z61RuntimeInvoker_Int32_t2071877448_ResourceCacheItem_t333236149PK10MethodInfoPvPS2_
WEh:_il2cpp_gc_disable
t1g:__Z72RuntimeInvoker_Void_t1841601450_CustomAttributeTypedArgument_t1498197914PK10MethodInfoPvPS2_
Okf:_X509Chain_GetSubjectKeyIdentifier_m4232927227
Ifi:__ZNKSt3__27num_getIcNS_19istreambuf_iteratorIcNS_11char_traitsIcEEEEE23__do_get_floating_pointIeEES4_S4_S4_RNS_8ios_baseERjRT_
M8d:_Hashtable_Clone_m165405752
UCf:_TypeBuilder_get_Name_m170882803
P_c:__ZN5physx6shdfnd5ArrayIPNS_3Scb5ShapeENS0_19ReflectionAllocatorIS4_EEE6resizeEjRKS4_
b_:__ZN11NamedObject8TransferI18StreamedBinaryReadILb1EEEEvRT_
tgc:__ZN5physx3Cct15ObstacleContextD2Ev
Nhh:_Component_BroadcastMessage_m444672650
XDd:__ZN11UnityEngine15PlatformWrapper19GetPhysicalMemoryMBEv
Y8:__Z21CalculateGlobalMatrix23TransformAccessReadOnly
psh:__ZN13dynamic_arrayIP11Il2CppClassLj4EE4backEv
Lbg:__ZL70InternalsVisibleToAttribute_t1037732567_CustomAttributesCacheGeneratorP21CustomAttributesCache
oye:_MonoIO_GetCurrentDirectory_m1509324201
fMd:_SHA384Managed_adjustByteCounts_m410900820
rYd:_UTF32Encoding_GetHashCode_m4205784236
x8e:_Context_get_ReceivedConnectionEnd_m3369356276
k5c:__ZN5physx2Cm10FanoutTaskC2EPKc
TPb:__ZN8Playable22ScheduleForDestructionEv
J1c:__ZNK5physx2Sc5Scene17prefetchForRemoveERKNS0_8BodyCoreE
$Jb:__Z13RegisterClassI14RenderSettingsEvv
aGg:_TimeSpan_Subtract_m3597791685_AdjustorThunk
yqc:__ZN5physx2Sc8RigidSimD2Ev
LIf:_MonoCMethod_get_Name_m764669486
LBb:__Z29Transfer_Blittable_ArrayFieldI18StreamedBinaryReadILb1EE5RectTIfEEvRT_R9ArrayInfoRK23StaticTransferFieldInfo
HIh:__ZNK15dense_hashtableINSt3__24pairIK10KeyWrapperINS1_IPK11Il2CppImageP11Il2CppClassEEEjEES9_17ReflectionMapHashIS8_EN14dense_hash_mapIS9_jSD_19ReflectionMapEqualsIS8_ENS0_9allocatorISB_EEE9SelectKeyESG_SI_E12test_deletedERK30dense_hashtable_const_iteratorISB_S9_SD_SK_SG_SI_E
wih:_Logger__ctor_m3834134587
a_c:__ZNK5physx13NpVolumeCache7raycastERKNS_6PxVec3ES3_fRNS_13PxHitCallbackINS_12PxRaycastHitEEENS_7PxFlagsINS_9PxHitFlag4EnumEtEERKNS_17PxQueryFilterDataEPNS_21PxQueryFilterCallbackE
Xea:__ZNK9GfxDevice27GetActiveRenderSurfaceWidthEv
qWa:__ZNK11AssetBundle26GetTypeInfoVirtualInternalEv
YKh:__ZN13Il2CppHashMapINSt3__24pairIPK10MethodInfoP11Il2CppClassEEj17ReflectionMapHashIS7_E19ReflectionMapEqualsIS7_ENS0_9allocatorINS1_IK10KeyWrapperIS7_EjEEEEEC2EjRKS9_RKSB_
Gfd:__ZN5physx16PxsIslandManagerC2EjRNS_19PxcScratchAllocatorEPNS_2Cm13EventProfilerE
mEd:__ZN11UnityEngine15PlatformWrapper28GetCleanGraphicsFixedVersionEv
Nbb:__ZN15QualitySettings14QualitySetting8TransferI18StreamedBinaryReadILb1EEEEvRT_
XTa:__ZN16MemoryFileSystem5WriteER13FileEntryDatayyPvPy
v:tempBigIntP
rOh:__ZN6il2cpp2vm4Type7GetTypeEPK10Il2CppType
Rof:_Interval_t2354235237_marshal_pinvoke_cleanup
xcd:__ZN5physx13ActorAABBTask11runInternalEv
B$d:_AssemblyLoadEventHandler_Invoke_m108373765
Vli:__ZNSt3__26locale5__imp7installINS_7codecvtIwc11__mbstate_tEEEEvPT_
Qzh:__ZL24UnresolvedVirtualCall_76P12Il2CppObjectPK10MethodInfo
a5:__ZN6prcoreL17RemapGenericFloatI18TexFormatRGBAFloat17TexFormatRGBAHalfEEvPKNS_9InnerInfoE
LGc:__ZN5physx7PxShapeD0Ev
VBc:__ZN16PxOverflowBufferIN5physx12PxOverlapHitEED0Ev
sRc:__ZN5physx14NpRigidDynamic18setKinematicTargetERKNS_11PxTransformE
CPh:__ZNK15dense_hashtableINSt3__24pairIK10KeyWrapperIP11Il2CppClassES4_EES5_N6il2cpp8metadata16SZArrayClassHashEN14dense_hash_mapIS5_S4_SA_NS9_19SZArrayClassCompareENS0_9allocatorIS7_EEE9SelectKeyESC_SE_E5beginEv
X8a:__ZN10GISettings8TransferI14SafeBinaryReadEEvRT_
mn:FUNCTION_TABLE_vifff
emh:_Physics_Raycast_m4027183840
n$a:__ZN12ImmediatePtrI10GameObjectE8TransferI18StreamedBinaryReadILb1EEEEvRT_
qZ:__ZN13RenderTexture13ApplySettingsEv
Slg:__ZL92UTF8Encoding_t111055448_CustomAttributesCacheGenerator_UTF8Encoding_GetByteCount_m2547312609P21CustomAttributesCache
Ne:_JS_Sound_SetListenerPosition
dn:FUNCTION_TABLE_fiffi
sGf:_ModuleBuilderTokenGenerator_GetToken_m3427457873
uoc:__ZN5physx2Sc11Interaction12onDeactivateEj
Kkh:_Mesh_set_triangles_m3244966865
LHc:__ZN5physx7NpCloth21setLinearInertiaScaleENS_6PxVec3E
Vng:__ZL78Convert_t2607082565_CustomAttributesCacheGenerator_Convert_ToSByte_m2585959569P21CustomAttributesCache
fwi:_glGetActiveUniform__wrapper
gLg:_UnauthorizedAccessException__ctor_m3480402128
pLe:_BigInteger_op_Modulus_m3788401748
u5f:_ArgInfo_GetInOutArgs_m3184132151
Zeb:__ZN4Mesh14ResizeVerticesEjjjRK20VertexChannelsLayoutRK19VertexStreamsLayout
K_g:__Z74RuntimeInvoker_Vector3_t2243707580_Vector3_t2243707580_Vector3_t2243707580PK10MethodInfoPvPS2_
omg:__ZL85Thread_t241561612_CustomAttributesCacheGenerator_Thread_get_CurrentThread_m3667342817P21CustomAttributesCache
iu:__ZN4FMOD6System12createReverbEPPNS_6ReverbE
$Bd:__ZN17TriggerStayStates20executeDeferredEraseEv
S5:__ZN6prcoreL27StretchGenericFloatBilinearI15TexFormatRGHalfEEvPKNS_9InnerInfoE
$vg:__ZL85UnityEvent_1_t4075366602_CustomAttributesCacheGenerator_UnityEvent_1__ctor_m152711818P21CustomAttributesCache
_7g:_Enumerator_MoveNext_m598197344_AdjustorThunk
Eih:_DisplaysUpdatedDelegate_Invoke_m3646339243
Qbd:__ZN5physx14PxsAABBManager22processAggregateSingleERKNS_19AggregateSortedDataERKNS_9AggregateEjPNS_2Cm10BitMapBaseINS_6shdfnd9AllocatorEEE
eUd:_String_JoinUnchecked_m1880555587
wT:__ZN13RuntimeStaticI19UnityPluginRegistryE16StaticInitializeEPv
i0:__ZNK9ShaderLab7Program21GetMatchingSubProgramEPK6ShaderPKNS_4PassERK16ShaderKeywordSetjPS7_R19ShaderSnippetResult
fZe:_Array_InternalArray__Insert_TisKeyValuePair_2_t1174980068_m2464431954_gshared
Bgd:__ZN5physx2Sc17ParticleSystemSim20scheduleCollisionCpuERNS0_16InteractionSceneERKNS_6shdfnd5ArrayIPS1_NS4_19ReflectionAllocatorIS6_EEEERNS_10PxBaseTaskE
yU:__Z18GetITerrainManagerv
u_f:_Dictionary_2_U3CCopyToU3Em__0_m1479035402_gshared
I6d:_BitArray_set_Item_m3801461194
OTd:_String_Remove_m3580114465
l9e:_TlsClientCertificate_Update_m3781462820
bHb:__ZN9ShaderLab22SerializedBindChannels8TransferI19StreamedBinaryWriteILb0EEEEvRT_
JW:__Z33InitializeWebGLPersistentDataPathRKNSt3__212basic_stringIcNS_11char_traitsIcEENS_9allocatorIcEEEE
Xhf:_WebHeaderCollection_AddWithoutValidate_m1479880592
e2f:_UrlAttribute_get_UrlValue_m3448699483
JLc:__ZN5physx15NpParticleFluidD0Ev
JKg:_UIntPtr__ctor_m2737768530
Rxb:__Z29Transfer_Blittable_ArrayFieldI19StreamedBinaryWriteILb0EE11ColorRGBA32EvRT_R9ArrayInfoRK23StaticTransferFieldInfo
AYb:__Z50Register_UnityEngine_Object_FindSceneObjectsOfTypev
fyd:__ZN5physx7profile8ZoneImplINS_28PxProfileNameProviderForwardEE19handleClientRemovedEv
_dh:_Nullable_1__ctor_m796575255_gshared
L1h:__ZN6il2cpp2vm8Profiler7GCEventE13Il2CppGCEvent
Bge:_DateTimeUtils_ToString_m3878360633
GRh:__ZN6il2cpp6icalls8mscorlib6SystemL16ThrowInvalidCastEPK11Il2CppClassS5_
lkb:__ZN12AspectRatios8TransferI24GenerateTypeTreeTransferEEvRT_
h6e:_Context_get_ServerWriteIV_m2960700649
u6b:__ZN37ConvexVsMeshContactGenerationCallback10processHitERKN5physx12PxRaycastHitERKNS0_6PxVec3ES6_S6_RfPKj
Ef:_emscripten_glUniform1fv
dZa:__ZNK17FileSystemHandler8IsHiddenERK13FileEntryData
Rrh:__ZN6il2cpp2vm5Class13GetArrayClassEP11Il2CppClassj
Vu:__ZN4FMOD7Channel7setModeEj
_F:__ZN13EmscriptenWWW6CancelEv
jef:_TlsStream_SetLength_m1460039587
Zyh:__ZL24UnresolvedVirtualCall_31P12Il2CppObjectiS0_S0_PK10MethodInfo
gb:invoke_difi
dvi:_glDeleteSamplers__wrapper
hU:__ZL50StaticRegisterSceneLoadedCallback_LightmapSettingsPv
Y5d:_SimpleEnumerator_Clone_m215554974
D8h:__ZN6il2cpp5utils9PathUtils13DirectoryNameERKNSt3__212basic_stringIcNS2_11char_traitsIcEENS2_9allocatorIcEEEE
JGa:__ZN29MotionVectorRenderLoopScratch15ThreadedCleanupEv
Gm:FUNCTION_TABLE_iiffi
iIc:__ZNK5physx7NpCloth24getSeparationConstraintsEPNS_35PxClothParticleSeparationConstraintE
AUg:__Z81RuntimeInvoker_Boolean_t3825574718_SByte_t454417549_Il2CppObject_SByte_t454417549PK10MethodInfoPvPS2_
Z2g:__Z44RuntimeInvoker_ParameterModifier_t1820634920PK10MethodInfoPvPS2_
rja:__ZN21GLESGpuProgramApplier11ApplyVectorERKN20GpuProgramParameters14ValueParameterEPK8Vector4ft
QAa:__Z17PrepareSceneNodesP11CullResults
jqh:_Vector4_ToString_m2340321043_AdjustorThunk
GO:__ZN19RuntimeSceneManager19UnloadSceneInternalEP10UnityScene
P5:__ZN6prcoreL27StretchGenericFloatBilinearI18TexFormatRGBAFloatEEvPKNS_9InnerInfoE
iBg:_Parser_IsIgnoreCase_m4155598997
Oki:__ZNKSt3__27codecvtIDsc11__mbstate_tE13do_max_lengthEv
jjd:__ZN5physx6shdfnd5ArrayINS_17PxcSolverBodyDataENS0_16AlignedAllocatorILj128ENS0_19ReflectionAllocatorIS2_EEEEE6resizeEjRKS2_
J4b:__ZN5physx2Cm12RenderOutputlsEj
TQa:__ZN6Camera34UpdatePreviousViewProjectionMatrixEv
l0:__ZN9ShaderLab11ShaderState25RemoveUnsupportedProgramsEPK6Shader
PHb:__ZL23AddGpuProgramParametersR20GpuProgramParametersRKNSt3__26vectorIN9ShaderLab20SerializedSubProgram15MatrixParameterENS1_9allocatorIS5_EEEERKNS2_INS4_15VectorParameterENS6_ISB_EEEEiP16PropertyNamesSet
sYb:__Z44Register_UnityEngine_Object_DestroyImmediatev
JUh:__ZN15dense_hashtableINSt3__24pairIK10KeyWrapperINS1_IPKcS4_EEEiEES6_24NamespaceAndNamePairHashN14dense_hash_mapIS6_iS9_26NamespaceAndNamePairEqualsNS0_9allocatorIS8_EEE9SelectKeyESB_SD_E5clearEv
ndg:__ZL57CompareOptions_t2829943955_CustomAttributesCacheGeneratorP21CustomAttributesCache
DVb:__Z47Register_UnityEngine_Component_BroadcastMessagev
Gq:__ZN18StreamedBinaryReadILb0EE21TransferSTLStyleArrayI13dynamic_arrayI4PPtrI6ObjectELj4EEEEvRT_17TransferMetaFlags
Ygg:__ZL62_ConstructorBuilder_t1236878896_CustomAttributesCacheGeneratorP21CustomAttributesCache
Lff:_NameValueCollection__ctor_m1767369537
Kve:_Int64_System_IConvertible_ToInt16_m2022633688_AdjustorThunk
PHe:_OrdinalComparer__ctor_m2952942058
Jvh:__ZN15dense_hashtableINSt3__24pairIK10KeyWrapperI13dynamic_arrayIPK10Il2CppTypeLj4EEEPFvvEEES8_N6il2cpp8metadata19Il2CppSignatureHashEN14dense_hash_mapIS8_SB_SF_NSE_22Il2CppSignatureCompareENS0_9allocatorISC_EEE9SelectKeyESH_SJ_E4findERS9_
RQd:_Encoding_get_Unicode_m1382741113
G3f:_LifetimeServices_set_SponsorshipTimeout_m1403222216
sW:__ZN13RuntimeStaticI12AdsIdHandlerE10InitializeEv
ose:_NumberFormatInfo_get_PositiveSign_m3396333026
SRg:__Z64RuntimeInvoker_Single_t2076509932_Il2CppObject_Int32_t2071877448PK10MethodInfoPvPS2_
Z3d:_Char_ToString_m1401375624_AdjustorThunk
vXe:_Array_InternalArray__ICollection_Add_TisTableRange_t2011406615_m147373358_gshared
Hce:_Convert_ToDateTime_m1251728572
DHc:__ZN5physx7NpCloth13setTargetPoseERKNS_11PxTransformE
xXe:_Array_InternalArray__ICollection_Add_TisBoolean_t3825574718_m1009318882_gshared
suf:_ObjectReader_ReadObjectContent_m3949770110
kDg:__ZN16VirtFuncInvoker0I8IntPtr_tE6InvokeEjPv
Jhh:_Component_SendMessage_m4199581575
D5f:_AsyncResult_get_NextSink_m1172723924
eFb:__ZNSt3__26__treeINS_12__value_typeI8UnityStriEENS_19__map_value_compareIS2_S3_NS_4lessIS2_EELb1EEENS_9allocatorIS3_EEE12__find_equalIS2_EERPNS_16__tree_node_baseIPvEESG_RKT_
RMh:__GLOBAL__sub_I_Thread_cpp
Eqh:__ZL9rshift128PyS_
MXh:__ZN15dense_hashtableINSt3__24pairIK10KeyWrapperIP12Il2CppObjectEN6il2cpp2gc9CachedCCWEEES5_NS7_5utils11PointerHashIS3_EEN14dense_hash_mapIS5_S9_SD_NS0_8equal_toIS5_EENS0_9allocatorISA_EEE9SelectKeyESG_SI_E12resize_deltaEjj
$tf:_ObjectReader_RecordFixup_m1893348030
EDf:_EnumBuilder_GetElementType_m1228393631
Yj:_glRenderbufferStorage
yeg:__ZL80ILGenerator_t99948092_CustomAttributesCacheGenerator_ILGenerator_Emit_m116557729P21CustomAttributesCache
D7f:__ZL43Il2CppObject_CustomAttributesCacheGeneratorP21CustomAttributesCache
zIh:__ZN15dense_hashtableINSt3__24pairIK10KeyWrapperINS1_IPK11Il2CppImageP11Il2CppClassEEEjEES9_17ReflectionMapHashIS8_EN14dense_hash_mapIS9_jSD_19ReflectionMapEqualsIS8_ENS0_9allocatorISB_EEE9SelectKeyESG_SI_E3endEv
qEd:__ZN11UnityEngine15PlatformWrapper28GetTextureFormatSupportFlagsEv
rTd:_String_CompareOrdinalCaseInsensitiveUnchecked_m2002640463
t1d:_Boolean_GetHashCode_m1894638460
QI:__ZNK20LocalFileSystemPosix6TargetERK13FileEntryDataR15FileSystemEntry
UKg:_UIntPtr_ToUInt32_m1679632738_AdjustorThunk
S8:__Z33InterpolateLightProbeCoefficientsRK17LightProbeContextRK29LightProbeSamplingCoordinatesR20SphericalHarmonicsL2
Wlb:__Z14resize_trimmedINSt3__26vectorI8UnityStr13stl_allocatorIS2_L18MemLabelIdentifier12ELi16EEEEEvRT_j
FNe:_SmallXmlParser_HandleBufferedContent_m3397096753
Ug:_glDisable
Meh:_UnityAction_2_BeginInvoke_m2528278652_gshared
MPf:_InternalEnumerator_1_MoveNext_m1994485778_AdjustorThunk
zb:invoke_vffff
h7g:_KeyValuePair_2_get_Value_m1916631176_AdjustorThunk
xBf:_MethodBase__ctor_m3951051358
E5a:__ZN4PPtrI9Texture2DE8TransferI14SafeBinaryReadEEvRT_
CYh:__ZN6il2cpp5utils11StringUtils15StringDuplicateEPKDsj
Omf:_BaseMachine_Scan_m122450399
M4d:_ArrayList_CopyTo_m2353632788
bfg:__ZL71AssemblyFileVersionAttribute_t2897687916_CustomAttributesCacheGeneratorP21CustomAttributesCache
hac:__ZN5physx10getInverseERNS_7PxMat33ERNS_6PxVec3ERKS0_RKS2_
fU:__ZNSt3__26vectorINS_4pairIyP17VertexDeclarationEENS_9allocatorIS4_EEE6assignIPS4_EENS_9enable_ifIXaasr21__is_forward_iteratorIT_EE5valuesr16is_constructibleIS4_NS_15iterator_traitsISB_E9referenceEEE5valueEvE4typeESB_SB_
M9g:_List_1_Add_m943275925_gshared
Rzi:b119
izf:_HMAC_get_BlockSizeValue_m603907214
YGa:__ZNK8Material12GetPassCountEv
hae:_Enumerator__cctor_m3784927209
Izi:b110
Jzi:b111
Kzi:b112
Toi:_bitshift64Ashr
Mzi:b114
Nzi:b115
Ozi:b116
a1:__ZNK8Material26GetTypeInfoVirtualInternalEv
swh:__ZN14dense_hash_mapI10KeyWrapperI13dynamic_arrayIPK10Il2CppTypeLj4EEEPFvvEN6il2cpp8metadata19Il2CppSignatureHashENSA_22Il2CppSignatureCompareENSt3__29allocatorINSD_4pairIKS6_S8_EEEEEC2EjRKSB_RKSC_
z5c:__ZN5physx6shdfnd5ArrayIPhNS0_19ReflectionAllocatorIS2_EEE8recreateEj
Svh:__ZN15dense_hashtableINSt3__24pairIK10KeyWrapperI13dynamic_arrayIPK10Il2CppTypeLj4EEEPFvvEEES8_N6il2cpp8metadata19Il2CppSignatureHashEN14dense_hash_mapIS8_SB_SF_NSE_22Il2CppSignatureCompareENS0_9allocatorISC_EEE9SelectKeyESH_SJ_E9set_valueEPSC_RKSC_
Lka:__ZN4crnd12crn_unpacker22decode_alpha_endpointsEv
ZBa:__Z23CullDynamicObjectsUmbraPK4AABBPKN5Umbra15OcclusionBufferER9IndexList
f0e:_Array_InternalArray__get_Item_TisContactPoint_t1376425630_m3234597783_gshared
e$:__ZN13RenderTexture9SetActiveERK20GfxRenderTargetSetupPPS_j
I0h:__ZN15dense_hashtableINSt3__24pairIK10KeyWrapperIPK19Il2CppGenericMethodEP10MethodInfoEES6_N6il2cpp8metadata23Il2CppGenericMethodHashEN14dense_hash_mapIS6_S9_SD_NSC_26Il2CppGenericMethodCompareENS0_9allocatorISA_EEE9SelectKeyESF_SH_E4findERS7_
X$g:__Z86RuntimeInvoker_Void_t1841601450_Il2CppObject_StringU26_t638738783_StringU26_t638738783PK10MethodInfoPvPS2_
Mp:__ZN18StreamedBinaryReadILb1EE21TransferSTLStyleArrayI13dynamic_arrayIiLj4EEEEvRT_17TransferMetaFlags
W3g:_GeneralNames_ToString_m800435094
Ajg:__ZL73AsymmetricSignatureDeformatter_t3580832979_CustomAttributesCacheGeneratorP21CustomAttributesCache
$9e:_TlsServerCertificate_validateCertificates_m1988583701
Rra:__ZN9GfxDevice20SetComputeBufferDataE15ComputeBufferIDPKvj
HIg:_UInt16_Parse_m3560204090
d$b:__ZN8JSONRead21TransferSTLStyleArrayI13dynamic_arrayIsLj2EEEEvRT_18MemLabelIdentifier17TransferMetaFlags
Hu:__ZN4FMOD7Channel11setPositionEjj
mTd:__ZN16VirtFuncInvoker7IiP8String_tiiS1_iiiE6InvokeEjPvS1_iiS1_iii
aV:__Z22CreateMutexLockedQueuev
fRd:_SecurityFrame_get_Domain_m3219347572_AdjustorThunk
Rxc:__ZN5physx2Sc8BodyCore20clearSpatialVelocityEbb
Oh:_glGetVertexAttribiv
rLd:_SHA1__ctor_m788472966
zXe:_Array_InternalArray__ICollection_Add_TisChar_t3454481338_m422084244_gshared
R1c:__ZN5physx6shdfnd5ArrayINS_9PxBounds3ENS0_15InlineAllocatorILj192ENS0_19ReflectionAllocatorIS2_EEEEE8recreateEj
I1f:_OutAttribute__ctor_m1447235100
_og:__ZL52EventArgs_t3289624707_CustomAttributesCacheGeneratorP21CustomAttributesCache
j_b:__ZN8JSONRead8TransferIbEEvRT_PKc17TransferMetaFlagsb
qlc:__ZN5physx6shdfnd5ArrayIPvNS0_19ReflectionAllocatorINS_2Sc24ElementInteractionMarkerEEEE4copyINS0_15InlineAllocatorILj256ES6_EEEEvRKNS1_IS2_T_EE
Abh:_Collection_1_RemoveAt_m290627370_gshared
uFc:__ZNK5physx7NpShape15getGeometryTypeEv
Ujh:_DefaultValueAttribute_Equals_m3216982933
Xif:_X509KeyUsageExtension_Decode_m3292847033
qU:__ZN26SharedLightmapSettingsDataD2Ev
uIf:_Module_filter_by_type_name_ignore_case_m3574895736
pig:__ZL57ProxyAttribute_t4031752430_CustomAttributesCacheGeneratorP21CustomAttributesCache
jic:__ZN19ControllerHitReport13onObstacleHitERKN5physx23PxControllerObstacleHitE
Dld:__ZN18ScBeforeSolverTaskD0Ev
Gtf:_ObjectReader_ReadObject_m397855326
cD:__ZNSt3__215basic_stringbufIcNS_11char_traitsIcEENS_9allocatorIcEEE9underflowEv
E$b:__Z29Transfer_Blittable_ArrayFieldI8JSONRead8Vector4fEvRT_R9ArrayInfoRK23StaticTransferFieldInfo
tPc:__ZN5physx22NpParticleBaseTemplateINS_16PxParticleSystemENS_16NpParticleSystemEE16releaseParticlesEjRKNS_16PxStrideIteratorIKjEE
co:FUNCTION_TABLE_vd
oHg:_Type_GetMethod_m1930231379
fo:FUNCTION_TABLE_vi
Psf:_WellKnownServiceTypeEntry_ToString_m493996021
JSb:__ZN10systeminfo24GetRuntimePlatformStringEv
X1h:__GLOBAL__sub_I_Assembly_cpp_31074
YWb:__ZN13MonoBehaviour21StartCoroutineManagedEPKcP12Il2CppObject
d9c:__ZN5physxL25solveContact4_StaticBlockEPKNS_23PxcSolverConstraintDescERNS_16PxcSolverContextE
Xhg:__ZL51IMessage_t3044378324_CustomAttributesCacheGeneratorP21CustomAttributesCache
QIe:_SimpleCollator_GetContraction_m1391584430
w1d:_CultureInfo_get_InvariantCulture_m398972276
Y0d:_Boolean_System_IConvertible_ToInt64_m4142756949_AdjustorThunk
EUa:__ZNK16MemoryFileSystem30GetRelativeCaseInsensitivePathEPKcRNSt3__212basic_stringIcNS2_11char_traitsIcEE13stl_allocatorIcL18MemLabelIdentifier54ELi16EEEE
h3e:_HMAC_initializePad_m3828610671
$ec:__ZNK5physx3Cct17CapsuleController15getFootPositionEv
ZKd:_RSAParameters_t1462703416_marshal_pinvoke_cleanup
M3f:_ConfigHandler_OnChars_m2004226744
yfh:_AsyncOperation_get_priority_m966065939
wii:__ZNKSt3__210__time_put8__do_putEPcRS1_PK2tmcc
ra:invoke_iiifiii
xTh:__ZN6il2cpp2vm9Exception11FromNameMsgEPK11Il2CppImagePKcS6_S6_
ase:_NumberFormatInfo_get_NumberDecimalDigits_m3706097953
$Gg:_Type_internal_from_name_m1506974323
k9c:__ZN5physx25solveContact_BStaticBlockEPKNS_23PxcSolverConstraintDescEjRNS_16PxcSolverContextE
i3a:__ZN5LightD2Ev
RL:__Z14GetTimeManagerv
dzb:__Z18Transfer_BlittableI18StreamedBinaryReadILb0EELb1EtEvRK29SerializationCommandArgumentsR31RuntimeSerializationCommandInfo
k$g:__Z67RuntimeInvoker_Void_t1841601450_Scene_t1684909666_Int32_t2071877448PK10MethodInfoPvPS2_
h_a:__Z12GUIDToStringRK9UnityGUIDPc
NXa:__ZN15FileSystemEntry4LockE12FileLockModeP12FileAccessor
FTe:_Array_get_swapper_TisIl2CppObject_m1701356863_gshared
O7b:__ZL4facejjjRN5physx6PxVec3ERKS0_S3_S3_PfRf
$_c:__ZN5physx6shdfnd5ArrayIPNS_2Sc14ConstraintCoreENS0_19ReflectionAllocatorIS4_EEE6resizeEjRKS4_
zYh:__ZN4utf88internal20is_overlong_sequenceIiEEbjT_
tMg:__Z44RuntimeInvoker_Char_t3454481338_Il2CppObjectPK10MethodInfoPvPS2_
mMc:__ZN5physx22NpParticleBaseTemplateINS_15PxParticleFluidENS_15NpParticleFluidEE18setProjectionPlaneERKNS_6PxVec3Ef
c6d:_SynchronizedArrayListWrapper_get_Count_m4104930530
dzf:_HashAlgorithm_get_HashSize_m2625667696
akd:__ZL18getFrictionPatchesRN5physx26PxcFrictionPatchStreamPairERNS_20PxcCorrelationBufferEPKhjRKNS_11PxTransformES8_f
DBe:_Stream_Close_m1499612649
AHa:__Z14SetupLightmapsRK8Vector4fS1_R17ShaderPassContext
vof:_Interval_get_Empty_m3170923997
oeb:__Z20DestroyObjectDelayedP6Objectf
IG:__ZN20DynamicHeapAllocatorI17LowLevelAllocatorED0Ev
jvd:__ZN8Collider16RecreateColliderEPK9Rigidbody
VJe:_PreviousInfo__ctor_m1442166472_AdjustorThunk
wGa:__ZN9DepthPassD2Ev
Zge:_DateTime_get_Kind_m1331920314_AdjustorThunk
zt:__ZN11AudioFilter6GetDSPEv
ECc:__ZN5physx2Sc14ConstraintCore9setBodiesEPNS0_9RigidCoreES3_
FO:__ZN19RuntimeSceneManager14CanUnloadSceneEP10UnityScene
HLa:__Z22ExtractRenderNodeQueueRK11CullResults15ExtractionFlagsR15RenderNodeQueue
FKa:__ZN4Mesh14GetMeshBuffersER11MeshBuffersjPS_b
A_h:__ZN6il2cpp2vm6Method7GetNameEPK10MethodInfo
Xzd:__ZN5physx6shdfnd8PoolBaseINS_24NpPtrTableStorageManager8PtrBlockILi64EEENS0_19ReflectionAllocatorIS4_EEE12allocateSlabEv
Ss:__ZN24AudioScriptBufferManagerC2Ev
n_b:__ZL29CanTransferTypeAsNestedObjectI23TransferArrayField_InfoEbRKT__2608
s1d:_Boolean_Equals_m294106711_AdjustorThunk
qFg:_TimeSpan_get_Hours_m3804628138_AdjustorThunk
t0b:__Z18Transfer_BlittableI9JSONWriteLb0EfEvRK29SerializationCommandArgumentsR31RuntimeSerializationCommandInfo
m6:__Z21GetAsyncUploadManagerv
yj:_emscripten_glDetachShader
Ite:_Int16_System_IConvertible_ToInt64_m733340257
Wca:__ZZ19InitializeGfxDevicejEN38PreLateUpdateEndGraphicsJobsLatestruct7ForwardEv
YHe:_SafeHandleZeroOrMinusOneIsInvalid_get_IsInvalid_m2033528032
Muc:__ZNK5physx2Sc15ArticulationSim16createDriveCacheEfj
$ja:__ZN17GenericDynamicVBO20ReleaseChunkInternalERK21DynamicVBOChunkHandlejj
$8a:__ZN14SafeBinaryRead21TransferSTLStyleArrayI13dynamic_arrayI7Hash128Lj8EEEEvRT_17TransferMetaFlags
XHe:_SafeHandleZeroOrMinusOneIsInvalid__ctor_m3340306667
Sbi:_fmodl
Rqf:_SerializationInfo_AddValue_m902275108
rhi:__ZNKSt3__220__time_get_c_storageIcE8__monthsEv
lci:_fmodf
Sic:__ZN5physx6shdfnd5ArrayIPNS_3Scb5ActorENS0_19ReflectionAllocatorIS4_EEE6resizeEjRKS4_
L_:__ZN12CachedWriter11Align4WriteEv
CFa:__Z20DoDeferredRenderLoopR17RenderLoopContextR13dynamic_arrayI16RenderObjectDataLj4EES4_RK11CullResultsRP13RenderTextureSA_Pb
eba:__ZNSt3__26vectorIiNS_9allocatorIiEEE21__push_back_slow_pathIKiEEvRT_
Nba:__ZN19RuntimeSceneManager11CreateSceneEv
Bpc:__ZN5physx15PxsArticulationC2Ev
Qsg:__ZL96Component_t3819376471_CustomAttributesCacheGenerator_Component_GetComponentsInParent_m4192184629P21CustomAttributesCache
R8h:__ZN6il2cpp2os5Mutex6UnlockEv
IDc:__ZN5physx7NpScene14removeMaterialERNS_10NpMaterialE
apc:__ZN5physx16PxsIslandManager24setEdgeArticulationJointERKNS_20PxsIslandManagerHookIjLj4294967295EEE
zcc:__ZN5physx2Gu15HeightFieldUtil19OverlapTraceSegmentI25CapsuleTraceSegmentReportE10visitCellsERKNS4_11OverlapLineE
ebd:__ZN5physx16PxsBroadPhaseMBP7destroyEv
Jxc:__ZN5physx2Sc10NPhaseCore25addToDirtyInteractionListEPNS0_15CoreInteractionE
Rni:__ZN10__cxxabiv116__shim_type_infoD2Ev
wki:__ZNKSt3__27codecvtIcc11__mbstate_tE16do_always_noconvEv
jWa:__ZN9Scripting16FindMethodCachedEP11Il2CppClassPKc
XNe:__ZN23InterfaceActionInvoker2IP8String_tP12Il2CppObjectE6InvokeEjP11Il2CppClassPvS1_S3_
sZf:_Dictionary_2_CopyToCheck_m1638253305_gshared
yG:__Z19free_alloc_internalPv18MemLabelIdentifier
BZa:__ZNK23ArchiveStorageConverter16GetDirectoryInfoEv
GOa:__ZN10GameObjectD2Ev
ydh:_ReadOnlyCollection_1_System_Collections_Generic_IListU3CTU3E_set_Item_m25653560_gshared
fld:__ZN5physx2Cm12DelegateTaskINS_2Sc5SceneEXadL_ZNS3_19islandGenSecondPassEPNS_10PxBaseTaskEEEE11runInternalEv
CIf:_MonoCMethod_Invoke_m931478014
aDc:__ZN5physx6shdfnd4sortIPvNS0_4LessIS2_EENS0_19ReflectionAllocatorINS_10NpMaterialEEEEEvPT_jRKT0_RKT1_j
i5e:_CertificateSelectionCallback_Invoke_m2902629105
MT:__ZN10InputEventD2Ev
vre:_DateTimeFormatInfo_GetAllDateTimePatternsInternal_m1587126173
Qph:_Vector2_ToString_m775491729_AdjustorThunk
Mah:__ZN23InterfaceActionInvoker2IP24ObjectU5BU5D_t3614634134iE6InvokeEjP11Il2CppClassPvS1_i
kPd:_Evidence__ctor_m1638117806
HGg:_Type_get_IsInterface_m3583817465
GQf:_InternalEnumerator_1_Dispose_m3578333724_AdjustorThunk
tKd:_RSA_ToXmlString_m4145056574
m_h:__ZN15dense_hashtableINSt3__24pairIK10KeyWrapperIP14Il2CppIUnknownEjEES5_N6il2cpp5utils11PointerHashIS3_EEN14dense_hash_mapIS5_jSB_NS0_8equal_toIS5_EENS0_9allocatorIS7_EEE9SelectKeyESE_SG_E13clear_deletedER30dense_hashtable_const_iteratorIS7_S5_SB_SI_SE_SG_E
nX:__Z20SetPlayerPauseDirect11PlayerPause
Ole:_Double_System_IConvertible_ToUInt64_m1318285078_AdjustorThunk
fgc:__ZN5physx3Cct15ObstacleContext13onOriginShiftERKNS_6PxVec3E
wbi:_isalpha
UVc:__ZN5physx6shdfnd8PoolBaseINS_2Gu31SpherePersistentContactManifoldENS0_19ReflectionAllocatorIS3_EEE12allocateSlabEv
ypc:__ZN5physx6shdfnd5ArrayIPNS_2Sc7BodySimENS0_19ReflectionAllocatorIS4_EEE8recreateEj
qZa:__ZN17FileSystemHandler5TouchER13FileEntryData
Dge:_DateTimeUtils_ZeroPad_m86470512
t0g:__Z73RuntimeInvoker_Boolean_t3825574718_CustomAttributeNamedArgument_t94157543PK10MethodInfoPvPS2_
IBh:__ZN6il2cpp2vmL17IsSocketAsyncCallEP14Il2CppDelegate
kgh:_Camera_get_clearFlags_m1743144302
nkh:_Logger_IsLogTypeAllowed_m1750132386
i1h:__ZN6il2cpp2vm6String6NewLenEPKcj
O0a:__ZN6Camera23VirtualRedirectTransferER19StreamedBinaryWriteILb0EE
L$h:__ZN6il2cpp2os6Thread12GetApartmentEv
fsa:__ZN9GfxDevice28UpdateComputeConstantBuffersEjP12ObjectHandleI18ConstantBuffer_TagPvEjjPKhPKjS8_PKi
Pk:_time
lkc:__ZNK5physx2Sc8ShapeSim15getPxsRigidCoreEv
plc:__ZN5physx2Sc20ContactStreamManager28fillInContactReportExtraDataEPNS_17PxContactPairPoseEjRKNS0_8RigidSimEb
aQa:__Z18SkinGenericMathLibILi2ELb0ELb0EEvR12SkinMeshInfo
edg:__ZL64DebuggerBrowsableState_t944457511_CustomAttributesCacheGeneratorP21CustomAttributesCache
EIc:__ZN5physx7NpCloth23removeCollisionTriangleEj
dP:__ZN15dense_hashtableINSt3__24pairIKiP6ObjectEEi21InstanceIDHashFunctorN14dense_hash_mapIiS4_S6_NS0_8equal_toIiEE13stl_allocatorIS5_L18MemLabelIdentifier65ELi16EEE9SelectKeyES9_SC_E12resize_deltaEjj
V0f:_ReliabilityContractAttribute__ctor_m1496374289
i7c:__ZNK5physx2Gu29EPASupportMapPairRelativeImplINS0_9TriangleVENS0_11ConvexHullVEE9doSupportERKNS_6shdfnd3aos5Vec3VERS7_SA_SA_
ZOb:__ZN6Camera7PRODUCEE18MemLabelIdentifier18ObjectCreationMode
j8h:__ZN6il2cpp6icalls8mscorlib6System11Diagnostics10StackTrace9get_traceEP15Il2CppExceptionib
uyi:_glDeleteSync__wrapper
U7:__ZN19RuntimeSceneManager22EndIntegrateMainThreadEP10UnityScene
ede:_Decimal_op_Implicit_m623319612
O8:__ZNK9Transform21GetLocalToWorldMatrixEv
oEg:_ThreadAbortException__ctor_m1623816114
UMa:__ZN13RenderTexture19SetAutoGenerateMipsEb
z3:__Z20GetTextureFormatInfo13TextureFormat
iOb:__Z40InitializeLightAnimationBindingInterfacev
AQc:__ZNK5physx20NpRigidActorTemplateINS_14PxRigidDynamicEE14getWorldBoundsEf
ish:__ZN6il2cpp2vm5Class4InitEP11Il2CppClass
xbh:_Collection_1_InsertItem_m1391780791_gshared
_Z:__ZN18StreamedBinaryReadILb1EE5AlignEv
k6h:__ZN6il2cpp5utils10MemoryPool6MallocEj
gs:__ZN11SoundHandle8InstanceD2Ev
yV:__ZN31CanvasBatchIntermediateRenderer13StaticDestroyEPv
Z6g:_X509Store_BuildCrlsCollection_m52567568
WYc:__ZN5physx13NpVolumeCache13onOriginShiftERKNS_6PxVec3E
zZc:__ZNK5physx2Sc5Scene20getBroadPhaseRegionsEPNS_22PxBroadPhaseRegionInfoEjj
cvf:_CallbackHandler__ctor_m1235509347
ume:_Enum_ToString_m662345249
Dvi:_emscripten_glBindProgramARB__wrapper
ttg:__ZL77Gradient_t3600583008_CustomAttributesCacheGenerator_Gradient_Init_m4156899649P21CustomAttributesCache
OAf:_AssemblyName_InternalGetPublicKeyToken_m3706025887
GVb:__Z41Register_UnityEngine_CullingGroup_Disposev
Lzc:__ZN5physx14NpShapeManagerD2Ev
r7a:__ZN7Cubemap23VirtualRedirectTransferER19StreamedBinaryWriteILb0EE
Zfi:__ZNKSt3__27num_getIcNS_19istreambuf_iteratorIcNS_11char_traitsIcEEEEE17__do_get_unsignedItEES4_S4_S4_RNS_8ios_baseERjRT_
Oua:__ZN25MultiBlocksMemoryFileData5WriteEyyPKv
UPg:__Z78RuntimeInvoker_Il2CppObject_Int64_t909078037_Int64_t909078037_Int64_t909078037PK10MethodInfoPvPS2_
FJh:__ZNSt3__218uninitialized_fillIPNS_4pairIK10KeyWrapperINS1_IPK12PropertyInfoP11Il2CppClassEEEjEESB_EEvT_SD_RKT0_
IMf:_Action_1_BeginInvoke_m1305519803_gshared
Zwa:__ZZ23InitPlayerLoopCallbacksvEN47InitializationAsyncUploadTimeSlicedUpdatestruct7ForwardEv
sVb:__Z35Component_CUSTOM_SendMessageUpwardsP12Il2CppObjectP12Il2CppStringS0_i
bma:__ZL17ProgramUniform2fvPK7ApiGLESjiihPKv
Eag:__ZL65Il2CppArray_CustomAttributesCacheGenerator_Array_Sort_m4096942812P21CustomAttributesCache
_yc:__ZN5physx2Sc5Scene16removeConstraintERNS0_14ConstraintCoreE
Duh:__ZN15dense_hashtableINSt3__24pairIK10KeyWrapperINS0_12basic_stringIcNS0_11char_traitsIcEENS0_9allocatorIcEEEEEP11Il2CppClassEES9_N6il2cpp5utils11StringUtils12StringHasherIS8_EEN14dense_hash_mapIS9_SC_SI_NS0_8equal_toIS9_EENS6_ISD_EEE9SelectKeyESL_SM_E4swapERSP_
OZa:__ZN13Lz4CompressorD0Ev
ddi:_htonl
yha:__Z20GetBufferManagerGLESv
Lyb:__ZN18StreamedBinaryReadILb0EE21TransferSTLStyleArrayI31ArrayOfManagedObjectsTransfererEEvRT_17TransferMetaFlags
S0c:__ZN5physx2Sc18ParticleSystemCore18addDeltaVelocitiesERKNS_2Cm10BitMapBaseINS_6shdfnd9AllocatorEEEPKNS_6PxVec3Ef
SYd:_UTF7Decoder_GetChars_m2790530452
iSh:__ZN13dynamic_arrayIP12Il2CppObjectLj4EEixEj
edi:_htons
uZb:__Z18Transfer_BlittableI8JSONReadLb0EtEvRK29SerializationCommandArgumentsR31RuntimeSerializationCommandInfo
Lhd:__ZN5physx6shdfnd8PoolBaseINS_2Sc16ActorElementPairENS0_19ReflectionAllocatorIS3_EEE12allocateSlabEv
bBd:__Z20GetPhysicsManagerPtrv
YMg:__Z49RuntimeInvoker_Int32_t2071877448_Int64_t909078037PK10MethodInfoPvPS2_
G7a:__ZNK7Cubemap20GetTextureLayerCountEv
kEc:__ZNK5physx9NpPhysics17getNbClothFabricsEv
sId:__ZN18VirtActionInvoker06InvokeEjPv
MOb:__ZN16GraphicsSettings7PRODUCEE18MemLabelIdentifier18ObjectCreationMode
wSe:__ZNSt3__212basic_stringIDsNS_11char_traitsIDsEENS_9allocatorIDsEEE9__grow_byEjjjjjj
Luh:__ZNK15dense_hashtableINSt3__24pairIK10KeyWrapperINS0_12basic_stringIcNS0_11char_traitsIcEENS0_9allocatorIcEEEEEP11Il2CppClassEES9_N6il2cpp5utils11StringUtils12StringHasherIS8_EEN14dense_hash_mapIS9_SC_SI_NS0_8equal_toIS9_EENS6_ISD_EEE9SelectKeyESL_SM_E3endEv
ku:__ZN12AudioManager21FixMasterGroupRoutingEv
OMd:_SymmetricAlgorithm_set_Key_m2973350820
Zhf:_WebHeaderCollection_IsHeaderValue_m1723393133
zca:__ZN16MeshVertexFormat20GetVertexDeclarationEjPKS_
FGh:__ZN6il2cpp2gc19AppendOnlyGCHashMapINSt3__24pairIPK9FieldInfoP11Il2CppClassEEP21Il2CppReflectionField17ReflectionMapHashIS9_E19ReflectionMapEqualsIS9_EE3AddERKS9_SB_
k8d:_Hashtable__ctor_m4280223555
xni:__ZNSt3__212basic_stringIwNS_11char_traitsIwEENS_9allocatorIwEEED2Ev
HZh:__ZN6il2cpp2os10ThreadImpl33UnregisterCurrentThreadForCleanupEv
zsd:__ZL10UpdateLinkjjjjPN5physx11AdjTriangleERKNS_17ADJACENCIESCREATEE
Ksg:__ZL97Component_t3819376471_CustomAttributesCacheGenerator_Component_GetComponentInChildren_m3985003615P21CustomAttributesCache
Tnc:__ZN5physx2Sc16InteractionScene19registerInteractionEPNS0_11InteractionEb
frb:__Z18Transfer_BlittableI14SafeBinaryReadLb1E4AABBEvRK29SerializationCommandArgumentsR31RuntimeSerializationCommandInfo
I8c:__ZN5physx19solveContactCoulombERKNS_23PxcSolverConstraintDescERNS_16PxcSolverContextE
QNg:__Z67RuntimeInvoker_Void_t1841601450_Int16_t4041245914_Int32_t2071877448PK10MethodInfoPvPS2_
TH:__ZNK13ScreenManager16GetScreenTimeoutEv
dlc:__ZNK5physx2Sc9ActorPair23createContactReportDataEv
Cs:__ZN9AudioClip7WWWOpenEPKciPjPPvS4_
Rwc:__ZN5physx18NpArticulationLink18setAngularVelocityERKNS_6PxVec3Eb
RZg:__Z79RuntimeInvoker_Void_t1841601450_Il2CppObject_Int32_t2071877448_Int64_t909078037PK10MethodInfoPvPS2_
Mpb:__Z18Transfer_BlittableI14SafeBinaryReadLb0E8Vector2fEvRK29SerializationCommandArgumentsR31RuntimeSerializationCommandInfo
rhf:_IPv6Address_SwapUShort_m1481806078
Gc:_emscripten_glVertexAttrib2f
xEb:__ZN15SerializeTraitsIN9ShaderLab20SerializedSubProgram16TextureParameterEE8TransferI14SafeBinaryReadEEvRS2_RT_
Y1d:_Byte_System_IConvertible_ToInt16_m1575115635_AdjustorThunk
V2f:_CrossAppDomainData_get_ProcessID_m2865289777
x3c:__ZN5physx6shdfnd8PoolBaseINS_2Sc19ShapeInstancePairLLENS0_19ReflectionAllocatorIS3_EEE15disposeElementsEv
vIg:_UInt16_System_IConvertible_ToUInt16_m1646506872_AdjustorThunk
b7b:__ZN5physx2Gu12PolygonalBoxC2ERKNS_6PxVec3E
NNa:__ZL30CollectComponentsWithoutAddingR10GameObjectiP11Il2CppClassR13dynamic_arrayI16AddComponentDataLj4EES6_PNSt3__212basic_stringIcNS7_11char_traitsIcEENS7_9allocatorIcEEEE
cbc:__ZN5physx2Gu14sweepTriSphereERKNS_10PxTriangleERKNS_6PxVec3ES6_fS6_Rf
nJe:_SimpleCollator_CompareQuick_m619038530
Fdf:_SslStreamBase_EndRead_m1072850679
j5e:_CertificateSelectionCallback_BeginInvoke_m990408067
Cuf:__ZN16VirtFuncInvoker1IP27MethodInfoU5BU5D_t152480188iE6InvokeEjPvi
hsa:__ZN9GfxDevice22DispatchComputeProgramE12ObjectHandleI18ComputeProgram_TagPvEjjj
zRa:__ZN13dynamic_arrayIN4RTTI15DerivedFromInfoELj4EE18resize_initializedEjRKS1_12ResizePolicy
_c:_SDL_GetTicks
qRe:_X509CertificateEnumerator_System_Collections_IEnumerator_get_Current_m1643583406
EBa:__Z21CreateShadowCullerJobP30CreateUmbraShadowCullerJobData
JIc:__ZNK5physx7NpCloth21getNbVirtualParticlesEv
vkd:__ZN5physx17PxcNpMemBlockPool23releaseConstraintBlocksERNS_6shdfnd5ArrayIPNS_13PxcNpMemBlockENS1_19ReflectionAllocatorIS4_EEEE
Vla:__ZL18ProgramUniform2uivPK7ApiGLESjiihPKv
axi:_glUniform4iv__wrapper
b$f:_Dictionary_2_ToTKey_m4209561517_gshared
Mxc:__ZN5physx2Sq17SceneQueryManager13markForUpdateEPNS0_10ActorShapeE
tK:__GLOBAL__sub_I_runtime_gfxdevice_lump_cpp
mii:__ZNKSt3__28time_getIwNS_19istreambuf_iteratorIwNS_11char_traitsIwEEEEE11__get_am_pmERiRS4_S4_RjRKNS_5ctypeIwEE
zfh:_AsyncOperation_set_priority_m3581020444
Q2h:_GC_expand_hp_inner
Ixb:__Z29Transfer_Blittable_ArrayFieldI19StreamedBinaryWriteILb0EEsEvRT_R9ArrayInfoRK23StaticTransferFieldInfo
K7h:__ZThn8_N6il2cpp2vm13ComObjectBaseINS0_13ManagedObjectE18Il2CppIInspectableNS0_7details6ComNilES5_S5_S5_S5_S5_S5_E14QueryInterfaceERK10Il2CppGuidPPv
pYh:__ZN4utf812find_invalidIPKcEET_S3_S3_
tmf:_X509ExtensionCollection_System_Collections_ICollection_CopyTo_m3421329346
i2h:_GC_err_printf
qEf:_FieldBuilder_SetValue_m3109503557
lkf:_X509Certificate2_Verify_m1574874641
$9d:_SortedList_GetEnumerator_m1318483481
q_d:_Array_CreateInstance_m3327690220
Bwe:_IntPtr__ctor_m2996690883_AdjustorThunk
TRg:__Z64RuntimeInvoker_Double_t4078015681_Il2CppObject_Int32_t2071877448PK10MethodInfoPvPS2_
kR:__ZN14SerializedFile7ReleaseEv
fag:__ZL69Il2CppArray_CustomAttributesCacheGenerator_Array_GetValue_m1507415734P21CustomAttributesCache
UTa:__ZN16MemoryFileSystem4OpenER13FileEntryData14FilePermission16FileAutoBehavior
LOg:__Z52RuntimeInvoker_UInt64_t2909196914_Decimal_t724701077PK10MethodInfoPvPS2_
eA:__ZN12AudioManager12CleanupClassEv
hri:dynCall_vifiiiiiiiiiiiiiiiiiiiiiii
eOb:__ZN5Light15InitializeClassEv
qjb:__ZN14SafeBinaryRead21TransferSTLStyleArrayI10vector_mapIPKN5Unity4TypeE7Hash128NSt3__24lessIS5_EENS7_9allocatorINS7_4pairIS5_S6_EEEEEEEvRT_17TransferMetaFlags
Ws:__ZN9AudioClip18GetQueuedAudioDataEPPvj
l1g:__Z59RuntimeInvoker_Void_t1841601450_DictionaryEntry_t3048875398PK10MethodInfoPvPS2_
SSf:_InternalEnumerator_1_Dispose_m4175113225_AdjustorThunk
cZh:__ZN6il2cpp2os5posix15PosixWaitObject13InterruptWaitEv
HIc:__ZNK5physx7NpCloth16getCollisionDataEPNS_22PxClothCollisionSphereEPjPNS_21PxClothCollisionPlaneES3_PNS_24PxClothCollisionTriangleE
kGa:__Z18SetShadowsKeywordsR17ShaderPassContext9LightType10ShadowType16ShadowProjectionbb
VNb:__ZN17CollisionMeshDataC2Ev
vAf:_Assembly_GetModule_m2064378601
eog:__ZL79Convert_t2607082565_CustomAttributesCacheGenerator_Convert_ToUInt16_m3866680988P21CustomAttributesCache
a4c:__ZN5physx2Sq11PruningPool11preallocateEj
N8a:__ZN16LightmapSettings23VirtualRedirectTransferER19StreamedBinaryWriteILb0EE
Uwi:_glTexParameteriv__wrapper
Baa:__ZN18IDCollectorFunctor18GenerateInstanceIDEi17TransferMetaFlags
UMg:__Z40RuntimeInvoker_Il2CppObject_Il2CppObjectPK10MethodInfoPvPS2_
Wqe:_NumberFormatter_ToDecHex_m1474793296
KJh:__ZN6il2cpp2gc19AppendOnlyGCHashMapINSt3__24pairIPK9EventInfoP11Il2CppClassEEP21Il2CppReflectionEvent17ReflectionMapHashIS9_E19ReflectionMapEqualsIS9_EE11TryGetValueERKS9_PSB_
lyc:__ZN5physx2Sc17ParticleSystemSim15onRbShapeChangeERKNS0_19ParticlePacketShapeERKNS0_8ShapeSimE
OUa:__ZN14StackAllocatorD0Ev
oNh:__ZN6il2cpp2vm6Thread8SetStateEP12Il2CppThreadNS0_11ThreadStateE
MHe:_OperatingSystem_Clone_m1943707477
FEg:_Scheduler_Change_m4063588742
gxh:__ZN6il2cpp2vm13MetadataCache25GetMethodGenericContainerEPK10MethodInfo
lld:__ZN5physx27updateIslandsSecondPassMainEjRNS_2Cm10BitMapBaseINS_6shdfnd9AllocatorEEEPKjjRNS_11NodeManagerERNS_11EdgeManagerERNS_13IslandManagerERNS_23ArticulationRootManagerERNS_33ProcessSleepingIslandsComputeDataERNS_30IslandManagerUpdateWorkBuffersEPNS0_13EventProfilerE
SD:__ZN11UnityEngine15CloudWebService13WWWRestClientD0Ev
Q_e:_Array_Sort_TisIl2CppObject_TisIl2CppObject_m1526562629_gshared
uOf:_InternalEnumerator_1_Dispose_m1640363425_AdjustorThunk
Loh:_HitInfo_SendMessage_m3368777144_AdjustorThunk
Vre:_NumberFormatInfo_get_CurrencyPositivePattern_m1112270101
Qaa:__ZN17PersistentManager4LockEv
K2g:__Z53RuntimeInvoker_RaycastHit_t87180320_Int32_t2071877448PK10MethodInfoPvPS2_
ykb:__ZN15ResourceManagerD2Ev
jVb:__Z41Register_UnityEngine_Camera_GetAllCamerasv
ctg:__ZL91CullingGroup_t1091689465_CustomAttributesCacheGenerator_CullingGroup_SendEvents_m1292564468P21CustomAttributesCache
YId:_RC2Transform__ctor_m492910827
xBh:__ZN6il2cpp2gc9AllocatorIP17Il2CppAsyncResultE10deallocateEPvj
Fka:__ZN4crnd12crn_unpacker10unpack_dxnEPPhjjjjjj
Dbi:___ctype_tolower_loc
YVf:_DefaultComparer__ctor_m3668042_gshared
zde:_Double_Parse_m2344589511
M0g:__Z122RuntimeInvoker_Int32_t2071877448_Il2CppObject_CustomAttributeTypedArgument_t1498197914_Int32_t2071877448_Int32_t2071877448PK10MethodInfoPvPS2_
xDc:__ZN5physx10NpMaterial17resolveReferencesERNS_24PxDeserializationContextE
pRh:__ZN6il2cpp2vm22EmbeddedResourceRecordC2ERKS1_
Wth:__ZN15dense_hashtableI10KeyWrapperIPK17Il2CppGenericInstES4_N6il2cpp8metadata21Il2CppGenericInstHashEN14dense_hash_setIS4_S7_NS6_24Il2CppGenericInstCompareENSt3__29allocatorIS4_EEE8IdentityES9_SC_E13set_empty_keyERKS4_
fIb:__ZNSt3__26vectorIN9ShaderLab20SerializedSubProgram15VectorParameterENS_9allocatorIS3_EEE21__push_back_slow_pathIKS3_EEvRT_
dQh:__ZN15dense_hashtableINSt3__24pairIK10KeyWrapperIP11Il2CppClassES4_EES5_N6il2cpp8metadata16SZArrayClassHashEN14dense_hash_mapIS5_S4_SA_NS9_19SZArrayClassCompareENS0_9allocatorIS7_EEE9SelectKeyESC_SE_E3endEv
iSg:__Z109RuntimeInvoker_Void_t1841601450_Int32U26_t455636984_Int32U26_t455636984_Int32U26_t455636984_Int32_t2071877448PK10MethodInfoPvPS2_
m7a:__ZN9Texture2D13AwakeFromLoadE17AwakeFromLoadMode
wKe:_Kernel_SingleByteDivideInPlace_m1760318278
GIe:_MSCompatUnicodeTableUtil__cctor_m1479836795
gBg:_PositionAssertion__ctor_m3703837499
Bfd:__ZN5physx2Gu26EPASupportMapPairLocalImplINS0_8CapsuleVENS0_18ConvexHullNoScaleVEED0Ev
mCe:_StreamWriter_Initialize_m1707678624
GVh:__ZN6il2cpp2vm3RCW14QueryInterfaceILb0EEEP14Il2CppIUnknownP15Il2CppComObjectRK10Il2CppGuid
E4:__ZN6prcoreL17RemapGenericFloatI15TexFormatRFloat18TexFormatARGBFloatEEvPKNS_9InnerInfoE
VYa:__ZNK21AssetBundleFileSystem4SizeERK13FileEntryData
lhg:__ZL50_Thread_t1894135853_CustomAttributesCacheGeneratorP21CustomAttributesCache
BCc:__ZN5physx7NpActor15removeConnectorERNS_7PxActorENS_15NpConnectorType4EnumEPNS_6PxBaseEPKc
URf:_InternalEnumerator_1_get_Current_m1047712960_gshared
scd:__ZN5physx19ActorAABBUpdateTask11runInternalEv
pK:__GLOBAL__sub_I_runtime_camera_renderlayers_lump_cpp
soi:__ZNSt13runtime_errorD2Ev
JHa:__ZN20ReflectionProbeCacheC2ER13BatchRendererR15RenderLoopStats
z$:__ZN7Texture23VirtualRedirectTransferER18StreamedBinaryReadILb0EE
u9a:__ZN18StreamedBinaryReadILb1EE21TransferSTLStyleArrayI13dynamic_arrayI31EnlightenSystemAtlasInformationLj8EEEEvRT_17TransferMetaFlags
yta:__ZNK12HandlerChain6ExistsERK13FileEntryData
xld:__ZN5physx10PxsContext28runModifiableContactManagersEv
Xde:_Convert_ToInt32_m2734833291
LBg:_Uri_ParseNoExceptions_m1151989845
gWc:__ZThn8_N5physx2Sc19ShapeInstancePairLL10onActivateEj
cdb:__ZN9Transform23VirtualRedirectTransferER24GenerateTypeTreeTransfer
Qhd:__ZN5physx21PxsBodyTransformVault7addBodyERKNS_11PxsBodyCoreE
m8:__Z18GetLODGroupManagerv
bIb:__ZNSt3__26vectorIN9ShaderLab20SerializedSubProgram12UAVParameterENS_9allocatorIS3_EEE21__push_back_slow_pathIKS3_EEvRT_
EJc:__ZN5physx6shdfnd5ArrayINS_35PxClothParticleSeparationConstraintENS0_19ReflectionAllocatorIS2_EEE6resizeEjRKS2_
dmf:_X509ChainElement_Count_m228862214
Ufi:__ZNSt3__227__num_get_unsigned_integralIyEET_PKcS3_Rji
xQc:__ZNK5physx15NpActorTemplateINS_14PxRigidDynamicEE8getSceneEv
oGg:_TimeZone_IsDaylightSavingTime_m1840774423
xhc:__ZN5physx19PxCapsuleControllerD0Ev
p7:__ZN27GenericSlowGarbageCollectorD2Ev
Itc:__ZNK5physx14NpArticulation17getSleepThresholdEv
HZg:__Z48RuntimeInvoker_Void_t1841601450_Byte_t3683104436PK10MethodInfoPvPS2_
hDd:__GLOBAL__sub_I_runtime_ui_lump_cpp
oW:__ZN13RuntimeStaticI12AdsIdHandlerE13StaticDestroyEPv
Xua:__ZN10MemoryFile4ReadEyyPvPy
Gei:__ZTv0_n12_NSt3__214basic_iostreamIcNS_11char_traitsIcEEED1Ev
eti:_glBlitFramebuffer__wrapper
xih:_DebugLogHandler__ctor_m3134219506
Eca:__ZNSt3__26vectorIN22BuiltinResourceManager8ResourceENS_9allocatorIS2_EEE21__push_back_slow_pathIKS2_EEvRT_
gOf:_InternalEnumerator_1_System_Collections_IEnumerator_Reset_m1181480250_AdjustorThunk
rRc:__ZNK5physx19NpRigidBodyTemplateINS_14PxRigidDynamicEE27getMaxDepenetrationVelocityEv
tr:__ZN4FMOD3DSP12setParameterEif
LTa:__ZN13MemoryManager16StaticInitializeEv
Iwa:__ZNSt3__26__treeINS_12__value_typeINS_12basic_stringIcNS_11char_traitsIcEE13stl_allocatorIcL18MemLabelIdentifier54ELi16EEEEN17ArchiveFileSystem11ArchiveItemEEENS_19__map_value_compareIS8_SB_NS_4lessIS8_EELb1EEES5_ISB_LS6_54ELi16EEE7destroyEPNS_11__tree_nodeISB_PvEE
rei:__ZNSt3__215basic_streambufIcNS_11char_traitsIcEEE6xsputnEPKci
rac:__ZN5physx2Gu29EPASupportMapPairRelativeImplINS0_11ConvexHullVES2_ED0Ev
df:___cxa_free_exception
qv:__ZN4FMOD22FakeModChannelCallbackEPv
Nhf:_ServicePointManager_get_SecurityProtocol_m1445189298
kf:_emscripten_glValidateProgram
JNb:__ZZN12MeshRenderer15InitializeClassEvEN28FunctorImpl_99kDidDeleteMesh4CallEPviR11MessageData
Xfb:__ZN13BoneInfluence8TransferI18StreamedBinaryReadILb1EEEEvRT_
SDa:__ZN4Mesh10CreateMeshEv
lgd:__ZN5physx9PxTaskMgr13decrReferenceERNS_9PxSpuTaskE
os:__ZN4FMOD7SystemI11createSoundEPKcjP22FMOD_CREATESOUNDEXINFOPPNS_5SoundE
PZ:__ZN14SafeBinaryRead21TransferSTLStyleArrayINSt3__212basic_stringIcNS1_11char_traitsIcEE13stl_allocatorIcL18MemLabelIdentifier1ELi16EEEEEEvRT_17TransferMetaFlags
I4g:_PKCS12_get_Certificates_m2320062949
c6g:_X509Chain__ctor_m1113875360
Vpi:dynCall_viiiiiiiiiiiiiiiiiiiiiiiiiiiiiiiiii
ole:_Double_System_IConvertible_ToBoolean_m4251806534_AdjustorThunk
xLe:_BigInteger_op_GreaterThanOrEqual_m1998498565
gYf:_ShimEnumerator_Reset_m2247049027_gshared
kTc:__ZN5physx20NpRigidActorTemplateINS_13PxRigidStaticEE17resolveReferencesERNS_24PxDeserializationContextE
xmi:__ZNSt3__26vectorIPNS_6locale5facetENS_15__sso_allocatorIS3_Lj28EEEE26__swap_out_circular_bufferERNS_14__split_bufferIS3_RS5_EE
VMa:__ZN7Texture13SetAnisoLevelEi
wkf:_X509Chain_Process_m2508784250
I4d:__ZN23InterfaceActionInvoker2IP11Il2CppArrayiE6InvokeEjP11Il2CppClassPvS1_i
Sra:__ZN9GfxDevice20GetComputeBufferDataE15ComputeBufferIDPvj
NRa:__ZNSt3__26__treeINS_12__value_typeINS_12basic_stringIcNS_11char_traitsIcEENS_9allocatorIcEEEEiEENS_19__map_value_compareIS7_S8_NS_4lessIS7_EELb1EEENS5_IS8_EEE12__find_equalIS7_EERPNS_16__tree_node_baseIPvEESK_RKT_
Kud:__ZNK8Collider15SupportsTriggerEv
hwa:__ZNKSt3__26__treeINS_12__value_typeINS_12basic_stringIcNS_11char_traitsIcEE13stl_allocatorIcL18MemLabelIdentifier54ELi16EEEEN17ArchiveFileSystem11ArchiveItemEEENS_19__map_value_compareIS8_SB_NS_4lessIS8_EELb1EEES5_ISB_LS6_54ELi16EEE4findIS8_EENS_21__tree_const_iteratorISB_PNS_11__tree_nodeISB_PvEEiEERKT_
$4b:__ZL28GeomMTDCallback_SphereSphereRN5physx6PxVec3ERfRKNS_10PxGeometryERKNS_11PxTransformES5_S8_
nMc:__ZNK5physx22NpParticleBaseTemplateINS_15PxParticleFluidENS_15NpParticleFluidEE15getParticleMassEv
fue:_Int16_Parse_m3012618547
CXc:__ZN5physx7NpScene26setSimulationEventCallbackEPNS_25PxSimulationEventCallbackEh
Lqe:_NumberFormatter_Append_m3268121457
ojh:_Playables_INTERNAL_CALL_InternalDestroy_m763661895
U1a:__Z21DestroyShadowMapCacheP14ShadowMapCache
_2h:_GC_hblk_fl_from_blocks
Jkb:__ZN14SafeBinaryRead19TransferSTLStyleMapINSt3__28multimapI8UnityStr4PPtrI6ObjectENS1_4lessIS3_EE13stl_allocatorINS1_4pairIKS3_S6_EEL18MemLabelIdentifier51ELi16EEEEEEvRT_17TransferMetaFlags
kpg:__ZL61LoaderOptimization_t1143026982_CustomAttributesCacheGeneratorP21CustomAttributesCache
jSh:__ZN6il2cpp2vm13LivenessState5ResetEv
akc:__ZN5physx6shdfnd4sortIPvNS0_4LessIS2_EENS0_19ReflectionAllocatorINS_2Sc16ActorElementPairEEEEEvPT_jRKT0_RKT1_j
O0b:__ZN9JSONWrite8TransferI11KeyframeTplIfEEEvRT_PKc17TransferMetaFlags
DXg:__Z71RuntimeInvoker_Double_t4078015681_Double_t4078015681_Double_t4078015681PK10MethodInfoPvPS2_
ehh:_GameObject_GetComponent_m306258075
XNg:__Z86RuntimeInvoker_Int32_t2071877448_Int32_t2071877448_Int32_t2071877448_Int32_t2071877448PK10MethodInfoPvPS2_
Gqf:_ObjRef_get_ChannelInfo_m53840305
Esd:__ZN5physx2Gu15EdgeListBuilder18ComputeActiveEdgesEjPKjPKtPKNS_6PxVec3Ef
yTh:__ZN6il2cpp2vm9Exception27RaiseNullReferenceExceptionEv
zsa:__ZN24BuiltinShaderParamValuesC2Ev
e3d:_Convert_ToInt32_m3683486440
mze:_FileStream_get_CanWrite_m775322953
Org:__ZL72PKCS12_t1362584795_CustomAttributesCacheGenerator_U3CU3Ef__switchU24map7P21CustomAttributesCache
TEg:_TimerCallback_BeginInvoke_m2938818726
Pxa:__Z23GetLateBehaviourManagerv
bWd:_EncoderExceptionFallbackBuffer__ctor_m3538569575
qhc:__ZN5physx6shdfnd5ArrayIPNS_7PxShapeENS0_15InlineAllocatorILj64ENS0_19ReflectionAllocatorIS3_EEEEE6resizeEjRKS3_
HS:__ZN10MemoryPool10DeallocateEPv
ope:_CultureInfo_set_NumberFormat_m1618950525
Ore:_NumberFormatInfo__ctor_m2752806684
Sdf:_SslStreamBase_get_CanRead_m3061866682
Tji:__ZNKSt3__29money_putIwNS_19ostreambuf_iteratorIwNS_11char_traitsIwEEEEE6do_putES4_bRNS_8ios_baseEwe
m1b:__ZL17Transfer_GUIStyleI9JSONWriteLb1EEvRK29SerializationCommandArgumentsR31RuntimeSerializationCommandInfo
Lxg:_PatternCompiler_EmitFastRepeat_m1175707353
C$e:_Array_InternalArray__get_Item_TisKeyValuePair_2_t3716250094_m3120861630_gshared
o7c:__ZN5physx2Gu22gjkRelativePenetrationINS0_9TriangleVENS0_10ShrunkBoxVEEEjRKT_RKT0_RKNS_6shdfnd3aos15PsMatTransformVERKNSB_6FloatVERNSB_5Vec3VESJ_SJ_RSF_PhSL_Rh
Omg:__ZL62ApplicationException_t474868623_CustomAttributesCacheGeneratorP21CustomAttributesCache
yud:__ZN5physx6shdfnd10Foundation19AlignCheckAllocator10deallocateEPv
_2b:__ZNK9rapidjson12GenericValueINS_4UTF8IcEE13JSONAllocatorE6AcceptINS_6WriterI16TempBufferWriterS2_S2_S3_EEEEbRT_
uqi:dynCall_vif
Vja:__ZN10DynamicVBO9DrawChunkERK21DynamicVBOChunkHandleRK14ChannelAssignsjP17VertexDeclarationPKNS_10DrawParamsEi
wqi:dynCall_vii
W2a:__ZN4PPtrI8MaterialE8TransferI18StreamedBinaryReadILb0EEEEvRT_
uOa:__Z25FindConflictingComponentsi
zyb:__Z18Transfer_BlittableI18StreamedBinaryReadILb0EELb0EdEvRK29SerializationCommandArgumentsR31RuntimeSerializationCommandInfo
axg:_Enumerator_System_Collections_IEnumerator_MoveNext_m3313126804
WCh:__ZN6il2cpp6icalls8mscorlib6System8MonoType18GetFields_internalEP20Il2CppReflectionTypeiS5_
HQe:_PKCS12_Finalize_m107130293
__a:__ZN5Unity9Component16CheckConsistencyEv
Mma:__ZN7ApiGLES11CheckShaderERjb
pxb:__ZL26Transfer_SimpleNativeClassI19StreamedBinaryWriteILb0EE10RectOffsetLb1EEvRK29SerializationCommandArgumentsR31RuntimeSerializationCommandInfo
B$e:_Array_InternalArray__get_Item_TisKeyValuePair_2_t1174980068_m964958642_gshared
odd:__ZN5physx20PxcContactCapsuleBoxERKNS_2Gu13GeometryUnionES3_RKNS_11PxTransformES6_RKfRNS_10PxcNpCacheERNS0_13ContactBufferE
N7d:_DictionaryEntry_get_Key_m3623293571_AdjustorThunk
lJa:__Z28GetNonInterpolatedLightProbeRK17LightProbeContextjR20SphericalHarmonicsL2
HXe:_Array_InternalArray__ICollection_Add_TisDateTime_t693205669_m3559987213_gshared
pga:__ZN13GfxDeviceGLES17SetGpuProgramNameEP10GpuProgramPKc
Twh:__ZN6il2cpp2vm13MetadataCache28GetMethodDefinitionFromIndexEi
mqg:__ZL77U3CPrivateImplementationDetailsU3E_t1486305137_CustomAttributesCacheGeneratorP21CustomAttributesCache
U0h:__ZN6il2cpp2os20FileErrnoToErrorCodeEi
k9d:_Slot_t2022531261_marshal_pinvoke
Lna:__ZN7ApiGLES18CreateRenderbufferEiN2gl9TexFormatEii
$ca:__ZN13GfxDeviceGLESC2Ev
Xg:_atexit
U6d:_BitArrayEnumerator_Reset_m3218489242
Omh:_RaycastHit_t87180320_marshal_pinvoke_cleanup
j2d:_Byte_System_IConvertible_ToUInt16_m2275325191
TWc:__ZNK5physx7NpScene8getFlagsEv
tKh:__ZN6il2cpp2vmL31GetObjectForMissingDefaultValueEj
R$c:__ZN5physx2Sc5Scene16getArticulationsEv
Qza:_UNITY_png_write_info_before_PLTE
Loc:__ZN5physx6shdfnd8PoolBaseINS_2Cm5BlockIhLj384EEENS0_19ReflectionAllocatorIS4_EEE12allocateSlabEv
m6c:__Z13sweepAABBAABBRKN5physx6PxVec3ES2_S2_S2_S2_S2_
BWh:__ZN15dense_hashtableI10KeyWrapperIP18Il2CppGenericClassES3_N6il2cpp8metadata22Il2CppGenericClassHashEN14dense_hash_setIS3_S6_NS5_25Il2CppGenericClassCompareENSt3__29allocatorIS3_EEE8IdentityES8_SB_E6insertERKS3_
Sxh:__ZN6il2cpp2vm13MetadataCache7GetGuidEi
iFb:__ZN9ShaderLab14SerializedPassC2ERKS0_
JPf:_InternalEnumerator_1_System_Collections_IEnumerator_get_Current_m3088751576_AdjustorThunk
oqd:__ZN5physx6shdfnd8internal8HashBaseIPNS_2Gu12TriangleMeshES5_NS0_4HashIS5_EENS1_11HashSetBaseIS5_S7_NS0_9AllocatorELb1EE6GetKeyES9_Lb1EE6createERKS5_Rb
Pwc:__ZN5physx18NpArticulationLink17setLinearVelocityERKNS_6PxVec3Eb
rEc:__ZN5physx9NpPhysics20createParticleSystemEjb
Qfg:__ZL60ParameterModifier_t1820634920_CustomAttributesCacheGeneratorP21CustomAttributesCache
WEf:_GenericTypeParameterBuilder_GetCustomAttributes_m3266536625
i:STACKTOP
zz:__ZNK7Texture14IsDepthTextureEv
gta:__ZNK12HandlerChain8IsHiddenERK13FileEntryData
ctd:__ZN5physx17ConvexHullBuilder14CreateEdgeListEv
Ypf:_SoapFieldAttribute_get_XmlElementName_m4100905008
HQb:__ZN17TransformInternal27UpdateDeepChildCountUpwardsER18TransformHierarchyii
Yyc:__ZNK5physx12NpConstraint10getNpSceneEv
Wni:__ZNK10__cxxabiv117__class_type_info16search_above_dstEPNS_19__dynamic_cast_infoEPKvS4_ib
xcg:__ZL59ArrayListWrapper_t3918858854_CustomAttributesCacheGeneratorP21CustomAttributesCache
_6c:__ZN5physxL24PxcSweepCapsuleTrianglesERKNS_11PxsCCDShapeES2_RKNS_11PxTransformES5_S5_S5_fRNS_6PxVec3ES7_RNS_10PxcNpCacheERNS_18PxcNpThreadContextERKNS_2Cm23FastVertex2ShapeScalingERNS_2Gu9TriangleVEf
z:tempBigIntD
fSd:_Single_Equals_m3359827399_AdjustorThunk
KQc:__ZNK5physx15NpActorTemplateINS_14PxRigidDynamicEE12getAggregateEv
y:tempBigIntI
o2e:_PrimalityTests_RabinMillerTest_m2029846965
x:tempBigIntR
w:tempBigIntS
Fxe:_BinaryReader_ReadInt32_m1811936587
jn:FUNCTION_TABLE_viffi
rsf:_ServerIdentity_CreateObjRef_m1056204803
tS:__ZN6Object18RegisterInstanceIDEPS_
keb:__ZN14Texture2DArray8TransferI18StreamedBinaryReadILb1EEEEvRT_
Tda:__ZNK9GfxDevice18GetWorldViewMatrixEv
B0g:__Z51RuntimeInvoker_Boolean_t3825574718_Byte_t3683104436PK10MethodInfoPvPS2_
o7e:_TlsServerKeyExchange__ctor_m247733406
uKg:_UInt64_GetHashCode_m3478338766_AdjustorThunk
O1h:__ZN6il2cpp6icalls8mscorlib6System7Convert17Base64ToByteArrayEPDsib
rfd:__ZN5physx2Gu18pcmContactPlaneBoxERKNS0_13GeometryUnionES3_RKNS_11PxTransformES6_RKfRNS0_5CacheERNS0_13ContactBufferE
Ffg:__ZL95MethodBase_t904190842_CustomAttributesCacheGenerator_MethodBase_GetGenericArguments_m1277035033P21CustomAttributesCache
p9e:_TlsServerSettings_get_Certificates_m3301336199
p0h:__ZN15dense_hashtableINSt3__24pairIK10KeyWrapperIPK19Il2CppGenericMethodEP10MethodInfoEES6_N6il2cpp8metadata23Il2CppGenericMethodHashEN14dense_hash_mapIS6_S9_SD_NSC_26Il2CppGenericMethodCompareENS0_9allocatorISA_EEE9SelectKeyESF_SH_EC2ERKSK_j
JCh:__ZNSt3__26vectorINS_4pairIPK10MethodInfoP11Il2CppClassEENS_9allocatorIS7_EEE21__push_back_slow_pathIS7_EEvOT_
oPh:__ZN15dense_hashtableINSt3__24pairIK10KeyWrapperIP11Il2CppClassES4_EES5_N6il2cpp8metadata16SZArrayClassHashEN14dense_hash_mapIS5_S4_SA_NS9_19SZArrayClassCompareENS0_9allocatorIS7_EEE9SelectKeyESC_SE_ED2Ev
Nxc:__ZN5physx6shdfnd5ArrayIPNS_2Sq10ActorShapeENS0_19ReflectionAllocatorIS4_EEE15growAndPushBackERKS4_
Xda:__ZNK9GfxDevice25GetDeviceProjectionMatrixEv
Agf:_HttpWebRequest__ctor_m1248252412
OYf:_Transform_1_EndInvoke_m803975703_gshared
a$g:__Z101RuntimeInvoker_Il2CppObject_Il2CppObject_Il2CppObject_Vector3U26_t425862308_QuaternionU26_t4187826802PK10MethodInfoPvPS2_
ka:invoke_iidiii
Hvb:__Z18Transfer_BlittableI24GenerateTypeTreeTransferLb1EtEvRK29SerializationCommandArgumentsR31RuntimeSerializationCommandInfo
Rzf:_RankException__ctor_m2119191472
f3b:__ZN9rapidjson12PrettyWriterI16TempBufferWriterNS_4UTF8IcEES3_13JSONAllocatorE11WriteIndentEv
dac:__ZL13midPhaseQueryRKN5physx22PxTriangleMeshGeometryERKNS_11PxTransformERNS_2Gu3BoxERNS6_9ContainerE
e2b:__ZN9JSONWrite8TransferI13dynamic_arrayI4AABBLj4EEEEvRT_PKc17TransferMetaFlags
mB:__ZN5physx14PxLightCpuTask15removeReferenceEv
xOa:__ZN23ManagedAttributeManager41GetParentTypeDisallowingMultipleInclusionEP11Il2CppClass
Qhf:_SPKey_Equals_m1112627532
AOd:_SecurityPermission_IsSubsetOf_m1087302418
t5f:_ArgInfo__ctor_m3787931268
tMc:__ZNK5physx22NpParticleBaseTemplateINS_15PxParticleFluidENS_15NpParticleFluidEE17getStaticFrictionEv
o6g:_X509Chain_Build_m175470596
xjd:__ZN5physx6shdfnd5ArrayINS_24PxsConstraintBatchHeaderENS0_19ReflectionAllocatorIS2_EEE8recreateEj
cCd:__ZN14PhysicsManagerC2E18MemLabelIdentifier18ObjectCreationMode
qY:__ZN9ShaderLab6TexEnvC2ERKNS_25SerializedTexturePropertyE
Qlh:_Object_Instantiate_m2489341053
WVf:_DefaultComparer__ctor_m732373515_gshared
M$:__ZN19ShaderPropertySheet38CopyTextureWithAuxiliaryPropertiesFromERKN9ShaderLab16FastPropertyNameERKS_
N7e:_TlsServerCertificate__ctor_m3697944709
sBh:__ZN6il2cpp2vm19SocketPollingThread14DequeueRequestEv
Z_h:__ZL10RevealLinkPv
WCa:__ZNK6Camera26CalculateCullingParametersER17CullingParameters
ilc:__ZN5physx6shdfnd8PoolBaseINS_2Sc26ActorPairContactReportDataENS0_19ReflectionAllocatorIS3_EEE12allocateSlabEv
nNf:_ArrayReadOnlyList_1_Remove_m1875216835_gshared
OVg:__Z48RuntimeInvoker_Char_t3454481338_SByte_t454417549PK10MethodInfoPvPS2_
xi:___cxa_end_catch
SFf:_MethodBuilder_MakeGenericMethod_m303913412
lqa:__Z19GetCachedBinaryNameRKNSt3__212basic_stringIcNS_11char_traitsIcEENS_9allocatorIcEEEES7_S7_S7_S7_R11fixed_arrayIcLj33EE
Aac:__ZN5physx2Gu26EPASupportMapPairLocalImplINS0_8CapsuleVENS0_11ConvexHullVEED0Ev
dZf:_Dictionary_2_System_Collections_ICollection_get_SyncRoot_m2175588702_gshared
Ngf:_HttpWebRequest_GetObjectData_m1200570677
TSe:_AppDomain_get_CurrentDomain_m3432767403
tXc:__ZN5physx7NpScene12createClientEv
TTb:__ZN9Scripting22CreateScriptableObjectERKNSt3__212basic_stringIcNS0_11char_traitsIcEENS0_9allocatorIcEEEE
opb:__Z24scripting_field_get_nameP9FieldInfo
Gbf:_ReceiveRecordAsyncResult_get_AsyncWaitHandle_m1602093076
Rzb:__Z19TransferField_ArrayI18StreamedBinaryReadILb0EE27Converter_UnityEngineObjectEvRK23StaticTransferFieldInfoR31RuntimeSerializationCommandInfoRT0_
Q3a:__ZN5Light8TransferI24GenerateTypeTreeTransferEEvRT_
F7b:__ZN26ContactCapsuleMeshCallback10processHitERKN5physx12PxRaycastHitERKNS0_6PxVec3ES6_S6_RfPKj
kN:__Z33InitializeBuiltinShaderParamNamesv
ESe:_ActivationContext_System_Runtime_Serialization_ISerializable_GetObjectData_m775951299
wCd:__ZN13PhysicsModule24CapsuleColliderSetHeightER15CapsuleColliderf
YEf:_GenericTypeParameterBuilder_get_Namespace_m1776615511
$bd:__ZN5physx14PxsAABBManager25removeAggregateSinglePairEjPNS_9AggregateEPNS_2Cm10BitMapBaseINS_6shdfnd9AllocatorEEE
WZ:__ZNK16TypeTreeIterator4TypeEv
r5f:_LeaseManager__ctor_m2166901364
Ebg:__ZL73MarshalAsAttribute_t2900773360_CustomAttributesCacheGenerator_MarshalTypeP21CustomAttributesCache
ej:_glGetUniformLocation
dfa:__ZN13GfxDeviceGLES32CreateColorRenderSurfacePlatformEP17RenderSurfaceBase19RenderTextureFormat
wqg:__ZL55TypeConverter_t745995970_CustomAttributesCacheGeneratorP21CustomAttributesCache
h3b:__ZN9rapidjson6WriterI16TempBufferWriterNS_4UTF8IcEES3_13JSONAllocatorE8WriteIntEi
o5a:__ZN16LevelGameManager8TransferI19StreamedBinaryWriteILb0EEEEvRT_
uUc:__ZN5physx2Sc10NPhaseCore9visualizeERNS_2Cm12RenderOutputE
Nwe:_IntPtr_GetHashCode_m1174575389
Vqd:__ZN5physx2Gu12TriangleMesh15exportExtraDataERNS_22PxSerializationContextE
dxh:__ZN6il2cpp2vm13MetadataCache24GetGenericInstanceMethodEPK10MethodInfoPK20Il2CppGenericContext
DIe:_MSCompatUnicodeTable_get_IsReady_m562849792
IIe:_SimpleCollator_SetCJKTable_m1356471502
dAb:__Z18Transfer_BlittableI18StreamedBinaryReadILb1EELb0E8Vector2fEvRK29SerializationCommandArgumentsR31RuntimeSerializationCommandInfo
ave:_Int32_System_IConvertible_ToUInt64_m2888588559_AdjustorThunk
pJ:__Z24ConvertSeparatorsToUnityPc
YMh:__ZN6il2cpp2vm6Thread20FreeThreadStaticDataEP12Il2CppThread
Kae:_Console_SetEncodings_m342145566
Dne:__ZN16VirtFuncInvoker0IP23AssemblyName_t894705941E6InvokeEjPv
$Mg:__Z57RuntimeInvoker_Int64_t909078037_Il2CppObject_Il2CppObjectPK10MethodInfoPvPS2_
zne:_Exception_get_ClassName_m2189012117
YSb:__Z41InitializeTransferFieldFromScriptingFieldR18TransferField_InfoPKS_P9FieldInfoP11Il2CppClassRK34BuildSerializationCommandQueueArgsR32SerializationCommandQueueBuilderRP20AllowNameConversionsRK20CoreScriptingClasses
Vxe:_IOException__ctor_m613517077
gqc:__ZN5physx2Sc8BodyCore17setupSimStateDataEPNS_6shdfnd4PoolINS0_12SimStateDataENS2_19ReflectionAllocatorIS4_EEEEbb
Rrc:__ZN5physx2Sc18ParticleSystemCore20returnStandaloneDataEPNS_15PxsParticleDataE
rae:_Stack__ctor_m521896492
lFa:__Z20LookRotationToMatrixRK8Vector3fS1_P10Matrix3x3f
qNc:__Z25computePacketSizeMultLog2ff
K5c:__ZN5physx2Cm12DelegateTaskINS_13PxsCCDContextEXadL_ZNS2_14postCCDAdvanceEPNS_10PxBaseTaskEEEED0Ev
lLe:_SequentialSearchPrimeGeneratorBase__ctor_m1628348781
ap:__ZN5Unity9Component26SupportedMessagesDidChangeEi
yAe:_IOException__ctor_m847281350
Zkb:__ZNSt3__26vectorIN15ResourceManager10DependencyE13stl_allocatorIS2_L18MemLabelIdentifier51ELi16EEE6assignINS_11__wrap_iterIPS2_EEEENS_9enable_ifIXaasr21__is_forward_iteratorIT_EE5valuesr16is_constructibleIS2_NS_15iterator_traitsISC_E9referenceEEE5valueEvE4typeESC_SC_
yqa:__ZN10GpuProgramD0Ev
LGg:_Type_GetTypeFromHandle_m432505302
Kxe:_BinaryReader_ReadUInt16_m2664161107
mKd:_RSA__ctor_m375023755
Mqf:_ObjRef_set_URI_m1923766829
l1:__ZN14SafeBinaryRead19TransferSTLStyleMapINSt3__23mapI8UnityStrS3_NS1_4lessIS3_EE13stl_allocatorINS1_4pairIKS3_S3_EEL18MemLabelIdentifier1ELi16EEEEEEvRT_17TransferMetaFlags
q1f:_GCHandle_FreeHandle_m2466807271
wVc:__ZN5physx16PxsIslandManager18setEdgeUnconnectedERKNS_20PxsIslandManagerHookIjLj4294967295EEE
uC:__ZN11UnityEngine15CloudWebService14DataDispatcher25OnDataBlockConsumedStaticEPv
j5b:__ZL27GeomMTDCallback_PlaneConvexRN5physx6PxVec3ERfRKNS_10PxGeometryERKNS_11PxTransformES5_S8_
Trd:__ZN5physx7Cooking17createHeightFieldERKNS_17PxHeightFieldDescERNS_26PxPhysicsInsertionCallbackE
fhg:__ZL54_MethodInfo_t3642518830_CustomAttributesCacheGeneratorP21CustomAttributesCache
JOg:__Z46RuntimeInvoker_Il2CppObject_Decimal_t724701077PK10MethodInfoPvPS2_
_$e:_Array_InternalArray__get_Item_TisSingle_t2076509932_m1495809753_gshared
KBb:__Z29Transfer_Blittable_ArrayFieldI18StreamedBinaryReadILb1EE11QuaternionfEvRT_R9ArrayInfoRK23StaticTransferFieldInfo
FSe:_ActivationContext_Finalize_m2739906132
Ave:_Int64_System_IConvertible_ToByte_m3027162116_AdjustorThunk
Mdh:_ReadOnlyCollection_1_Contains_m1895759124_gshared
G:Math_pow
IKc:__ZNK5physx2Sc9ClothCore16getStretchConfigENS_22PxClothFabricPhaseType4EnumE
KVc:__ZN5physx6shdfnd5ArrayIPvNS0_15InlineAllocatorILj256ENS0_19ReflectionAllocatorINS_2Gu30LargePersistentContactManifoldEEEEEE15growAndPushBackERKS2_
n4d:_ArrayList__cctor_m2090802806
wJc:__ZN5physx2Sc13ClothBulkData15exportExtraDataERNS_22PxSerializationContextE
Hca:__ZNSt3__27__sort4IRNS_4lessIN22BuiltinResourceManager8ResourceEEEPS3_EEjT0_S7_S7_S7_T_
$va:__ZN17ArchiveFileSystem4CopyER13FileEntryDataS1_
Dka:__ZN4crnd12crn_unpacker11unpack_dxt5EPPhjjjjjj
wJg:_UInt32_System_IConvertible_ToUInt64_m4083788326_AdjustorThunk
Kkc:__ZN5physx6shdfnd4sortIPvNS0_4LessIS2_EENS0_19ReflectionAllocatorINS_2Sc19ShapeInstancePairLLEEEEEvPT_jRKT0_RKT1_j
oyf:_DESTransform_Permutation_m4174035780
bye:_Path_IsDsc_m1314465747
hze:_MonoIO_Seek_m3461199288
Jzb:__Z29Transfer_Blittable_ArrayFieldI18StreamedBinaryReadILb0EE4AABBEvRT_R9ArrayInfoRK23StaticTransferFieldInfo
Geg:__ZL50OpCodes_t3494785031_CustomAttributesCacheGeneratorP21CustomAttributesCache
O0h:__ZNK15dense_hashtableINSt3__24pairIK10KeyWrapperIPK19Il2CppGenericMethodEP10MethodInfoEES6_N6il2cpp8metadata23Il2CppGenericMethodHashEN14dense_hash_mapIS6_S9_SD_NSC_26Il2CppGenericMethodCompareENS0_9allocatorISA_EEE9SelectKeyESF_SH_E12test_deletedEj
Fng:__ZL78Convert_t2607082565_CustomAttributesCacheGenerator_Convert_ToInt64_m1009422297P21CustomAttributesCache
CN:__ZNSt3__26__treeINS_12__value_typeINS_4pairIPcS3_EENS_3setIS3_15compare_tstringIPKcENS_9allocatorIS3_EEEEEENS_19__map_value_compareIS4_SD_20smaller_tstring_pairIS8_ELb1EEENSA_ISD_EEE7destroyEPNS_11__tree_nodeISD_PvEE
XVb:__Z52Register_UnityEngine_GameObject_GetComponentInParentv
Bjb:__ZN15SerializeTraitsINSt3__24pairIPKN5Unity4TypeE7Hash128EEE8TransferI14SafeBinaryReadEEvRS7_RT_
Wyd:__ZN5physx7profile10EventValue9streamifyINS0_15EventSerializerINS0_12MemoryBufferINS0_21WrapperNamedAllocatorEEEEEEEvRT_RKNS0_11EventHeaderE
BBa:__Z37GenerateCombinedDynamicVisibleListJobP11CullResults
xK:__GLOBAL__sub_I_runtime_graphics_billboard_lump_cpp
XH:__ZNK13ScreenManager21GetCursorInsideWindowEv
m$h:__ZN6il2cpp2vmL22RaiseOverflowExceptionEv
YXe:_Array_InternalArray__ICollection_Add_TisSByte_t454417549_m46595441_gshared
KTc:__ZN5physx13PxRigidStaticD0Ev
Lwg:_Match_get_Empty_m3581361913
xWf:_Comparer_1__ctor_m4082958187_gshared
RIa:__Z20IntersectAABBFrustumRK4AABBPK5Planej
bUd:_String_Concat_m626692867
qRa:__ZNSt3__26vectorI17MessageIdentifierNS_9allocatorIS1_EEE8__appendEj
K8f:__ZL49Double_t4078015681_CustomAttributesCacheGeneratorP21CustomAttributesCache
VYb:__ZN6HelperI8JSONRead18TransferField_InfoE24SerializationFunctionForERKS1_R23StaticTransferFieldInfoPb
UOb:__ZN13RenderManager15InitializeClassEv
h1d:_Convert_ToUInt32_m3686071170
ZQc:__ZN5physx19NpRigidBodyTemplateINS_14PxRigidDynamicEE25setMassSpaceInertiaTensorERKNS_6PxVec3E
HF:__ZNSt3__23mapIN19CloudServiceHandler11ServiceTypeEPS1_NS_4lessIS2_EE13stl_allocatorINS_4pairIKS2_S3_EEL18MemLabelIdentifier85ELi16EEEixERS8_
Dpd:__ZN5physx6shdfnd8internal8HashBaseIPNS_2Gu11HeightFieldES5_NS0_4HashIS5_EENS1_11HashSetBaseIS5_S7_NS0_9AllocatorELb1EE6GetKeyES9_Lb1EE6createERKS5_Rb
Sxd:__ZN5physx7profile8ZoneImplINS_28PxProfileNameProviderForwardEED0Ev
Qpa:__ZN14DrawBufferGLESI11IndexBuffer26IndexBufferUsageMapperGLESE10BeginWriteEjj
pdh:_ReadOnlyCollection_1_get_Count_m1203010282_gshared
b9f:__ZL39IntPtr_t_CustomAttributesCacheGeneratorP21CustomAttributesCache
Fqi:dynCall_iiiiiiiiiiffffii
nii:__ZNKSt3__28time_getIwNS_19istreambuf_iteratorIwNS_11char_traitsIwEEEEE12__get_secondERiRS4_S4_RjRKNS_5ctypeIwEE
qF:__ZN11UnityEngine15CloudWebService17WebFileDownloaderINS0_13WWWRestClientENS0_16WWWRestHeaderMapEED0Ev
J0b:__ZN9JSONWrite8TransferI11ColorRGBA32EEvRT_PKc17TransferMetaFlags
OZb:__Z22TransferField_NonArrayI8JSONRead27Converter_SimpleNativeClassI8GradientEEvRK23StaticTransferFieldInfoR31RuntimeSerializationCommandInfoRT0_
sma:__ZNSt3__26vectorI15ComputeShaderCBNS_9allocatorIS1_EEE21__push_back_slow_pathIKS1_EEvRT_
Xlc:__ZL28GeomOverlapCallback_MeshMeshRKN5physx10PxGeometryERKNS_11PxTransformES2_S5_PNS_2Gu12TriggerCacheE
h$f:_DefaultComparer_GetHashCode_m3006415128_gshared
gog:__ZL79Convert_t2607082565_CustomAttributesCacheGenerator_Convert_ToUInt16_m2828700513P21CustomAttributesCache
Goa:__ZNK18GfxFramebufferGLES15DiscardContentsER12ObjectHandleI17RenderSurface_TagP17RenderSurfaceBaseE
_sb:__Z33BuildSerializationCommandQueueForI18StreamedBinaryReadILb0EEEvRK34BuildSerializationCommandQueueArgsR32SerializationCommandQueueBuilderRP20AllowNameConversionsbPK18TransferField_Info
pNe:_KeyPairPersistence_IsUserProtected_m37342608
Bci:___fflush_unlocked
L1b:__Z18Transfer_BlittableI9JSONWriteLb1EdEvRK29SerializationCommandArgumentsR31RuntimeSerializationCommandInfo
Sui:_glGetIntegerv__wrapper
Vpe:_NumberFormatter_ResetCharBuf_m3823516989
g3c:__ZN5physx23ArticulationRootManagerD0Ev
Bvf:_SerializationInfo_GetInt16_m3549836657
kDa:__ZNK19RenderEventsContext7CleanupEv
Zoh:_StackTraceUtility_IsSystemStacktraceType_m506502194
r8a:__ZN9Texture2DD2Ev
sK:__GLOBAL__sub_I_runtime_geometry_lump_cpp
J4d:_ArrayList_Remove_m3941780739
ywd:__ZN14PhysicsManager8TransferI19StreamedBinaryWriteILb0EEEEvRT_
EBh:__ZN6il2cpp2vm21ThreadPoolCompartment12DetachThreadEP12Il2CppThread
_qe:_DateTimeFormatInfo_get_RawAbbreviatedMonthNames_m19087795
nhg:__ZL53IActivator_t1538980900_CustomAttributesCacheGeneratorP21CustomAttributesCache
fc:invoke_iiiifiiiii
u1c:__ZN5physx2Sc5Scene31setClothInterCollisionStiffnessEf
TLf:__ZN16VirtFuncInvoker1IP22ByteU5BU5D_t3397334013iE6InvokeEjPvi
wCf:_ConstructorBuilder_not_created_m2150488017
M1d:_Convert_ToChar_m2170787796
Mjg:__ZL67DSACryptoServiceProvider_t2915171657_CustomAttributesCacheGeneratorP21CustomAttributesCache
nr:__ZNSt3__26vectorIiNS_9allocatorIiEEE6insertENS_11__wrap_iterIPKiEERS5_
LQ:__ZN23ManagedAttributeManager24GetDefaultExecutionOrderEP11Il2CppClass
ACg:_Uri_AppendQueryAndFragment_m2358658590
wmd:__ZN5physx2Cm12DelegateTaskINS_2Sc5SceneEXadL_ZNS3_19updateCCDSinglePassEPNS_10PxBaseTaskEEEED0Ev
XVd:_DecoderReplacementFallbackBuffer_Fallback_m1790184670
Tl:_glGenRenderbuffers
dTh:__ZN6il2cpp6icalls8mscorlib6System2IO6MonoIO19GetCurrentDirectoryEPi
amd:__ZN5physx2Sc13ConstraintSim11projectPoseEPNS0_7BodySimE
A2f:_ChannelInfo_get_ChannelData_m2401378984
wAg:_CapturingGroup_IsComplex_m844914640
gUd:_String_GetHashCode_m931956593
Ujb:__ZN14PlayerSettings23VirtualRedirectTransferER17RemapPPtrTransfer
PXa:__ZN14CachingManager7DisposeEv
GVe:_Array_InternalArray__IEnumerable_GetEnumerator_TisCustomAttributeNamedArgument_t94157543_m2704432855_gshared
qdd:__ZN5physx21PxcContactCapsuleMeshERKNS_2Gu13GeometryUnionES3_RKNS_11PxTransformES6_RKfRNS_10PxcNpCacheERNS0_13ContactBufferE
bz:__ZN12AudioManager31GetCurrentSpatializerDefinitionEv
thb:__ZN12MeshRenderer16UpdateCachedMeshEv
ICd:__ZN9Rigidbody11SetPositionERK8Vector3f
$rb:__Z19TransferField_ArrayI14SafeBinaryRead27Converter_SimpleNativeClassI8GradientEEvRK23StaticTransferFieldInfoR31RuntimeSerializationCommandInfoRT0_
YBa:__Z34ProcessIndexListIsNodeVisibleStep1RK22SceneCullingParametersPK9SceneNodejjR9IndexList
off:_NameObjectCollectionBase_System_Collections_ICollection_CopyTo_m810189168
nvc:__ZN5physx19NpArticulationJoint21setExternalComplianceEf
dme:_EntryPointNotFoundException__ctor_m1386578372
qNa:__ZN6Camera15SetOrthographicEb
azh:__ZL24UnresolvedVirtualCall_34P12Il2CppObjectS0_PK10MethodInfo
yzh:__ZL24UnresolvedVirtualCall_58P12Il2CppObjectsPK10MethodInfo
bea:__ZN13GfxDeviceGLES14DisableScissorEv
T2c:__ZN5physx17PxcNpMemBlockPool23releaseConstraintMemoryEv
TCb:__ZN22MemoryCacherReadBlocks13GetFileLengthEv
pgg:__ZL71ReliabilityContractAttribute_t1625655220_CustomAttributesCacheGeneratorP21CustomAttributesCache
evg:__ZL55ContactPoint_t1376425630_CustomAttributesCacheGeneratorP21CustomAttributesCache
Nid:__ZNK5physx10PxsContext25getManagerTouchEventCountEPiS1_S1_
_ee:_Decimal_op_Explicit_m1986696267
uqe:_NumberFormatter_AppendDecimalString_m3532330813
vc:_glVertexAttrib4f
qNh:__ZNSt3__26vectorIiNS_9allocatorIiEEE21__push_back_slow_pathIRKiEEvOT_
PCf:_ILGenerator__ctor_m3365621387
jne:_Environment_GetFolderPath_m1849163024
TLe:_ASN1_Add_m2540239672
LUe:_Array_InternalArray__ICollection_Remove_TisInt16_t4041245914_m3380378727_gshared
hag:__ZL68Il2CppArray_CustomAttributesCacheGenerator_Array_SetValue_m169741241P21CustomAttributesCache
JOf:_InternalEnumerator_1__ctor_m960275522_AdjustorThunk
c6c:__ZN5physx6shdfnd4sortIPNS_10PxsCCDPairENS_13ToiPtrCompareENS0_19ReflectionAllocatorIS3_EEEEvPT_jRKT0_RKT1_j
b7f:_MethodDictionary_CopyTo_m1721788774
dbg:__ZL52ICollection_t91669223_CustomAttributesCacheGeneratorP21CustomAttributesCache
_2f:_SinkProviderData__ctor_m1828480392
m1f:_GCHandle_GetTarget_m2056570211
A0h:__ZN30dense_hashtable_const_iteratorINSt3__24pairIK10KeyWrapperIPK19Il2CppGenericMethodEP10MethodInfoEES6_N6il2cpp8metadata23Il2CppGenericMethodHashEN14dense_hash_mapIS6_S9_SD_NSC_26Il2CppGenericMethodCompareENS0_9allocatorISA_EEE9SelectKeyESF_SH_E30advance_past_empty_and_deletedEv
Z3h:_GC_set_hdr_marks
tDa:__Z17SetupObjectMatrixRK10Matrix4x4fi
gRd:_SecurityFrame_ToString_m1282306399
EJe:_SimpleCollator_MatchesBackwardCore_m1884994267
SFg:_TimeSpan_From_m1249538749
wsc:__ZN5physx6shdfnd8PoolBaseINS_11NpAggregateENS0_19ReflectionAllocatorIS2_EEE17releaseEmptySlabsEv
_Ie:_SimpleCollator_GetSortKey_m1317491197
kYb:__Z43Object_CUSTOM_DoesObjectWithInstanceIDExisti
hqd:__ZN5physx13GuMeshFactory17createHeightFieldERKNS_17PxHeightFieldDescE
Myg:_Assertion_get_FalseExpression_m3078551371
aJf:_MonoEvent_GetCustomAttributes_m3899596098
HHd:__GLOBAL__sub_I_VRGfxHelpers_cpp
rBg:_Reference_IsComplex_m3827291813
Vp:__ZN4PPtrI6ObjectE8TransferI19StreamedBinaryWriteILb0EEEEvRT_
Rgg:__ZL70TypeLibImportClassAttribute_t2390314680_CustomAttributesCacheGeneratorP21CustomAttributesCache
YDe:_UnmanagedMemoryStream_Flush_m3305300000
Foe:_CompareInfo_GetHashCode_m103561552
rgh:_Camera_FireOnPreRender_m24116662
YHg:_TypeLoadException_GetObjectData_m2885802706
w8g:_List_1_System_Collections_Generic_ICollectionU3CTU3E_get_IsReadOnly_m2131934397_gshared
Luf:_ObjectManager_DoFixups_m835924385
Orf:_RemotingServices_CreateWellKnownServerIdentity_m3390048085
ws:__ZN4FMOD5Sound11setUserDataEPv
Wng:__ZL78Convert_t2607082565_CustomAttributesCacheGenerator_Convert_ToSByte_m1972336057P21CustomAttributesCache
sDb:__ZN14SafeBinaryRead21TransferSTLStyleArrayINSt3__26vectorIN9ShaderLab19SerializedSubShaderENS1_9allocatorIS4_EEEEEEvRT_17TransferMetaFlags
T2e:_ARC4Managed_KeySetup_m73384687
lva:__ZNK25SingleBlockMemoryFileData4SizeEv
Fmc:__ZN5physx6shdfnd8internal8HashBaseIPNS_2Sc15CoreInteractionES5_NS0_4HashIS5_EENS1_11HashSetBaseIS5_S7_NS0_9AllocatorELb1EE6GetKeyES9_Lb1EE5eraseERKS5_
k_a:__ZNK23ArchiveStorageConverter26GetUncompressedArchiveSizeEv
nhe:_DateTime_Equals_m2562884703
ISa:__Z29StdTemplateConversionFunctionItsEbPvR14SafeBinaryRead
Sed:__ZN5physx2Gu22GJKRelativePenetrationERKNS0_10ShrunkBoxVES3_RKNS_6shdfnd3aos15PsMatTransformVERKNS5_6FloatVERNS5_5Vec3VESD_SD_RS9_PhSF_Rh
Z5c:__ZN5physx2Cm12DelegateTaskINS_13PxsCCDContextEXadL_ZNS2_12postCCDSweepEPNS_10PxBaseTaskEEEE11runInternalEv
uAa:_UNITY_png_zfree
p_g:__Z50RuntimeInvoker_Void_t1841601450_RectU26_t844847526PK10MethodInfoPvPS2_
jw:__ZL50UnityAudioEffect_InternalSetFloatParameterCallbackP14FMOD_DSP_STATEif
HVa:__ZN17LowLevelAllocator4FreeEPvj
j9d:_KeyMarker__cctor_m2057880225
kyd:__ZN5physx7profile8ZoneImplINS_28PxProfileNameProviderForwardEE10eventValueEtyx
Vtg:__ZL82Object_t1021602117_CustomAttributesCacheGenerator_Object_Destroy_m4279412553____t1P21CustomAttributesCache
Fse:_TextInfo_get_ListSeparator_m3426465394
Tze:_FileStream_BeginWrite_m3895959548
U8e:_Context_set_RecordProtocol_m1968834768
gsf:_ServerIdentity_get_ObjectType_m2310936373
mlf:_X509Certificate2Enumerator_MoveNext_m1861665712
D8c:__ZN5physx24writeBackContactCoulomb4EPKNS_23PxcSolverConstraintDescERNS_16PxcSolverContextEPPKNS_17PxcSolverBodyDataES8_
Jdg:__ZL91BinaryReader_t2491843768_CustomAttributesCacheGenerator_BinaryReader_ReadUInt64_m1893783375P21CustomAttributesCache
FDg:_Monitor_Monitor_wait_m3813798368
KVd:_DecoderExceptionFallbackBuffer_Fallback_m3457210607
VTe:_Array_InternalArray__ICollection_Contains_TisDouble_t4078015681_m2262383923_gshared
U0a:__ZN9Behaviour10DeactivateE19DeactivateOperation
c8a:__ZN13StreamingInfo8TransferI14SafeBinaryReadEEvRT_
USf:_InternalEnumerator_1_MoveNext_m2302237510_AdjustorThunk
QSg:__Z87RuntimeInvoker_Boolean_t3825574718_IntPtr_t_Int64_t909078037_MonoIOErrorU26_t1029615899PK10MethodInfoPvPS2_
Qhc:__GLOBAL__sub_I_runtime_dynamics_lump_cpp
wmc:__ZNK5physx2Gu22SupportMapRelativeImplINS0_4BoxVEE9doSupportERKNS_6shdfnd3aos5Vec3VE
KMa:__Z23CalculateGlobalRotation23TransformAccessReadOnly
l$d:_Array_obj_swapper_m2156282294
qlf:_X509Store_Close_m2412711366
k0e:_AttributeHelperEngine_GetCustomAttributeOfType_TisIl2CppObject_m581732473_gshared
i2c:__ZN5physx2Cm10FanoutTaskD0Ev
npg:__ZL60LocalDataStoreSlot_t486331200_CustomAttributesCacheGeneratorP21CustomAttributesCache
VLc:__ZN5physx15NpActorTemplateINS_15PxParticleFluidEE14setOwnerClientEh
znc:__ZN5physx2Sc21ConstraintInteractionD2Ev
eNb:__Z43InitializeRendererAnimationBindingInterfacev
ES:__ZL26DestroyGameObjectRecursiveR10GameObjectR11BatchDelete
KEa:__ZN9Coroutine16SetCurrentMethodE21ScriptingMethodIl2Cpp
hPd:_PermissionSet_set_DeclarativeSecurity_m3993468766
o4h:_GC_allochblk_nth
lPa:__ZN12ImmediatePtrIN5Unity9ComponentEE8TransferI19StreamedBinaryWriteILb0EEEEvRT_
KDg:_Mutex_ReleaseMutex_m2143813124
nJg:_UInt32_System_IConvertible_ToSByte_m604037412_AdjustorThunk
nsd:__ZNK5physx2Gu9Container8ContainsEjPj
dmi:__ZNSt3__26locale5__imp7installINS_7num_putIwNS_19ostreambuf_iteratorIwNS_11char_traitsIwEEEEEEEEvPT_
uMb:__Z7HaloTexP9Texture2DPhiiii
zri:dynCall_i
rmh:_Physics_RaycastAll_m410413656
Wz:__ZN17AudioCustomFilter4InitEv
o5g:_X509Certificate__cctor_m2984068893
Drb:__ZN14SafeBinaryRead21TransferSTLStyleArrayI13dynamic_arrayIxLj8EEEEvRT_17TransferMetaFlags
Pqi:dynCall_f
Soe:_CultureInfo_ConstructInternalLocaleFromLcid_m1929848881
g5c:__ZN5physx6shdfnd9MutexImplC2Ev
jqi:dynCall_v
vBe:_Path__cctor_m3685888661
Uie:_Decimal_System_IConvertible_ToDateTime_m4247760250_AdjustorThunk
nMe:_BitConverterLE_ULongFromBytes_m2583105400
bRg:__Z112RuntimeInvoker_Int32_t2071877448_Il2CppObject_Il2CppObject_Int32_t2071877448_Int32_t2071877448_Int32_t2071877448PK10MethodInfoPvPS2_
wlg:__ZL77Encoding_t663144255_CustomAttributesCacheGenerator_Encoding_Clone_m2663608141P21CustomAttributesCache
DZf:_Dictionary_2_ToTKey_m965425080_gshared
T0a:__ZN6Camera23VirtualRedirectTransferER14SafeBinaryRead
V8g:_List_1_System_Collections_Generic_IEnumerableU3CTU3E_GetEnumerator_m3911881107_gshared
H9h:__ZNSt3__26vectorINS_12basic_stringIDsNS_11char_traitsIDsEENS_9allocatorIDsEEEENS4_IS6_EEE8__appendEj
RFg:_TimeSpan_FromDays_m2859053398
_1g:__Z74RuntimeInvoker_Void_t1841601450_Int32_t2071877448_ResourceInfo_t3933049236PK10MethodInfoPvPS2_
Ura:__ZN9GfxDevice22CopyComputeBufferCountE15ComputeBufferIDS0_j
Hdf:__ZN16VirtFuncInvoker2IbibE6InvokeEjPvib
ttc:__ZN5physx14NpArticulationD0Ev
kb:invoke_viiiiiiii
d9h:__ZN6il2cpp2os6Memory11AlignedFreeEPv
vEe:_MissingMemberException__ctor_m2869542203
Mqg:__ZL71PublicKey_t870392_CustomAttributesCacheGenerator_U3CU3Ef__switchU24map9P21CustomAttributesCache
iSe:__ZThn8_N6il2cpp2vm13ComObjectBaseI34__Il2CppComDelegate_t3311706788CCW18Il2CppIInspectableNS0_7details6ComNilES5_S5_S5_S5_S5_S5_E14QueryInterfaceERK10Il2CppGuidPPv
efi:__ZNKSt3__27collateIcE12do_transformEPKcS3_
nXg:__Z61RuntimeInvoker_Boolean_t3825574718_DateTimeOffset_t1362988906PK10MethodInfoPvPS2_
dCa:__ZNK6Camera16GetCullingMatrixEv
uWe:_Array_IndexOf_TisIl2CppObject_m1815604637_gshared
Lsf:_WellKnownClientTypeEntry_get_ApplicationUrl_m3129286015
YBg:_Uri_EnsureAbsoluteUri_m1892758054
GBa:__ZL60CombineDirectionalShadowCasterCullignIndexListsAndDestroyJobP20ShadowCullingJobData
Sp:__ZN18StreamedBinaryReadILb0EE21TransferSTLStyleArrayI13dynamic_arrayIiLj4EEEEvRT_17TransferMetaFlags
L8a:__ZN16LightmapSettings5ResetEv
gua:__ZN12FileAccessor4ReadEyPvPy
x7f:_MonoMethodMessage_get_ReturnValue_m3408856672
w0h:__ZNK15dense_hashtableINSt3__24pairIK10KeyWrapperIPK19Il2CppGenericMethodEP10MethodInfoEES6_N6il2cpp8metadata23Il2CppGenericMethodHashEN14dense_hash_mapIS6_S9_SD_NSC_26Il2CppGenericMethodCompareENS0_9allocatorISA_EEE9SelectKeyESF_SH_E5beginEv
HNa:__Z12AddComponentR10GameObjectPKcPNSt3__212basic_stringIcNS3_11char_traitsIcEENS3_9allocatorIcEEEE
nya:__Z12IsFirstFramev
l4d:_ArrayList_ThrowNewArgumentOutOfRangeException_m3795973535
jyg:_Regex_Init_m1873144192
FFh:_il2cpp_set_find_plugin_callback
rMe:_BitConverterLE_ToDouble_m516016818
sJ:__ZNK15FileSystemEntry6ExistsEv
PSa:__Z29StdTemplateConversionFunctionIsjEbPvR14SafeBinaryRead
zQa:__ZNK9Transform21GetLocalToWorldMatrixER10Matrix4x4f
gUb:__Z13IsPathCreatedRKNSt3__212basic_stringIcNS_11char_traitsIcEENS_9allocatorIcEEEE
Ood:__ZN5physx2Gu10ConvexMesh4loadERNS_13PxInputStreamE
Cag:__ZL65Il2CppArray_CustomAttributesCacheGenerator_Array_Sort_m1417611156P21CustomAttributesCache
WZh:__ZN15dense_hashtableINSt3__24pairIK10KeyWrapperIP14Il2CppIUnknownEjEES5_N6il2cpp5utils11PointerHashIS3_EEN14dense_hash_mapIS5_jSB_NS0_8equal_toIS5_EENS0_9allocatorIS7_EEE9SelectKeyESE_SG_E8min_sizeEjj
mt:__ZN13AudioListener23VirtualRedirectTransferER19StreamedBinaryWriteILb0EE
kRf:_InternalEnumerator_1_MoveNext_m1683120485_AdjustorThunk
Frd:__ZN5physx6shdfnd5ArrayIPvNS0_19ReflectionAllocatorIN17PxcPoolMallocData10PoolData16EEEE15growAndPushBackERKS2_
wfa:__ZN13GfxDeviceGLES11CopyTextureE9TextureIDS0_
qUb:__Z72Register_UnityEngine_AssetBundleCreateRequest_DisableCompatibilityChecksv
cui:_emscripten_glViewport__wrapper
pq:__ZN14SafeBinaryRead21TransferSTLStyleArrayINSt3__26vectorIhNS1_9allocatorIhEEEEEEvRT_17TransferMetaFlags
Orb:__ZN9Scripting34GetScriptingArrayStringElementImplEP11Il2CppArrayi
P3f:_Context__cctor_m3895126354
jog:__ZL79Convert_t2607082565_CustomAttributesCacheGenerator_Convert_ToUInt16_m1058302913P21CustomAttributesCache
M$f:_EqualityComparer_1_get_Default_m3911577264_gshared
OC:__ZN11UnityEngine15CloudWebService17SessionEventQueue15RestoreFromFileER12FileAccessorPvy
Kug:__ZL77Physics_t634932869_CustomAttributesCacheGenerator_Physics_Raycast_m2686676054P21CustomAttributesCache
k0f:_EqualityComparer_1__ctor_m2244446852_gshared
XBf:_CustomAttributeNamedArgument_t94157543_marshal_pinvoke
Ljb:__ZN14PlayerSettingsD2Ev
YHf:_MethodBase_get_ContainsGenericParameters_m1185248753
oze:_FileStream_get_Length_m2265080501
gHg:_Type_type_is_assignable_from_m1620694099
c3h:_GC_reclaim_all
uNd:__ZN18VirtActionInvoker3IP22ByteU5BU5D_t3397334013P8String_tiE6InvokeEjPvS1_S3_i
O4f:_ContextAttribute_GetPropertiesForNewContext_m4007241045
cf:___syscall122
Cbc:__ZN16RayRTreeCallbackILi1ELb1EED0Ev
E1e:_Kernel_Subtract_m2224959291
_Bh:__ZN6il2cpp2vm10ThreadPool5QueueEP14Il2CppDelegatePPvS3_P12Il2CppObject
oMf:_ResourceSet__ctor_m2566914412
bJc:__ZN5physx7NpCloth16setContactOffsetEf
$Ic:__ZN5physx7NpCloth23setSimulationFilterDataERKNS_12PxFilterDataE
O4b:__ZN5physx3Cct26CharacterControllerManager21resetObstaclesBuffersEv
M2e:_ASN1Convert_ToDateTime_m2305963290
dbh:_Collection_1_System_Collections_IList_Add_m2954354104_gshared
Zo:__ZNK6Object25GetNeedsPerObjectTypeTreeEv
Kmd:__ZN5physx6shdfnd5ArrayIPNS_10PxsCCDBodyENS0_19ReflectionAllocatorIS3_EEE8recreateEj
GMd:_SymmetricAlgorithm_Finalize_m1665128997
c_e:_Array_InternalArray__set_Item_TisDouble_t4078015681_m24756265_gshared
O0e:_BigInteger__ctor_m2991182310
eGh:__ZNK15dense_hashtableINSt3__24pairIK10KeyWrapperINS1_IPK14Il2CppAssemblyP11Il2CppClassEEEjEES9_17ReflectionMapHashIS8_EN14dense_hash_mapIS9_jSD_19ReflectionMapEqualsIS8_ENS0_9allocatorISB_EEE9SelectKeyESG_SI_E12test_deletedEj
jth:__ZN6il2cpp2vm5Class6IsEnumEPK11Il2CppClass
kVb:__Z52Register_UnityEngine_Camera_INTERNAL_CALL_RaycastTryv
ldi:_mkdir
Llg:__ZL86UTF7Encoding_t741406939_CustomAttributesCacheGenerator_UTF7Encoding_Equals_m3706778156P21CustomAttributesCache
Rhd:__ZN5physx6shdfnd8PoolBaseINS_21PxsBodyTransformVault13PxsBody2WorldENS0_19ReflectionAllocatorIS3_EEE12allocateSlabEv
Ebe:_Convert_ToByte_m791636053
VDc:__ZN5physx9NpPhysics17getVisualDebuggerEv
fri:dynCall_iifi
cPb:__Z16CreateRenderLoopR6Camera
Z7c:__ZN5physx20PxcNpCacheStreamPairC2ERNS_17PxcNpMemBlockPoolE
sSf:_InternalEnumerator_1__ctor_m3387972470_gshared
Uzb:__Z23TransferScriptingObjectI18StreamedBinaryReadILb1EEEvRT_P12Il2CppObjectP11Il2CppClassPK15MonoScriptCache
Hob:__ZN13MonoBehaviour23VirtualRedirectTransferER18StreamedBinaryReadILb0EE
SEb:__ZN9ShaderLab20SerializedSubProgramC2ERKS0_
wyi:_emscripten_glCompileShader__wrapper
SLd:_SHA256Managed_ProcessBlock_m1064908669
zF:__ZN11UnityEngine15CloudWebService17WebFileDownloaderINS0_13WWWRestClientENS0_16WWWRestHeaderMapEE24ExtractResponseEtagValueEv
a_h:__ZN30dense_hashtable_const_iteratorINSt3__24pairIK10KeyWrapperIP14Il2CppIUnknownEjEES5_N6il2cpp5utils11PointerHashIS3_EEN14dense_hash_mapIS5_jSB_NS0_8equal_toIS5_EENS0_9allocatorIS7_EEE9SelectKeyESE_SG_E30advance_past_empty_and_deletedEv
Doi:__ZNK10__cxxabiv121__vmi_class_type_info27has_unambiguous_public_baseEPNS_19__dynamic_cast_infoEPvi
yfe:_Convert_ToUInt64_m2215781574
J5g:_X509Certificate_VerifySignature_m4020723406
VHg:_TypeInitializationException_GetObjectData_m2244451030
Ooe:_CompareInfo_LastIndexOf_m2978196696
uli:__ZNSt3__26locale5facetD0Ev
NMe:_DSAManaged_Generate_m3166917081
cXf:_Enumerator_VerifyCurrent_m3330382363_AdjustorThunk
Mpd:__ZN5physx2Gu11HeightField13modifySamplesEiiRKNS_17PxHeightFieldDescEb
jl:_emscripten_glGetActiveUniform
Mrd:__ZN5physx7Cooking16platformMismatchEv
c$:__ZN16RenderTextureMap5QueryEPK17RenderSurfaceBase
ppb:__Z19ShouldTransferFieldR32SerializationCommandQueueBuilderP11Il2CppClassiR18TransferField_InfoRK20CoreScriptingClasses
k3a:__ZN5Light17MainThreadCleanupEv
_R:__ZN14FileCacherRead12GetCacheSizeEv
KDe:_UnexceptionalStreamWriter_Write_m186237617
fqh:_Vector4_GetHashCode_m1576457715_AdjustorThunk
Cjd:__ZN5physx28solveParallelCouloumFrictionERNS_18PxsDynamicsContextEjjPNS_13PxcSolverBodyEPNS_17PxcSolverBodyDataEjjPNS_25PxcArticulationSolverDescEjPNS_23PxcSolverConstraintDescEjS9_jPiSA_SA_SA_SA_SA_PNS_25PxcThresholdStreamElementEjSA_PNS_2Cm13SpatialVectorEPKPNS_11PxsBodyCoreERNSD_10BitMapBaseINS_6shdfnd9AllocatorEEEPKPNS_15PxsArticulationEjPViRNSL_5ArrayINS_24PxsConstraintBatchHeaderENSL_19ReflectionAllocatorISW_EEEES10_RNSV_IjNSX_IjEEEES13_PPNS_12PxsRigidBodyEj
I9f:__ZL72Enum_t2459695545_CustomAttributesCacheGenerator_Enum_ToObject_m745807726P21CustomAttributesCache
q1d:_Boolean_CompareTo_m1086129598_AdjustorThunk
sNb:__ZN8Material8GetFloatEN9ShaderLab16FastPropertyNameE
V6g:_X509ExtensionCollection__ctor_m1119345384
m7c:__ZN5physx2Gu18gjkRelativeRayCastINS0_9TriangleVENS0_4BoxVES2_NS0_10ShrunkBoxVEEEbRT_RT0_RKNS_6shdfnd3aos15PsMatTransformVERKNSA_6FloatVERKNSA_5Vec3VESJ_RSE_RSH_SL_fb
hEh:_il2cpp_array_element_size
eg:_pthread_key_create
Ozc:__ZN5physx2Sc8BodyCoreD2Ev
z4d:_ArrayList_Clear_m3834604134
jMc:__ZNK5physx22NpParticleBaseTemplateINS_15PxParticleFluidENS_15NpParticleFluidEE23getExternalAccelerationEv
v1:__ZN15SerializeTraitsI10ColorRGBAfE8TransferI14SafeBinaryReadEEvRS0_RT_
I5d:_FixedSizeArrayListWrapper_get_Capacity_m2972822506
byh:__ZN6il2cpp2vm13MetadataCache27GetEventDefinitionFromIndexEi
BT:__ZN22BuiltinResourceManager13StaticDestroyEPv
M_e:_Array_Resize_TisCustomAttributeTypedArgument_t1498197914_m3055365808_gshared
xS:__ZN10GameObject17GetComponentIndexEPN5Unity9ComponentE
cIc:__ZN5physx7NpCloth20setMotionConstraintsEPKNS_31PxClothParticleMotionConstraintE
ZRd:_Single_IsNegativeInfinity_m2615809279
ore:_DateTimeFormatInfo_get_Calendar_m532085644
M6e:_CipherSuiteFactory_GetSsl3SupportedCiphers_m2476597368
Xgf:_IPv6Address_Fill_m1824197512
Wwa:__Z19InitFloatExceptionsv
sHc:__ZN5physx15NpActorTemplateINS_7PxClothEE22setClientBehaviorFlagsENS_7PxFlagsINS_25PxActorClientBehaviorFlag4EnumEhEE
ZVg:__Z52RuntimeInvoker_Double_t4078015681_Double_t4078015681PK10MethodInfoPvPS2_
Cyf:_DSACryptoServiceProvider_Finalize_m1911772902
Cod:__ZNK5physx2Sc15ClothFabricCore9getPhasesEPNS_18PxClothFabricPhaseEj
hRa:__ZN35RegisterRuntimeInitializeAndCleanup22ExecuteInitializationsEv
Qug:__ZL77Physics_t634932869_CustomAttributesCacheGenerator_Physics_Raycast_m2736931691P21CustomAttributesCache
RSe:_AppDomain_getFriendlyName_m3264018353
r5h:_GC_set_no_dls
Qrg:__ZL72PKCS12_t1362584795_CustomAttributesCacheGenerator_U3CU3Ef__switchU24mapCP21CustomAttributesCache
F6:__ZN23PreloadManagerOperation14SetFinalTimingEffff
Hjb:__ZN13BuildSettings8TransferI18StreamedBinaryReadILb0EEEEvRT_
gIe:_Level2Map__ctor_m542306287
IJb:__ZN10GameObject15InitializeClassEv
U$c:__ZN5physx3Scb17ArticulationJoint9syncStateEv
U6c:__ZNK5physx2Gu29EPASupportMapPairRelativeImplINS0_8CapsuleVENS0_4BoxVEE18doWarmStartSupportEiiRNS_6shdfnd3aos5Vec3VES8_S8_
Nld:__ZN5physx17PxsThresholdTable5buildERKNS_18PxsThresholdStreamE
Jye:_IsolatedStorageException__ctor_m2390194344
qL:__ZZN15DirectorManager15InitializeClassEvEN41FixedUpdateDirectorFixedAdvanceTimestruct7ForwardEv
hZf:_Dictionary_2_System_Collections_Generic_ICollectionU3CSystem_Collections_Generic_KeyValuePairU3CTKeyU2CTValueU3EU3E_CopyTo_m1323252853_gshared
xbd:__ZN9BoxPruner12updateObjectERK5IAABBt
Vle:_Double_Equals_m920556135_AdjustorThunk
ufd:__ZN5physx2Gu22pcmContactPlaneCapsuleERKNS0_13GeometryUnionES3_RKNS_11PxTransformES6_RKfRNS0_5CacheERNS0_13ContactBufferE
y7:__ZN14AsyncOperationD0Ev
$hh:_ControllerColliderHit_t4070855101_marshal_pinvoke_back
K5e:_CipherSuite_get_ExpandedKeyMaterialSize_m296573450
W$g:__Z54RuntimeInvoker_Boolean_t3825574718_Vector3_t2243707580PK10MethodInfoPvPS2_
Ezd:__ZN5physx6shdfnd4sortIPvNS0_4LessIS2_EENS0_19ReflectionAllocatorINS_24NpPtrTableStorageManager8PtrBlockILi4EEEEEEEvPT_jRKT0_RKT1_j
Eae:_Stack_Push_m284336154
zhg:__ZL69IClientChannelSinkProvider_t2522474175_CustomAttributesCacheGeneratorP21CustomAttributesCache
_ge:_DateTime_Add_m4237489122
Mqh:__ZL11decimalLog2P19il2cpp_decimal_repr
Tkb:__ZN15ResourceManager10Dependency8TransferI14SafeBinaryReadEEvRT_
sG:__ZN3WWWD2Ev
z9c:__ZNK5physx29BroadPhaseBatchUpdateWorkTask7getNameEv
G2h:_GC_extend_size_map
Yxb:__Z49EmitSerializationCommandsForLinearCollectionFieldI18StreamedBinaryReadILb0EEEvRK18TransferField_InfoR32SerializationCommandQueueBuilderRP20AllowNameConversions
Bw:__ZN4FMOD6System9setDriverEi
xeb:__ZNK9Transform11GetRotationEv
ckf:_X509Certificate2_Find_m833446211
bWb:__Z36Register_UnityEngine_GameObject_Findv
z_c:__ZN5physx2Sc5Scene26setVisualizationCullingBoxERKNS_9PxBounds3E
avb:__Z18Transfer_BlittableI24GenerateTypeTreeTransferLb0EyEvRK29SerializationCommandArgumentsR31RuntimeSerializationCommandInfo
Dwh:__ZN15dense_hashtableINSt3__24pairIK10KeyWrapperIPK19Il2CppGenericMethodEPK26Il2CppGenericMethodIndicesEES6_N6il2cpp8metadata23Il2CppGenericMethodHashEN14dense_hash_mapIS6_SA_SE_NSD_26Il2CppGenericMethodCompareENS0_9allocatorISB_EEE9SelectKeyESG_SI_E15insert_noresizeERKSB_
Cji:__ZNSt3__219__double_or_nothingIjEEvRNS_10unique_ptrIT_PFvPvEEERPS2_S9_
zNe:_KeyPairPersistence_FromXml_m2310151202
PB:__ZN5physx10PxBaseTaskD2Ev
FUb:__Z60Register_UnityEngine_AsyncOperation_get_allowSceneActivationv
xie:_DBNull_System_IConvertible_ToUInt64_m2919804476
wdi:_fread
ABd:__Z27GetMeshAssetPathDescriptivePK4Mesh
VX:__Z25GetBuiltinResourceManagerv
o0d:__ZN21InterfaceFuncInvoker1IhP12Il2CppObjectE6InvokeEjP11Il2CppClassPvS1_
ZVh:__ZN6il2cpp2gc8GCHandle15GetTargetHandleEP12Il2CppObjectii
vma:__ZNSt3__26vectorIN20GpuProgramParameters19AtomicCounterBufferENS_9allocatorIS2_EEE21__push_back_slow_pathIKS2_EEvRT_
Ch:_llvm_trap
pN:__ZNSt3__27__sort5IRNS_6__lessIN12_GLOBAL__N_114ParamNameIndexES3_EEPS3_EEjT0_S7_S7_S7_S7_T_
Hhi:__ZNKSt3__28time_getIcNS_19istreambuf_iteratorIcNS_11char_traitsIcEEEEE11__get_am_pmERiRS4_S4_RjRKNS_5ctypeIcEE
yQh:__ZN6il2cpp6icalls8mscorlib6System9Threading6Thread8ClrStateEP12Il2CppThreadNS_2vm11ThreadStateE
Nxe:_Directory_CreateDirectory_m3561886598
T2b:__ZL34RegisterModuleICalls_JSONSerializev
b3h:_get_index
Icd:__ZNK5physx14SingleAABBTask7getNameEv
Cy:__ZN11AudioSource7SetMuteEb
ptd:__ZN5physx11HullLibrary11calchullgenEPNS_6float3Eiif
_7e:_ClientSessionInfo_get_Valid_m3589823308
yOe:_PKCS1_Sign_v15_m2137018891
ywg:__ZL60CodeGeneratedGrid_t3958255298_CustomAttributesCacheGeneratorP21CustomAttributesCache
tRb:__ZN17CollisionMeshData20VertexDataHasChangedEv
h1f:_GCHandle__ctor_m2952050298
$ea:__ZN13GfxDeviceGLES30SetBackBufferColorDepthSurfaceEP17RenderSurfaceBaseS1_
eQb:__ZN16StreamedResource8TransferI18StreamedBinaryReadILb0EEEEvRT_
QZc:__ZN5physx6shdfnd5ArrayINS_12PxActorShapeENS0_19ReflectionAllocatorIS2_EEE8recreateEj
XSc:__ZN5physx15NpActorTemplateINS_13PxRigidStaticEE14setOwnerClientEh
fph:_StateMachineBehaviour_OnStateMove_m3403753809
cMa:__ZNK20OcclusionCullingData22GetStaticRendererCountEv
On:FUNCTION_TABLE_iiiiifi
UGa:__ZNK6Camera17GetSkyboxMaterialEv
Iyi:_emscripten_glDisableVertexAttribArray__wrapper
TQf:_InternalEnumerator_1_get_Current_m3259181373_AdjustorThunk
Xcb:__ZN9Transform15ThreadedCleanupEv
QSf:_InternalEnumerator_1_get_Current_m789289033_gshared
Shb:__ZN12MeshRenderer18CalculateLocalAABBER4AABBRKS_RK4Mesh
SKc:__ZN5physx2Sc9ClothCore20setMotionConstraintsEPKNS_31PxClothParticleMotionConstraintE
qmc:__ZNK5physx2Gu22SupportMapRelativeImplINS0_11ConvexHullVEE14doSupportSweepERKNS_6shdfnd3aos5Vec3VE
kte:_Guid_ToString_m3927110175
BVa:__ZN21UnityDefaultAllocatorI17LowLevelAllocatorE8AllocateEji
shf:_IPv6Address_AsIPv4Int_m3565745471
pdd:__ZN5physx23PxcContactCapsuleConvexERKNS_2Gu13GeometryUnionES3_RKNS_11PxTransformES6_RKfRNS_10PxcNpCacheERNS0_13ContactBufferE
nUb:__Z43AssetBundleRequest_Get_Custom_PropAllAssetsP12Il2CppObject
ZGf:_TypeBuilder_MakeGenericType_m4282022646
Ijh:_Gradient_t3600583008_marshal_pinvoke
tta:__ZN12HandlerChain10AtomicMoveER13FileEntryDataS1_
Wfi:__ZNSt3__227__num_get_unsigned_integralImEET_PKcS3_Rji
JFf:_MethodBuilder_GetCustomAttributes_m923430117
DM:__ZN20SpeedTreeWindManager6UpdateEf
Ara:__ZN9GfxDevice19CreateSparseTextureE9TextureIDii13TextureFormati17TextureColorSpace
YAg:_Literal_GetWidth_m1285678191
Vce:_Decimal_ThrowAtPos_m3318712794
_Oe:_RSAManaged_GetPaddedValue_m4394397
IDe:_UnexceptionalStreamWriter__ctor_m2209699189
cQf:_InternalEnumerator_1_Dispose_m2337194690_AdjustorThunk
rPf:_InternalEnumerator_1_MoveNext_m3486952605_gshared
Ogb:__ZN14CompressedMesh8TransferI19StreamedBinaryWriteILb0EEEEvRT_
jtc:__ZN5physx6shdfnd5ArrayIPvNS0_15InlineAllocatorILj256ENS0_19ReflectionAllocatorINS_14NpRigidDynamicEEEEEE15growAndPushBackERKS2_
HAf:_AssemblyFileVersionAttribute__ctor_m2026149866
lUb:__Z58AssetBundleCreateRequest_CUSTOM_DisableCompatibilityChecksP12Il2CppObject
$$:__ZN9ShaderLab11shaderprops9GetTexEnvEPK19ShaderPropertySheetS3_NS_16FastPropertyNameE16TextureDimensionRNS0_16PropertyLocationE
Lbb:__ZNSt3__26vectorIN15QualitySettings14QualitySettingENS_9allocatorIS2_EEE26__swap_out_circular_bufferERNS_14__split_bufferIS2_RS4_EE
eGf:_TypeBuilder_SetParent_m387557893
hgc:__ZN5physx3Cct9SweepTest13onOriginShiftERKNS_6PxVec3E
$xc:__ZNK5physx2Sc8BodyCore17getInverseInertiaEv
z6e:_CipherSuiteCollection_cultureAwareCompare_m1825407448
txh:__ZN24dense_hashtable_iteratorINSt3__24pairIK10KeyWrapperINS0_12basic_stringIcNS0_11char_traitsIcEENS0_9allocatorIcEEEEEP11Il2CppClassEES9_N6il2cpp5utils11StringUtils12StringHasherIS8_EEN14dense_hash_mapIS9_SC_SI_NS0_8equal_toIS9_EENS6_ISD_EEE9SelectKeyESL_SM_E30advance_past_empty_and_deletedEv
Oqd:__ZNK5physx2Gu12TriangleMesh12getTrianglesEv
Npe:_DateTimeFormatInfo_GetEraName_m1437894363
wZe:_Array_InternalArray__Insert_TisLabelFixup_t4090909514_m3927736182_gshared
dMg:_WeakReference_get_TrackResurrection_m2095420877
Amf:_X509KeyUsageExtension_Encode_m3100824560
z$f:_DefaultComparer_GetHashCode_m1728348656_gshared
Xxf:_CspParameters_set_Flags_m4131471722
Xdc:__ZN26IntersectAnyVsMeshCallbackILi2ELb1EE10processHitERKN5physx12PxRaycastHitERKNS1_6PxVec3ES7_S7_RfPKj
bFf:_GenericTypeParameterBuilder_get_TypeHandle_m3293062357
Xlf:_X509ChainPolicy_get_ExtraStore_m2890873777
Yig:__ZL60FormatterServices_t3161112612_CustomAttributesCacheGeneratorP21CustomAttributesCache
oWc:__ZN5physx2Sc24ElementInteractionMarker11updateStateEb
tdc:__ZN5physx6shdfnd5ArrayINS_11PxDebugLineENS0_19ReflectionAllocatorIS2_EEE15growAndPushBackERKS2_
n9c:__ZN5physx25solveContactConcludeBlockEPKNS_23PxcSolverConstraintDescEjRNS_16PxcSolverContextE
rpb:__ZN9Scripting30IsSystemCollectionsGenericListEP11Il2CppClass
Enf:_Interpreter_PopulateGroup_m4098755954
r4e:_PrivateKeyInfo_DecodeRSA_m919734506
vWb:__ZNSt3__27__sort4IRNS_6__lessI11KeyframeTplIfES3_EEPS3_EEjT0_S7_S7_S7_T_
jOd:__ZThn8_NSt3__218basic_stringstreamIcNS_11char_traitsIcEENS_9allocatorIcEEED1Ev
mdd:__ZN5physx21PxcContactPlaneConvexERKNS_2Gu13GeometryUnionES3_RKNS_11PxTransformES6_RKfRNS_10PxcNpCacheERNS0_13ContactBufferE
PVa:__ZL16MouseMoveHandleriPK20EmscriptenMouseEventPv
zje:_Decimal_Multiply_m1884379383
WA:__ZN11AudioSource15InitializeClassEv
bph:_StateMachineBehaviour__ctor_m153194
fah:_Enumerator_System_Collections_IEnumerator_get_Current_m1270503615_gshared
jQf:_InternalEnumerator_1_System_Collections_IEnumerator_get_Current_m3315293493_gshared
tFa:__ZN11HaloManager17RenderGeometryJobEP25DynamicVBOGeometryJobDataj
kwe:_Int64_Parse_m4214159959
H2f:__ZN23InterfaceActionInvoker1IbE6InvokeEjP11Il2CppClassPvb
ZSf:_InternalEnumerator_1_System_Collections_IEnumerator_get_Current_m4023948615_gshared
Uyi:_emscripten_glBlendEquation__wrapper
Ymi:__ZNSt3__212basic_stringIcNS_11char_traitsIcEENS_9allocatorIcEEE6__initEPKcj
Fj:_emscripten_set_fullscreenchange_callback
PTc:__ZN5physx2Sc5Scene11preAllocateEjjjjj
jOe:_KeyPairPersistence__IsUserProtected_m3417764903
anf:_CategoryUtils_CategoryFromName_m226887453
Xje:_Decimal_op_Division_m1099836590
_E:__ZN11UnityEngine15CloudWebService14DataDispatcher22ResetNetworkRetryIndexEv
La:invoke_vifiiiiiiiiiiiiiiiiiiiiiiiiiiii
Kj:_emscripten_glDrawArrays
OOf:_InternalEnumerator_1_Dispose_m811081805_AdjustorThunk
xE:__ZN11UnityEngine15CloudWebService19SessionEventManagerC2Ev
Qj:_clock_getres
Gye:_File_Open_m1543461971
y6f:_LogicalCallContext_GetObjectData_m104142736
T8d:_Hashtable_KeyEquals_m1433874944
Tvd:__ZN14PhysicsManager5ResetEv
J0:__ZN30dense_hashtable_const_iteratorINSt3__24pairIKN9ShaderLab7Program23ShaderKeywordSetAndHashEPKNS2_10SubProgramEEES4_NS3_24ShaderKeywordHashFunctorEN14dense_hash_mapIS4_S8_SA_NS0_8equal_toIS4_EE13stl_allocatorIS9_L18MemLabelIdentifier65ELi16EEE9SelectKeyESD_SG_E30advance_past_empty_and_deletedEv
eyg:_QuickSearch_GetShiftDistance_m2364008966
aWf:__ZN21InterfaceFuncInvoker1IiiE6InvokeEjP11Il2CppClassPvi
bag:__ZL69Il2CppArray_CustomAttributesCacheGenerator_Array_SetValue_m2671138705P21CustomAttributesCache
rhc:__ZN5physx3Ext9MassProps13rotateInertiaERKNS_7PxMat33ERKNS_6PxQuatE
ljd:__ZN5physx32PxsSolverConstraintPartitionTaskD2Ev
cB:__ZL19CleanupModule_Audiov
SN:__Z23scripting_method_invoke21ScriptingMethodIl2CppP12Il2CppObjectR18ScriptingArgumentsPP15Il2CppExceptionb
G0f:_GenericComparer_1_Compare_m2516380588_gshared
IMh:__ZN6il2cpp2os4File10DeleteFileERKNSt3__212basic_stringIcNS2_11char_traitsIcEENS2_9allocatorIcEEEEPi
Oxe:_File_Exists_m1685968367
Frb:__Z29Transfer_Blittable_ArrayFieldI14SafeBinaryReadiEvRT_R9ArrayInfoRK23StaticTransferFieldInfo
PCh:__ZN6il2cpp6icalls8mscorlib6System8MonoType8GetFieldEP20Il2CppReflectionTypeP12Il2CppStringi
CLb:__ZN9Texture2D15InitializeClassEv
wvi:_emscripten_glVertexAttrib3fv__wrapper
Xtf:__ZN16VirtFuncInvoker0IjE6InvokeEjPv
Fxh:__ZN24dense_hashtable_iteratorINSt3__24pairIK10KeyWrapperIPK19Il2CppGenericMethodEPK26Il2CppGenericMethodIndicesEES6_N6il2cpp8metadata23Il2CppGenericMethodHashEN14dense_hash_mapIS6_SA_SE_NSD_26Il2CppGenericMethodCompareENS0_9allocatorISB_EEE9SelectKeyESG_SI_E30advance_past_empty_and_deletedEv
etg:__ZL98DebugLogHandler_t865810509_CustomAttributesCacheGenerator_DebugLogHandler_Internal_Log_m3491540823P21CustomAttributesCache
UM:__ZN13RuntimeStaticINSt3__212basic_stringIcNS0_11char_traitsIcEENS0_9allocatorIcEEEEE16StaticInitializeEPv
_Zd:_Array_get_IsFixedSize_m2250877846
k0h:__ZN14dense_hash_mapI10KeyWrapperIPK19Il2CppGenericMethodEP10MethodInfoN6il2cpp8metadata23Il2CppGenericMethodHashENS8_26Il2CppGenericMethodCompareENSt3__29allocatorINSB_4pairIKS4_S6_EEEEEC2EjRKS9_RKSA_
hvi:_emscripten_glGetIntegerv__wrapper
J6g:_X509Crl_VerifySignature_m25189948
xKe:_BigInteger_op_Inequality_m628223799
vxh:__ZNK15dense_hashtableINSt3__24pairIK10KeyWrapperINS0_12basic_stringIcNS0_11char_traitsIcEENS0_9allocatorIcEEEEEP11Il2CppClassEES9_N6il2cpp5utils11StringUtils12StringHasherIS8_EEN14dense_hash_mapIS9_SC_SI_NS0_8equal_toIS9_EENS6_ISD_EEE9SelectKeyESL_SM_E12test_deletedERK24dense_hashtable_iteratorISD_S9_SI_SO_SL_SM_E
NKb:__ZNK28MonoBehaviourPropertyBinding13GetFloatValueERKN11UnityEngine9Animation10BoundCurveE
Ngd:__ZN5physx24PxsParticleSystemBatcher19scheduleDynamicsCpuEPPNS_20PxvParticleSystemSimEjRNS_10PxBaseTaskE
Ukb:__ZN14SafeBinaryRead21TransferSTLStyleArrayINSt3__26vectorI4PPtrI6ObjectE13stl_allocatorIS5_L18MemLabelIdentifier51ELi16EEEEEEvRT_17TransferMetaFlags
T4h:_GC_generic_malloc
S3c:__ZNK5physx2Sq12BucketPruner7overlapERKNS0_9ShapeDataERNS0_14PrunerCallbackE
VKb:__ZNSt3__26vectorI16MessageForwarder13stl_allocatorIS1_L18MemLabelIdentifier6ELi8EEE6resizeEj
efa:__ZN13GfxDeviceGLES32CreateDepthRenderSurfacePlatformEP17RenderSurfaceBase17DepthBufferFormat
orh:__ZN15dense_hashtableINSt3__24pairIK10KeyWrapperIPK22Il2CppGenericParameterEP11Il2CppClassEES6_N6il2cpp5utils11PointerHashIS4_EEN14dense_hash_mapIS6_S9_SE_NS0_8equal_toIS6_EENS0_9allocatorISA_EEE9SelectKeyESH_SJ_E12expand_arrayEjN21dense_hash_map_traits17integral_constantIbLb0EEE
Hp:__ZN14SafeBinaryRead21TransferSTLStyleArrayI13dynamic_arrayIiLj4EEEEvRT_17TransferMetaFlags
GOf:_InternalEnumerator_1_MoveNext_m2651026500_AdjustorThunk
lad:__ZN5physx23PxsBroadPhaseContextSap7destroyEv
T6:__ZL30RegisterFilteredObjectCallbackPP12Il2CppObjectiPv
yxb:__Z18Transfer_BlittableI19StreamedBinaryWriteILb0EELb1EyEvRK29SerializationCommandArgumentsR31RuntimeSerializationCommandInfo
p4a:__ZN19LightProbeOcclusion8TransferI14SafeBinaryReadEEvRT_
Uwg:_MatchCollection_TryToGet_m2938913145
x6c:__ZN5physx19PxcGetMaterialShapeEPKNS_12PxsShapeCoreEjRNS_18PxcNpThreadContextEPNS_15PxsMaterialInfoE
izi:_emscripten_glIsTexture__wrapper
mjh:_GenericMixerPlayable_Create_m2816314293
Lmh:_Ray_ToString_m2019179238_AdjustorThunk
Xoi:_llvm_bswap_i32
SHd:_KeyedHashAlgorithm_get_Key_m3672929432
Hea:__ZN9GfxDevice25ReleaseAsyncCommandHeaderEPN21GfxDeviceAsyncCommand3ArgE
vra:__ZN9GfxDevice22UploadTextureCubeArrayE9TextureIDPKhjii13TextureFormatij17TextureColorSpace
uob:__ZN9TextAsset8TransferI24GenerateTypeTreeTransferEEvRT_
YSf:_InternalEnumerator_1_System_Collections_IEnumerator_Reset_m2116079299_AdjustorThunk
s3e:_MD2Managed_HashCore_m248147901
SH:__ZN13ScreenManager24SetAllowLayeredRenderingEb
Iob:__ZN13MonoBehaviour23VirtualRedirectTransferER17RemapPPtrTransfer
dpa:__ZN21UniformBufferTFMethod20IsBoneCountSupportedEi
BAe:_MemoryStream__ctor_m4073175573
sMc:__ZN5physx22NpParticleBaseTemplateINS_15PxParticleFluidENS_15NpParticleFluidEE18setDynamicFrictionEf
Qjb:__ZN14PlayerSettings10SmartResetEv
Awd:__ZNSt3__26__treeINS_12__value_typeI9ShapePair16TriggerStayStateEENS_19__map_value_compareIS2_S4_NS_4lessIS2_EELb1EEENS_9allocatorIS4_EEE7destroyEPNS_11__tree_nodeIS4_PvEE
o0:__ZN6Shader27MarkShaderStateNotSupportedEPKS_
hec:__Z13raycast_planeRKN5physx10PxGeometryERKNS_11PxTransformERKNS_6PxVec3ES8_fNS_7PxFlagsINS_9PxHitFlag4EnumEtEEjPNS_12PxRaycastHitEbPFbRSD_PvESG_
fWd:_EncoderExceptionFallbackBuffer_get_Remaining_m3206510944
Hw:__ZN10ObjectPoolIN4FMOD6ReverbENS0_7ReverbIEE7SetSizeEi
bQf:_InternalEnumerator_1_System_Collections_IEnumerator_get_Current_m3600601141_AdjustorThunk
UNa:__ZN10GameObject21EnsureUniqueTransformEbb
p2h:_GC_never_stop_func
iRe:_X509Certificate_get_ValidFrom_m941763238
Yzd:__ZN5physx9NpFactory14createInstanceEv
fke:_Delegate_CreateDelegate_m2101460062
m1d:_Boolean_CompareTo_m3691698947
A$f:_DefaultComparer_Equals_m3262686272_gshared
Ogc:__ZN5physx2Cm12RenderBufferD2Ev
Klc:__ZL32GeomOverlapCallback_PlaneCapsuleRKN5physx10PxGeometryERKNS_11PxTransformES2_S5_PNS_2Gu12TriggerCacheE
mLc:__ZN5physx2Sc9ClothCore13setGlobalPoseERKNS_11PxTransformE
dCe:_StreamReader_ReadToEnd_m3871366821
bAc:__ZN5physx2Sc9ShapeCore13setRestOffsetEf
LTe:_Array_InternalArray__ICollection_Contains_TisChar_t3454481338_m1444673620_gshared
LMa:__Z17CalculateGlobalSM23TransformAccessReadOnlyRKN4math7_float4E
gWe:__ZN21InterfaceFuncInvoker2IiiiE6InvokeEjP11Il2CppClassPvii
Eji:__ZNSt3__29money_getIwNS_19istreambuf_iteratorIwNS_11char_traitsIwEEEEED0Ev
qng:__ZL79Convert_t2607082565_CustomAttributesCacheGenerator_Convert_ToDecimal_m777781771P21CustomAttributesCache
CYg:__Z44RuntimeInvoker_X509KeyUsageFlags_t2461349531PK10MethodInfoPvPS2_
uEg:_ThreadStart__ctor_m3015256841
Kl:_emscripten_glLoadIdentity
nbe:_Decimal_op_GreaterThan_m1625379433
Ccc:__ZN5physx2Gu21sweepCapsuleTrianglesEjPKNS_10PxTriangleERKNS0_7CapsuleERKNS_6PxVec3EfPKjRNS_7PxFlagsINS_9PxHitFlag4EnumEtEERfRS7_SI_RjSI_SF_bPKNS0_3BoxE
Ip:__ZN4AABB8TransferI14SafeBinaryReadEEvRT_
lAa:_UNITY_png_destroy_info_struct
OGe:_NotImplementedException__ctor_m808189835
Bte:_Int16_System_IConvertible_ToDecimal_m2010889121_AdjustorThunk
Ehb:__ZN12MeshRenderer23VirtualRedirectTransferER19StreamedBinaryWriteILb0EE
I9a:__ZN18StreamedBinaryReadILb0EE21TransferSTLStyleArrayI13dynamic_arrayI12LightmapDataLj4EEEEvRT_17TransferMetaFlags
qXb:__Z49Register_UnityEngine_MonoBehaviour_StartCoroutinev
lni:__ZNSt3__212basic_stringIcNS_11char_traitsIcEENS_9allocatorIcEEE5eraseEjj
GTa:__Z11MD5ToStringPh
hy:__ZN20SoundChannelInstanceC2E11SoundHandleb
